
iPark.elf:     file format elf32-avr

Sections:
Idx Name          Size      VMA       LMA       File off  Algn
  0 .text         0000582a  00000000  00000000  000000b4  2**1
                  CONTENTS, ALLOC, LOAD, READONLY, CODE
  1 .data         00000820  00802000  0000582a  000058de  2**0
                  CONTENTS, ALLOC, LOAD, DATA
  2 .bss          00000224  00802820  00802820  000060fe  2**0
                  ALLOC
  3 .extram       0000304e  00804000  00804000  000060fe  2**0
                  CONTENTS, ALLOC, LOAD, DATA
  4 .debug_aranges 00000300  00000000  00000000  0000914c  2**0
                  CONTENTS, READONLY, DEBUGGING
  5 .debug_pubnames 00000f71  00000000  00000000  0000944c  2**0
                  CONTENTS, READONLY, DEBUGGING
  6 .debug_info   0000ae11  00000000  00000000  0000a3bd  2**0
                  CONTENTS, READONLY, DEBUGGING
  7 .debug_abbrev 0000282d  00000000  00000000  000151ce  2**0
                  CONTENTS, READONLY, DEBUGGING
  8 .debug_line   0000469d  00000000  00000000  000179fb  2**0
                  CONTENTS, READONLY, DEBUGGING
  9 .debug_frame  00000be0  00000000  00000000  0001c098  2**2
                  CONTENTS, READONLY, DEBUGGING
 10 .debug_str    00003dda  00000000  00000000  0001cc78  2**0
                  CONTENTS, READONLY, DEBUGGING
 11 .debug_loc    00004286  00000000  00000000  00020a52  2**0
                  CONTENTS, READONLY, DEBUGGING
 12 .debug_ranges 00000120  00000000  00000000  00024cd8  2**0
                  CONTENTS, READONLY, DEBUGGING

Disassembly of section .text:

00000000 <__vectors>:
       0:	0c 94 a9 01 	jmp	0x352	; 0x352 <__ctors_end>
       4:	0c 94 cf 01 	jmp	0x39e	; 0x39e <__bad_interrupt>
       8:	0c 94 cf 01 	jmp	0x39e	; 0x39e <__bad_interrupt>
       c:	0c 94 cf 01 	jmp	0x39e	; 0x39e <__bad_interrupt>
      10:	0c 94 cf 01 	jmp	0x39e	; 0x39e <__bad_interrupt>
      14:	0c 94 cf 01 	jmp	0x39e	; 0x39e <__bad_interrupt>
      18:	0c 94 cf 01 	jmp	0x39e	; 0x39e <__bad_interrupt>
      1c:	0c 94 cf 01 	jmp	0x39e	; 0x39e <__bad_interrupt>
      20:	0c 94 cf 01 	jmp	0x39e	; 0x39e <__bad_interrupt>
      24:	0c 94 cf 01 	jmp	0x39e	; 0x39e <__bad_interrupt>
      28:	0c 94 7d 21 	jmp	0x42fa	; 0x42fa <__vector_10>
      2c:	0c 94 cf 01 	jmp	0x39e	; 0x39e <__bad_interrupt>
      30:	0c 94 cf 01 	jmp	0x39e	; 0x39e <__bad_interrupt>
      34:	0c 94 cf 01 	jmp	0x39e	; 0x39e <__bad_interrupt>
      38:	0c 94 cf 01 	jmp	0x39e	; 0x39e <__bad_interrupt>
      3c:	0c 94 cf 01 	jmp	0x39e	; 0x39e <__bad_interrupt>
      40:	0c 94 cf 01 	jmp	0x39e	; 0x39e <__bad_interrupt>
      44:	0c 94 cf 01 	jmp	0x39e	; 0x39e <__bad_interrupt>
      48:	0c 94 cf 01 	jmp	0x39e	; 0x39e <__bad_interrupt>
      4c:	0c 94 cf 01 	jmp	0x39e	; 0x39e <__bad_interrupt>
      50:	0c 94 cf 01 	jmp	0x39e	; 0x39e <__bad_interrupt>
      54:	0c 94 cf 01 	jmp	0x39e	; 0x39e <__bad_interrupt>
      58:	0c 94 cf 01 	jmp	0x39e	; 0x39e <__bad_interrupt>
      5c:	0c 94 cf 01 	jmp	0x39e	; 0x39e <__bad_interrupt>
      60:	0c 94 cf 01 	jmp	0x39e	; 0x39e <__bad_interrupt>
      64:	0c 94 23 0f 	jmp	0x1e46	; 0x1e46 <__vector_25>
      68:	0c 94 61 0f 	jmp	0x1ec2	; 0x1ec2 <__vector_26>
      6c:	0c 94 9f 0f 	jmp	0x1f3e	; 0x1f3e <__vector_27>
      70:	0c 94 cf 01 	jmp	0x39e	; 0x39e <__bad_interrupt>
      74:	0c 94 cf 01 	jmp	0x39e	; 0x39e <__bad_interrupt>
      78:	0c 94 cf 01 	jmp	0x39e	; 0x39e <__bad_interrupt>
      7c:	0c 94 cf 01 	jmp	0x39e	; 0x39e <__bad_interrupt>
      80:	0c 94 b0 1e 	jmp	0x3d60	; 0x3d60 <__vector_32>
      84:	0c 94 cf 01 	jmp	0x39e	; 0x39e <__bad_interrupt>
      88:	0c 94 cf 01 	jmp	0x39e	; 0x39e <__bad_interrupt>
      8c:	0c 94 cf 01 	jmp	0x39e	; 0x39e <__bad_interrupt>
      90:	0c 94 cf 01 	jmp	0x39e	; 0x39e <__bad_interrupt>
      94:	0c 94 cf 01 	jmp	0x39e	; 0x39e <__bad_interrupt>
      98:	0c 94 cf 01 	jmp	0x39e	; 0x39e <__bad_interrupt>
      9c:	0c 94 cf 01 	jmp	0x39e	; 0x39e <__bad_interrupt>
      a0:	0c 94 cf 01 	jmp	0x39e	; 0x39e <__bad_interrupt>
      a4:	0c 94 cf 01 	jmp	0x39e	; 0x39e <__bad_interrupt>
      a8:	0c 94 cf 01 	jmp	0x39e	; 0x39e <__bad_interrupt>
      ac:	0c 94 cf 01 	jmp	0x39e	; 0x39e <__bad_interrupt>
      b0:	0c 94 cf 01 	jmp	0x39e	; 0x39e <__bad_interrupt>
      b4:	0c 94 cf 01 	jmp	0x39e	; 0x39e <__bad_interrupt>
      b8:	0c 94 cf 01 	jmp	0x39e	; 0x39e <__bad_interrupt>
      bc:	0c 94 cf 01 	jmp	0x39e	; 0x39e <__bad_interrupt>
      c0:	0c 94 cf 01 	jmp	0x39e	; 0x39e <__bad_interrupt>
      c4:	0c 94 cf 01 	jmp	0x39e	; 0x39e <__bad_interrupt>
      c8:	0c 94 cf 01 	jmp	0x39e	; 0x39e <__bad_interrupt>
      cc:	0c 94 cf 01 	jmp	0x39e	; 0x39e <__bad_interrupt>
      d0:	0c 94 cf 01 	jmp	0x39e	; 0x39e <__bad_interrupt>
      d4:	0c 94 cf 01 	jmp	0x39e	; 0x39e <__bad_interrupt>
      d8:	0c 94 cf 01 	jmp	0x39e	; 0x39e <__bad_interrupt>
      dc:	0c 94 cf 01 	jmp	0x39e	; 0x39e <__bad_interrupt>
      e0:	0c 94 cf 01 	jmp	0x39e	; 0x39e <__bad_interrupt>
      e4:	0c 94 cf 01 	jmp	0x39e	; 0x39e <__bad_interrupt>
      e8:	0c 94 cf 01 	jmp	0x39e	; 0x39e <__bad_interrupt>
      ec:	0c 94 cf 01 	jmp	0x39e	; 0x39e <__bad_interrupt>
      f0:	0c 94 cf 01 	jmp	0x39e	; 0x39e <__bad_interrupt>
      f4:	0c 94 cf 01 	jmp	0x39e	; 0x39e <__bad_interrupt>
      f8:	0c 94 cf 01 	jmp	0x39e	; 0x39e <__bad_interrupt>
      fc:	0c 94 cf 01 	jmp	0x39e	; 0x39e <__bad_interrupt>
     100:	0c 94 cf 01 	jmp	0x39e	; 0x39e <__bad_interrupt>
     104:	0c 94 cf 01 	jmp	0x39e	; 0x39e <__bad_interrupt>
     108:	0c 94 cf 01 	jmp	0x39e	; 0x39e <__bad_interrupt>
     10c:	0c 94 cf 01 	jmp	0x39e	; 0x39e <__bad_interrupt>
     110:	0c 94 cf 01 	jmp	0x39e	; 0x39e <__bad_interrupt>
     114:	0c 94 cf 01 	jmp	0x39e	; 0x39e <__bad_interrupt>
     118:	0c 94 cf 01 	jmp	0x39e	; 0x39e <__bad_interrupt>
     11c:	0c 94 cf 01 	jmp	0x39e	; 0x39e <__bad_interrupt>
     120:	0c 94 cf 01 	jmp	0x39e	; 0x39e <__bad_interrupt>
     124:	0c 94 cf 01 	jmp	0x39e	; 0x39e <__bad_interrupt>
     128:	0c 94 cf 01 	jmp	0x39e	; 0x39e <__bad_interrupt>
     12c:	0c 94 cf 01 	jmp	0x39e	; 0x39e <__bad_interrupt>
     130:	0c 94 cf 01 	jmp	0x39e	; 0x39e <__bad_interrupt>
     134:	0c 94 46 03 	jmp	0x68c	; 0x68c <__vector_77>
     138:	0c 94 cf 01 	jmp	0x39e	; 0x39e <__bad_interrupt>
     13c:	0c 94 cf 01 	jmp	0x39e	; 0x39e <__bad_interrupt>
     140:	0c 94 cf 01 	jmp	0x39e	; 0x39e <__bad_interrupt>
     144:	0c 94 cf 01 	jmp	0x39e	; 0x39e <__bad_interrupt>
     148:	0c 94 cf 01 	jmp	0x39e	; 0x39e <__bad_interrupt>
     14c:	0c 94 cf 01 	jmp	0x39e	; 0x39e <__bad_interrupt>
     150:	0c 94 cf 01 	jmp	0x39e	; 0x39e <__bad_interrupt>
     154:	0c 94 cd 21 	jmp	0x439a	; 0x439a <__vector_85>
     158:	0c 94 cf 01 	jmp	0x39e	; 0x39e <__bad_interrupt>
     15c:	0c 94 cf 01 	jmp	0x39e	; 0x39e <__bad_interrupt>
     160:	0c 94 cf 01 	jmp	0x39e	; 0x39e <__bad_interrupt>
     164:	0c 94 cf 01 	jmp	0x39e	; 0x39e <__bad_interrupt>
     168:	0c 94 cf 01 	jmp	0x39e	; 0x39e <__bad_interrupt>
     16c:	0c 94 cf 01 	jmp	0x39e	; 0x39e <__bad_interrupt>
     170:	0c 94 cf 01 	jmp	0x39e	; 0x39e <__bad_interrupt>
     174:	0c 94 cf 01 	jmp	0x39e	; 0x39e <__bad_interrupt>
     178:	0c 94 cf 01 	jmp	0x39e	; 0x39e <__bad_interrupt>
     17c:	0c 94 cf 01 	jmp	0x39e	; 0x39e <__bad_interrupt>
     180:	0c 94 cf 01 	jmp	0x39e	; 0x39e <__bad_interrupt>
     184:	0c 94 cf 01 	jmp	0x39e	; 0x39e <__bad_interrupt>
     188:	0c 94 cf 01 	jmp	0x39e	; 0x39e <__bad_interrupt>
     18c:	0c 94 cf 01 	jmp	0x39e	; 0x39e <__bad_interrupt>
     190:	0c 94 cf 01 	jmp	0x39e	; 0x39e <__bad_interrupt>
     194:	0c 94 cf 01 	jmp	0x39e	; 0x39e <__bad_interrupt>
     198:	0c 94 cf 01 	jmp	0x39e	; 0x39e <__bad_interrupt>
     19c:	0c 94 cf 01 	jmp	0x39e	; 0x39e <__bad_interrupt>
     1a0:	0c 94 cf 01 	jmp	0x39e	; 0x39e <__bad_interrupt>
     1a4:	0c 94 cf 01 	jmp	0x39e	; 0x39e <__bad_interrupt>
     1a8:	0c 94 cf 01 	jmp	0x39e	; 0x39e <__bad_interrupt>
     1ac:	0c 94 cf 01 	jmp	0x39e	; 0x39e <__bad_interrupt>
     1b0:	0c 94 cf 01 	jmp	0x39e	; 0x39e <__bad_interrupt>
     1b4:	0c 94 cf 01 	jmp	0x39e	; 0x39e <__bad_interrupt>
     1b8:	0c 94 cf 01 	jmp	0x39e	; 0x39e <__bad_interrupt>
     1bc:	0c 94 cf 01 	jmp	0x39e	; 0x39e <__bad_interrupt>
     1c0:	0c 94 cf 01 	jmp	0x39e	; 0x39e <__bad_interrupt>
     1c4:	0c 94 cf 01 	jmp	0x39e	; 0x39e <__bad_interrupt>
     1c8:	0c 94 cf 01 	jmp	0x39e	; 0x39e <__bad_interrupt>
     1cc:	0c 94 cf 01 	jmp	0x39e	; 0x39e <__bad_interrupt>
     1d0:	0c 94 cf 01 	jmp	0x39e	; 0x39e <__bad_interrupt>
     1d4:	0c 94 cf 01 	jmp	0x39e	; 0x39e <__bad_interrupt>
     1d8:	0c 94 cf 01 	jmp	0x39e	; 0x39e <__bad_interrupt>
     1dc:	0c 94 cf 01 	jmp	0x39e	; 0x39e <__bad_interrupt>
     1e0:	0c 94 cf 01 	jmp	0x39e	; 0x39e <__bad_interrupt>
     1e4:	0c 94 cf 01 	jmp	0x39e	; 0x39e <__bad_interrupt>
     1e8:	0c 94 cf 01 	jmp	0x39e	; 0x39e <__bad_interrupt>
     1ec:	0c 94 cf 01 	jmp	0x39e	; 0x39e <__bad_interrupt>
     1f0:	0c 94 cf 01 	jmp	0x39e	; 0x39e <__bad_interrupt>

000001f4 <hwDefinition_iPark>:
     1f4:	00 41 42 43 44 45 46 47 48 31 32 33 34 35 36 f1     .ABCDEFGH123456.
     204:	f2 24 23 71 72 73 74 75 76 77 78 91 92 93 94 95     .$#qrstuvwx.....
     214:	96 97 98 85 86 87 88 21 28 27 25 26                 .......!('%&

00000220 <hwDefinition_iPark_WeakPullDown>:
     220:	17 21 26 41 43 51 52 e3 e4                          .!&ACQR..

00000229 <__c.4216>:
     229:	43 6f 41 50 20 62 75 69 6c 64 20 66 61 69 6c 65     CoAP build faile
     239:	64 21 00                                            d!.

0000023c <__c.3458>:
     23c:	56 61 6c 75 65 20 25 75 2e 00                       Value %u..

00000246 <__c.3627>:
     246:	44 69 73 74 20 25 75 0a 00                          Dist %u..

0000024f <__c.3558>:
     24f:	41 75 74 6f 20 76 65 72 6c e4 73 73 74 20 50 61     Auto verl.sst Pa
     25f:	72 6b 70 6c 61 74 7a 2e 2e 0a 00                    rkplatz....

0000026a <__c.3555>:
     26a:	41 75 74 6f 20 67 65 70 61 72 6b 74 2e 0a 00        Auto geparkt...

00000279 <__c.3553>:
     279:	44 6f 63 68 20 6b 65 69 6e 20 41 75 74 6f 2e 2e     Doch kein Auto..
     289:	3f 0a 00                                            ?..

0000028c <__c.3550>:
     28c:	4b 65 69 6e 20 46 61 68 72 7a 65 75 67 20 67 65     Kein Fahrzeug ge
     29c:	70 61 72 6b 74 20 2d 20 73 70 65 72 72 65 20 50     parkt - sperre P
     2ac:	61 72 6b 70 6c 61 74 7a 2e 2e 0a 00                 arkplatz....

000002b8 <__c.3547>:
     2b8:	50 61 72 6b 70 6c 61 74 7a 20 69 73 74 20 62 65     Parkplatz ist be
     2c8:	66 61 68 72 62 61 72 2e 0a 00                       fahrbar...

000002d2 <__c.3544>:
     2d2:	50 61 72 6b 70 6c 61 74 7a 20 61 6e 67 65 66 6f     Parkplatz angefo
     2e2:	72 64 65 72 74 2e 0a 00                             rdert...

000002ea <__c.3541>:
     2ea:	46 61 68 72 7a 65 75 67 20 69 6d 20 57 65 67 21     Fahrzeug im Weg!
     2fa:	20 53 65 6e 6b 65 20 53 70 65 72 72 65 2e 0a 00      Senke Sperre...

0000030a <__c.3539>:
     30a:	53 70 65 72 72 65 20 69 73 74 20 48 4f 43 48 2e     Sperre ist HOCH.
     31a:	0a 00                                               ..

0000031c <__c.3536>:
     31c:	53 70 65 72 72 65 20 68 6f 63 68 2e 2e 0a 00        Sperre hoch....

0000032b <__c.3582>:
     32b:	50 61 72 6b 7a 65 69 74 20 76 6f 6e 20 25 6c 75     Parkzeit von %lu
     33b:	20 62 69 73 20 25 6c 75 20 66 75 65 72 20 49 44      bis %lu fuer ID
     34b:	20 25 6c 75 2e 00 00                                 %lu...

00000352 <__ctors_end>:
     352:	11 24       	eor	r1, r1
     354:	1f be       	out	0x3f, r1	; 63
     356:	cf ef       	ldi	r28, 0xFF	; 255
     358:	df e3       	ldi	r29, 0x3F	; 63
     35a:	de bf       	out	0x3e, r29	; 62
     35c:	cd bf       	out	0x3d, r28	; 61
     35e:	00 e0       	ldi	r16, 0x00	; 0
     360:	0c bf       	out	0x3c, r16	; 60
     362:	18 be       	out	0x38, r1	; 56
     364:	19 be       	out	0x39, r1	; 57
     366:	1a be       	out	0x3a, r1	; 58
     368:	1b be       	out	0x3b, r1	; 59

0000036a <__do_copy_data>:
     36a:	18 e2       	ldi	r17, 0x28	; 40
     36c:	a0 e0       	ldi	r26, 0x00	; 0
     36e:	b0 e2       	ldi	r27, 0x20	; 32
     370:	ea e2       	ldi	r30, 0x2A	; 42
     372:	f8 e5       	ldi	r31, 0x58	; 88
     374:	00 e0       	ldi	r16, 0x00	; 0
     376:	0b bf       	out	0x3b, r16	; 59
     378:	02 c0       	rjmp	.+4      	; 0x37e <__do_copy_data+0x14>
     37a:	07 90       	elpm	r0, Z+
     37c:	0d 92       	st	X+, r0
     37e:	a0 32       	cpi	r26, 0x20	; 32
     380:	b1 07       	cpc	r27, r17
     382:	d9 f7       	brne	.-10     	; 0x37a <__do_copy_data+0x10>
     384:	1b be       	out	0x3b, r1	; 59

00000386 <__do_clear_bss>:
     386:	1a e2       	ldi	r17, 0x2A	; 42
     388:	a0 e2       	ldi	r26, 0x20	; 32
     38a:	b8 e2       	ldi	r27, 0x28	; 40
     38c:	01 c0       	rjmp	.+2      	; 0x390 <.do_clear_bss_start>

0000038e <.do_clear_bss_loop>:
     38e:	1d 92       	st	X+, r1

00000390 <.do_clear_bss_start>:
     390:	a4 34       	cpi	r26, 0x44	; 68
     392:	b1 07       	cpc	r27, r17
     394:	e1 f7       	brne	.-8      	; 0x38e <.do_clear_bss_loop>
     396:	0e 94 09 02 	call	0x412	; 0x412 <main>
     39a:	0c 94 13 2c 	jmp	0x5826	; 0x5826 <_exit>

0000039e <__bad_interrupt>:
     39e:	0c 94 00 00 	jmp	0	; 0x0 <__vectors>

000003a2 <timer_test>:
#include "light.h"
#include "globals.h"

void timer_test(void * p) {
	//static unsigned char ctr;
	if (ISON(LED0)) {
     3a2:	81 e0       	ldi	r24, 0x01	; 1
     3a4:	0e 94 e8 07 	call	0xfd0	; 0xfd0 <hw_isOn>
	} else {
		//ON(LED0);
	}
	// This is to test the UART but interferes with normal operation:
	//uart_putc(uartPC, ctr++);
}
     3a8:	08 95       	ret

000003aa <start_hardware>:

void start_hardware() {
	// Pins initialisieren:
	hw_init();
     3aa:	0e 94 3e 09 	call	0x127c	; 0x127c <hw_init>
	
	// Korrekte Clock ist wichtig:
	selectClockSource(SYSTEM_CLOCK_32MHz);
     3ae:	81 e0       	ldi	r24, 0x01	; 1
     3b0:	0e 94 17 02 	call	0x42e	; 0x42e <selectClockSource>
	
	// Interrupts einschalten:
	PMIC.CTRL = PMIC_LOLVLEN_bm | PMIC_MEDLVLEN_bm | PMIC_HILVLEN_bm; // | PMIC_RREN_bm; // Round robin-Interrupts machen das System noch schwerer einzuschätzen!
     3b4:	87 e0       	ldi	r24, 0x07	; 7
     3b6:	e0 ea       	ldi	r30, 0xA0	; 160
     3b8:	f0 e0       	ldi	r31, 0x00	; 0
     3ba:	82 83       	std	Z+2, r24	; 0x02
	// Interrupts benötigen wir überall!
	sei();
     3bc:	78 94       	sei
	
	// Externen RAM starten:
	sdram_init();
     3be:	0e 94 12 06 	call	0xc24	; 0xc24 <sdram_init>

	// Systimer starten:
	systimer_init();
     3c2:	0e 94 30 03 	call	0x660	; 0x660 <systimer_init>
	
	// UART starten:
	uartmgmt_setupUARTs(hwDef.usartPC);
     3c6:	80 91 0a 2a 	lds	r24, 0x2A0A
     3ca:	90 91 0b 2a 	lds	r25, 0x2A0B
     3ce:	0e 94 dd 0f 	call	0x1fba	; 0x1fba <uartmgmt_setupUARTs>
	
	// Parameter laden:
	set_init();
     3d2:	0e 94 57 20 	call	0x40ae	; 0x40ae <set_init>
	
	// Wir haben nur eine interne 32 MHz-Clock die relativ ungenau ist. Wir brauchen aber genaues Timing
	// und benutzen dafür die RTC. Wir haben allerdings keine Referenz, von extern kann man die Unixtime
	// setzen und abfragen. Für die Parkzeitberechnung müssen wir das anders machen.
	rtc_init();
     3d6:	0e 94 36 21 	call	0x426c	; 0x426c <rtc_init>
	
	// Kommunikation einrichten:
	com_init(uartPC);
     3da:	80 91 0c 2a 	lds	r24, 0x2A0C
     3de:	90 91 0d 2a 	lds	r25, 0x2A0D
     3e2:	0e 94 54 13 	call	0x26a8	; 0x26a8 <com_init>
	
	// CoAP-Endpoints einrichten:
	ep_setup();
     3e6:	0e 94 ac 1d 	call	0x3b58	; 0x3b58 <ep_setup>
	
	// Wir benutzen einen Servo an PORTC.0
	servo_init(&TCC0);
     3ea:	80 e0       	ldi	r24, 0x00	; 0
     3ec:	98 e0       	ldi	r25, 0x08	; 8
     3ee:	0e 94 07 21 	call	0x420e	; 0x420e <servo_init>
	
	// Distanzsensoren initialisieren:
	dist_init();
     3f2:	0e 94 6e 22 	call	0x44dc	; 0x44dc <dist_init>

	// Ampel initialisieren:
	light_init();
     3f6:	0e 94 f2 25 	call	0x4be4	; 0x4be4 <light_init>
	
	// Parkplatzkonstrolle EIN:
	control_init();
     3fa:	0e 94 6d 25 	call	0x4ada	; 0x4ada <control_init>

	timer_addCallback(10, 1, timer_test, 0);
     3fe:	8a e0       	ldi	r24, 0x0A	; 10
     400:	90 e0       	ldi	r25, 0x00	; 0
     402:	61 e0       	ldi	r22, 0x01	; 1
     404:	41 ed       	ldi	r20, 0xD1	; 209
     406:	51 e0       	ldi	r21, 0x01	; 1
     408:	20 e0       	ldi	r18, 0x00	; 0
     40a:	30 e0       	ldi	r19, 0x00	; 0
     40c:	0e 94 e9 04 	call	0x9d2	; 0x9d2 <timer_addCallback>
}
     410:	08 95       	ret

00000412 <main>:

int main() {
     412:	1f 93       	push	r17
	
	start_hardware();
     414:	0e 94 d5 01 	call	0x3aa	; 0x3aa <start_hardware>
	
	while (1) {
		if (ISON(KEY3)) {
			// Über den Knopf können wir die Kollisionserkennung für eine sich hebende Sperre ganz abschalten falls das Probleme macht.
			globals.skipBarrierCollisionDetection = 1;
     418:	11 e0       	ldi	r17, 0x01	; 1
int main() {
	
	start_hardware();
	
	while (1) {
		if (ISON(KEY3)) {
     41a:	8c e0       	ldi	r24, 0x0C	; 12
     41c:	0e 94 e8 07 	call	0xfd0	; 0xfd0 <hw_isOn>
     420:	88 23       	and	r24, r24
     422:	11 f0       	breq	.+4      	; 0x428 <main+0x16>
			// Über den Knopf können wir die Kollisionserkennung für eine sich hebende Sperre ganz abschalten falls das Probleme macht.
			globals.skipBarrierCollisionDetection = 1;
     424:	10 93 11 2a 	sts	0x2A11, r17
		}
		
		check_timers();
     428:	0e 94 f5 03 	call	0x7ea	; 0x7ea <check_timers>
     42c:	f6 cf       	rjmp	.-20     	; 0x41a <main+0x8>

0000042e <selectClockSource>:
#include <avr/io.h>
#include "common.h"
#include "hardware.h"
#include "system_clock.h"

void selectClockSource(unsigned char clockMode) {
     42e:	98 2f       	mov	r25, r24
	// Sicherstellen, dass der interne 2MHz-Oszillator läuft
	if (!(OSC.STATUS & OSC_RC2MRDY_bm)) {
     430:	80 91 51 00 	lds	r24, 0x0051
     434:	80 fd       	sbrc	r24, 0
     436:	09 c0       	rjmp	.+18     	; 0x44a <selectClockSource+0x1c>
		OSC.CTRL |= OSC_RC2MEN_bm;
     438:	80 91 50 00 	lds	r24, 0x0050
     43c:	81 60       	ori	r24, 0x01	; 1
     43e:	80 93 50 00 	sts	0x0050, r24
		while (!(OSC.STATUS & OSC_RC2MRDY_bm)) { }
     442:	80 91 51 00 	lds	r24, 0x0051
     446:	80 ff       	sbrs	r24, 0
     448:	fc cf       	rjmp	.-8      	; 0x442 <selectClockSource+0x14>
	}
	
	// Standard-Clock damit wir gefahrfrei die Register ändern können
	asm volatile ("ldi  r16,  0xD8");
     44a:	08 ed       	ldi	r16, 0xD8	; 216
	asm volatile ("out  0x34, r16");
     44c:	04 bf       	out	0x34, r16	; 52
	CLK.CTRL = CLK_SCLKSEL_RC2M_gc;
     44e:	e0 e4       	ldi	r30, 0x40	; 64
     450:	f0 e0       	ldi	r31, 0x00	; 0
     452:	10 92 40 00 	sts	0x0040, r1
	
	switch (clockMode) {
     456:	99 23       	and	r25, r25
     458:	19 f0       	breq	.+6      	; 0x460 <selectClockSource+0x32>
     45a:	91 30       	cpi	r25, 0x01	; 1
     45c:	f9 f4       	brne	.+62     	; 0x49c <selectClockSource+0x6e>
     45e:	07 c0       	rjmp	.+14     	; 0x46e <selectClockSource+0x40>
		case SYSTEM_CLOCK_2MHz:
			// 2MHz is only clock source
			OSC.CTRL = OSC_RC2MEN_bm | OSC_RC32KEN_bm;
     460:	85 e0       	ldi	r24, 0x05	; 5
     462:	80 93 50 00 	sts	0x0050, r24
			asm volatile ("ldi  r16,  0xD8");
     466:	08 ed       	ldi	r16, 0xD8	; 216
			asm volatile ("out  0x34, r16");
     468:	04 bf       	out	0x34, r16	; 52
			CLK.PSCTRL = CLK_PSBCDIV_1_1_gc;
     46a:	11 82       	std	Z+1, r1	; 0x01
     46c:	08 95       	ret
			break;
			
		case SYSTEM_CLOCK_32MHz:
			asm volatile ("ldi  r16,  0xD8");
     46e:	08 ed       	ldi	r16, 0xD8	; 216
			asm volatile ("out  0x34, r16");
     470:	04 bf       	out	0x34, r16	; 52
			CLK.PSCTRL = CLK_PSBCDIV_1_1_gc;
     472:	11 82       	std	Z+1, r1	; 0x01
			// 32MHz- und 32 kHz-Oszillatoren an (32 kHz nutzen wir zur Kalibrierung):
			OSC.CTRL |= OSC_RC32MEN_bm | OSC_RC32KEN_bm;
     474:	80 91 50 00 	lds	r24, 0x0050
     478:	86 60       	ori	r24, 0x06	; 6
     47a:	80 93 50 00 	sts	0x0050, r24
			// Warten auf ext. Oszillator
			while (!(OSC.STATUS & OSC_RC32MRDY_bm) || !(OSC.STATUS & OSC_RC32KRDY_bm));
     47e:	80 91 51 00 	lds	r24, 0x0051
     482:	81 ff       	sbrs	r24, 1
     484:	fc cf       	rjmp	.-8      	; 0x47e <selectClockSource+0x50>
     486:	80 91 51 00 	lds	r24, 0x0051
     48a:	82 ff       	sbrs	r24, 2
     48c:	f8 cf       	rjmp	.-16     	; 0x47e <selectClockSource+0x50>
			// DFLL einschalten um den Oszillator besser zu kalibrieren:
			DFLLRC32M.CTRL = DFLL_ENABLE_bm;
     48e:	81 e0       	ldi	r24, 0x01	; 1
     490:	80 93 60 00 	sts	0x0060, r24
			// Vorbereiten zum Umschalten der Clock:
			asm volatile ("ldi  r16,  0xD8");
     494:	08 ed       	ldi	r16, 0xD8	; 216
			asm volatile ("out  0x34, r16");
     496:	04 bf       	out	0x34, r16	; 52
			// Umschalten auf 32 MHz-Clock:
			CLK.CTRL = CLK_SCLKSEL_RC32M_gc;
     498:	80 93 40 00 	sts	0x0040, r24
     49c:	08 95       	ret

0000049e <busy_wait>:
    milliseconds can be achieved.
 */
void
_delay_loop_2(uint16_t __count)
{
	__asm__ volatile (
     49e:	40 e2       	ldi	r20, 0x20	; 32
     4a0:	53 e0       	ldi	r21, 0x03	; 3
     4a2:	09 c0       	rjmp	.+18     	; 0x4b6 <busy_wait+0x18>


unsigned int toWait = 0;

void busy_wait(unsigned short milliseconds) {
	while (milliseconds > 16) {
     4a4:	20 ea       	ldi	r18, 0xA0	; 160
     4a6:	30 e0       	ldi	r19, 0x00	; 0
     4a8:	fa 01       	movw	r30, r20
     4aa:	31 97       	sbiw	r30, 0x01	; 1
     4ac:	f1 f7       	brne	.-4      	; 0x4aa <busy_wait+0xc>
		__ticks = (uint16_t) (__ms * 10.0);
		while(__ticks)
		{
			// wait 1/10 ms
			_delay_loop_2(((F_CPU) / 4e3) / 10);
			__ticks --;
     4ae:	21 50       	subi	r18, 0x01	; 1
     4b0:	30 40       	sbci	r19, 0x00	; 0
		__ticks = 1;
	else if (__tmp > 65535)
	{
		//	__ticks = requested delay in 1/10 ms
		__ticks = (uint16_t) (__ms * 10.0);
		while(__ticks)
     4b2:	d1 f7       	brne	.-12     	; 0x4a8 <busy_wait+0xa>
		milliseconds-=16;
     4b4:	40 97       	sbiw	r24, 0x10	; 16


unsigned int toWait = 0;

void busy_wait(unsigned short milliseconds) {
	while (milliseconds > 16) {
     4b6:	81 31       	cpi	r24, 0x11	; 17
     4b8:	91 05       	cpc	r25, r1
     4ba:	a0 f7       	brcc	.-24     	; 0x4a4 <busy_wait+0x6>
		milliseconds-=16;
		_delay_ms(16);
	}
	if (milliseconds & 8)
     4bc:	83 ff       	sbrs	r24, 3
     4be:	04 c0       	rjmp	.+8      	; 0x4c8 <busy_wait+0x2a>
     4c0:	e0 e0       	ldi	r30, 0x00	; 0
     4c2:	fa ef       	ldi	r31, 0xFA	; 250
     4c4:	31 97       	sbiw	r30, 0x01	; 1
     4c6:	f1 f7       	brne	.-4      	; 0x4c4 <busy_wait+0x26>
		_delay_ms(8);
	if (milliseconds & 4)
     4c8:	82 ff       	sbrs	r24, 2
     4ca:	04 c0       	rjmp	.+8      	; 0x4d4 <busy_wait+0x36>
     4cc:	e0 e0       	ldi	r30, 0x00	; 0
     4ce:	fd e7       	ldi	r31, 0x7D	; 125
     4d0:	31 97       	sbiw	r30, 0x01	; 1
     4d2:	f1 f7       	brne	.-4      	; 0x4d0 <busy_wait+0x32>
		_delay_ms(4);
	if (milliseconds & 2)
     4d4:	81 ff       	sbrs	r24, 1
     4d6:	04 c0       	rjmp	.+8      	; 0x4e0 <busy_wait+0x42>
     4d8:	e0 e8       	ldi	r30, 0x80	; 128
     4da:	fe e3       	ldi	r31, 0x3E	; 62
     4dc:	31 97       	sbiw	r30, 0x01	; 1
     4de:	f1 f7       	brne	.-4      	; 0x4dc <busy_wait+0x3e>
		_delay_ms(2);
	if (milliseconds & 1)
     4e0:	80 ff       	sbrs	r24, 0
     4e2:	04 c0       	rjmp	.+8      	; 0x4ec <busy_wait+0x4e>
     4e4:	80 e4       	ldi	r24, 0x40	; 64
     4e6:	9f e1       	ldi	r25, 0x1F	; 31
     4e8:	01 97       	sbiw	r24, 0x01	; 1
     4ea:	f1 f7       	brne	.-4      	; 0x4e8 <busy_wait+0x4a>
     4ec:	08 95       	ret

000004ee <reverseByteOrder>:
	ptr2[3] = ptr1[0];
	return retval;
}
*/

void reverseByteOrder(void * p, unsigned char len) {
     4ee:	1f 93       	push	r17
     4f0:	cf 93       	push	r28
     4f2:	df 93       	push	r29
	unsigned char i;
	unsigned char * ptr = (unsigned char*)p;
     4f4:	ac 01       	movw	r20, r24
	unsigned char tmp;
	for (i=0;i<((len+1)/2);i++) {
     4f6:	70 e0       	ldi	r23, 0x00	; 0
     4f8:	6f 5f       	subi	r22, 0xFF	; 255
     4fa:	7f 4f       	sbci	r23, 0xFF	; 255
     4fc:	eb 01       	movw	r28, r22
     4fe:	d5 95       	asr	r29
     500:	c7 95       	ror	r28
     502:	61 50       	subi	r22, 0x01	; 1
     504:	70 40       	sbci	r23, 0x00	; 0
     506:	10 e0       	ldi	r17, 0x00	; 0
     508:	0e c0       	rjmp	.+28     	; 0x526 <reverseByteOrder+0x38>
		tmp = ptr[len - i - 1];
     50a:	fb 01       	movw	r30, r22
     50c:	e2 1b       	sub	r30, r18
     50e:	f3 0b       	sbc	r31, r19
     510:	31 97       	sbiw	r30, 0x01	; 1
     512:	e4 0f       	add	r30, r20
     514:	f5 1f       	adc	r31, r21
     516:	90 81       	ld	r25, Z
		ptr[len - i - 1] = ptr[i];
     518:	da 01       	movw	r26, r20
     51a:	a2 0f       	add	r26, r18
     51c:	b3 1f       	adc	r27, r19
     51e:	8c 91       	ld	r24, X
     520:	80 83       	st	Z, r24
		ptr[i] = tmp;
     522:	9c 93       	st	X, r25

void reverseByteOrder(void * p, unsigned char len) {
	unsigned char i;
	unsigned char * ptr = (unsigned char*)p;
	unsigned char tmp;
	for (i=0;i<((len+1)/2);i++) {
     524:	1f 5f       	subi	r17, 0xFF	; 255
     526:	21 2f       	mov	r18, r17
     528:	30 e0       	ldi	r19, 0x00	; 0
     52a:	2c 17       	cp	r18, r28
     52c:	3d 07       	cpc	r19, r29
     52e:	6c f3       	brlt	.-38     	; 0x50a <reverseByteOrder+0x1c>
		tmp = ptr[len - i - 1];
		ptr[len - i - 1] = ptr[i];
		ptr[i] = tmp;
	}
}
     530:	df 91       	pop	r29
     532:	cf 91       	pop	r28
     534:	1f 91       	pop	r17
     536:	08 95       	ret

00000538 <atoi_long>:

unsigned long int atoi_long(const unsigned char * p, unsigned char len) {
     538:	0f 93       	push	r16
     53a:	1f 93       	push	r17
     53c:	cf 93       	push	r28
     53e:	df 93       	push	r29
     540:	ec 01       	movw	r28, r24
     542:	16 2f       	mov	r17, r22
     544:	20 e0       	ldi	r18, 0x00	; 0
     546:	30 e0       	ldi	r19, 0x00	; 0
     548:	40 e0       	ldi	r20, 0x00	; 0
     54a:	50 e0       	ldi	r21, 0x00	; 0
     54c:	1c c0       	rjmp	.+56     	; 0x586 <atoi_long+0x4e>
	unsigned long int value = 0;
	while (len--) {
		if (*p >= '0' && *p <= '9') {
     54e:	08 81       	ld	r16, Y
     550:	11 50       	subi	r17, 0x01	; 1
     552:	80 2f       	mov	r24, r16
     554:	80 53       	subi	r24, 0x30	; 48
     556:	8a 30       	cpi	r24, 0x0A	; 10
     558:	c0 f4       	brcc	.+48     	; 0x58a <atoi_long+0x52>
			value *= 10;
     55a:	ca 01       	movw	r24, r20
     55c:	b9 01       	movw	r22, r18
     55e:	2a e0       	ldi	r18, 0x0A	; 10
     560:	30 e0       	ldi	r19, 0x00	; 0
     562:	40 e0       	ldi	r20, 0x00	; 0
     564:	50 e0       	ldi	r21, 0x00	; 0
     566:	0e 94 5e 28 	call	0x50bc	; 0x50bc <__mulsi3>
     56a:	9b 01       	movw	r18, r22
     56c:	ac 01       	movw	r20, r24
			value += ((*p++) - '0');
     56e:	80 2f       	mov	r24, r16
     570:	90 e0       	ldi	r25, 0x00	; 0
     572:	c0 97       	sbiw	r24, 0x30	; 48
     574:	aa 27       	eor	r26, r26
     576:	97 fd       	sbrc	r25, 7
     578:	a0 95       	com	r26
     57a:	ba 2f       	mov	r27, r26
     57c:	28 0f       	add	r18, r24
     57e:	39 1f       	adc	r19, r25
     580:	4a 1f       	adc	r20, r26
     582:	5b 1f       	adc	r21, r27
     584:	21 96       	adiw	r28, 0x01	; 1
	}
}

unsigned long int atoi_long(const unsigned char * p, unsigned char len) {
	unsigned long int value = 0;
	while (len--) {
     586:	11 23       	and	r17, r17
     588:	11 f7       	brne	.-60     	; 0x54e <atoi_long+0x16>
		} else {
			break;
		}
	}
	return value;
}
     58a:	b9 01       	movw	r22, r18
     58c:	ca 01       	movw	r24, r20
     58e:	df 91       	pop	r29
     590:	cf 91       	pop	r28
     592:	1f 91       	pop	r17
     594:	0f 91       	pop	r16
     596:	08 95       	ret

00000598 <do_wait>:
	toWait = howlong;
}

unsigned int do_wait() {
	unsigned char elapsed = 0;
	elapsed = (unsigned char)check_timers();
     598:	0e 94 f5 03 	call	0x7ea	; 0x7ea <check_timers>
	if (elapsed > toWait) {
     59c:	48 2f       	mov	r20, r24
     59e:	50 e0       	ldi	r21, 0x00	; 0
     5a0:	20 91 20 28 	lds	r18, 0x2820
     5a4:	30 91 21 28 	lds	r19, 0x2821
     5a8:	24 17       	cp	r18, r20
     5aa:	35 07       	cpc	r19, r21
     5ac:	28 f4       	brcc	.+10     	; 0x5b8 <do_wait+0x20>
		toWait = 0;
     5ae:	10 92 20 28 	sts	0x2820, r1
     5b2:	10 92 21 28 	sts	0x2821, r1
     5b6:	08 c0       	rjmp	.+16     	; 0x5c8 <do_wait+0x30>
	} else if (elapsed) {
     5b8:	88 23       	and	r24, r24
     5ba:	31 f0       	breq	.+12     	; 0x5c8 <do_wait+0x30>
		toWait-= elapsed;
     5bc:	24 1b       	sub	r18, r20
     5be:	35 0b       	sbc	r19, r21
     5c0:	20 93 20 28 	sts	0x2820, r18
     5c4:	30 93 21 28 	sts	0x2821, r19
	}
	return toWait;
}
     5c8:	80 91 20 28 	lds	r24, 0x2820
     5cc:	90 91 21 28 	lds	r25, 0x2821
     5d0:	08 95       	ret

000005d2 <start_wait>:
		if (milliseconds & 1)
			_delay_ms(1);
	}
}

void start_wait(unsigned int howlong) {
     5d2:	0f 93       	push	r16
     5d4:	1f 93       	push	r17
     5d6:	8c 01       	movw	r16, r24
	check_timers();
     5d8:	0e 94 f5 03 	call	0x7ea	; 0x7ea <check_timers>
	toWait = howlong;
     5dc:	00 93 20 28 	sts	0x2820, r16
     5e0:	10 93 21 28 	sts	0x2821, r17
}
     5e4:	1f 91       	pop	r17
     5e6:	0f 91       	pop	r16
     5e8:	08 95       	ret

000005ea <wait>:
		_delay_ms(2);
	if (milliseconds & 1)
		_delay_ms(1);
}

void wait(unsigned short milliseconds) {
     5ea:	cf 93       	push	r28
     5ec:	df 93       	push	r29
     5ee:	ec 01       	movw	r28, r24
	// Diese Funktion stellt sicher, das _delay_ms nur maximal 16ms warten muss (sonst läuft dort der Puffer über..)
	// [bei 7,3728MHz eigentlich 35ms aber wir wollen ja irgendwann auf 16MHz hoch mit dem Prozitakt]
	if (systimer_isTimerRunning()) {
     5f0:	0e 94 3f 03 	call	0x67e	; 0x67e <systimer_isTimerRunning>
     5f4:	88 23       	and	r24, r24
     5f6:	a1 f0       	breq	.+40     	; 0x620 <wait+0x36>
			_delay_ms(1);
	}
}

void start_wait(unsigned int howlong) {
	check_timers();
     5f8:	0e 94 f5 03 	call	0x7ea	; 0x7ea <check_timers>
	toWait = howlong;
     5fc:	c0 93 20 28 	sts	0x2820, r28
     600:	d0 93 21 28 	sts	0x2821, r29
void wait(unsigned short milliseconds) {
	// Diese Funktion stellt sicher, das _delay_ms nur maximal 16ms warten muss (sonst läuft dort der Puffer über..)
	// [bei 7,3728MHz eigentlich 35ms aber wir wollen ja irgendwann auf 16MHz hoch mit dem Prozitakt]
	if (systimer_isTimerRunning()) {
		start_wait(milliseconds);
		while (do_wait()) {
     604:	0e 94 cc 02 	call	0x598	; 0x598 <do_wait>
     608:	89 2b       	or	r24, r25
     60a:	e1 f7       	brne	.-8      	; 0x604 <wait+0x1a>
     60c:	26 c0       	rjmp	.+76     	; 0x65a <wait+0x70>
     60e:	80 ea       	ldi	r24, 0xA0	; 160
     610:	90 e0       	ldi	r25, 0x00	; 0
     612:	f9 01       	movw	r30, r18
     614:	31 97       	sbiw	r30, 0x01	; 1
     616:	f1 f7       	brne	.-4      	; 0x614 <wait+0x2a>
		{
			// wait 1/10 ms
			_delay_loop_2(((F_CPU) / 4e3) / 10);
			__ticks --;
     618:	01 97       	sbiw	r24, 0x01	; 1
		__ticks = 1;
	else if (__tmp > 65535)
	{
		//	__ticks = requested delay in 1/10 ms
		__ticks = (uint16_t) (__ms * 10.0);
		while(__ticks)
     61a:	d9 f7       	brne	.-10     	; 0x612 <wait+0x28>
			
		}
	} else {
		while (milliseconds > 16) {
			milliseconds-=16;
     61c:	60 97       	sbiw	r28, 0x10	; 16
     61e:	02 c0       	rjmp	.+4      	; 0x624 <wait+0x3a>
     620:	20 e2       	ldi	r18, 0x20	; 32
     622:	33 e0       	ldi	r19, 0x03	; 3
		start_wait(milliseconds);
		while (do_wait()) {
			
		}
	} else {
		while (milliseconds > 16) {
     624:	c1 31       	cpi	r28, 0x11	; 17
     626:	d1 05       	cpc	r29, r1
     628:	90 f7       	brcc	.-28     	; 0x60e <wait+0x24>
			milliseconds-=16;
			_delay_ms(16);
		}
		if (milliseconds & 8)
     62a:	c3 ff       	sbrs	r28, 3
     62c:	04 c0       	rjmp	.+8      	; 0x636 <wait+0x4c>
     62e:	80 e0       	ldi	r24, 0x00	; 0
     630:	9a ef       	ldi	r25, 0xFA	; 250
     632:	01 97       	sbiw	r24, 0x01	; 1
     634:	f1 f7       	brne	.-4      	; 0x632 <wait+0x48>
			_delay_ms(8);
		if (milliseconds & 4)
     636:	c2 ff       	sbrs	r28, 2
     638:	04 c0       	rjmp	.+8      	; 0x642 <wait+0x58>
     63a:	80 e0       	ldi	r24, 0x00	; 0
     63c:	9d e7       	ldi	r25, 0x7D	; 125
     63e:	01 97       	sbiw	r24, 0x01	; 1
     640:	f1 f7       	brne	.-4      	; 0x63e <wait+0x54>
			_delay_ms(4);
		if (milliseconds & 2)
     642:	c1 ff       	sbrs	r28, 1
     644:	04 c0       	rjmp	.+8      	; 0x64e <wait+0x64>
     646:	80 e8       	ldi	r24, 0x80	; 128
     648:	9e e3       	ldi	r25, 0x3E	; 62
     64a:	01 97       	sbiw	r24, 0x01	; 1
     64c:	f1 f7       	brne	.-4      	; 0x64a <wait+0x60>
			_delay_ms(2);
		if (milliseconds & 1)
     64e:	c0 ff       	sbrs	r28, 0
     650:	04 c0       	rjmp	.+8      	; 0x65a <wait+0x70>
     652:	80 e4       	ldi	r24, 0x40	; 64
     654:	9f e1       	ldi	r25, 0x1F	; 31
     656:	01 97       	sbiw	r24, 0x01	; 1
     658:	f1 f7       	brne	.-4      	; 0x656 <wait+0x6c>
			_delay_ms(1);
	}
}
     65a:	df 91       	pop	r29
     65c:	cf 91       	pop	r28
     65e:	08 95       	ret

00000660 <systimer_init>:

#define TIMER				TCD0
#define TIMER_vect			TCD0_OVF_vect

void systimer_init() {
	TIMER.CTRLB = TC_WGMODE_NORMAL_gc;
     660:	e0 e0       	ldi	r30, 0x00	; 0
     662:	f9 e0       	ldi	r31, 0x09	; 9
     664:	11 82       	std	Z+1, r1	; 0x01
	TIMER.INTCTRLA |= TC_OVFINTLVL_HI_gc;
     666:	86 81       	ldd	r24, Z+6	; 0x06
     668:	83 60       	ori	r24, 0x03	; 3
     66a:	86 83       	std	Z+6, r24	; 0x06
	TIMER.PERL = SYSTIMERVAL0(1) & 0xff;
     66c:	8c e7       	ldi	r24, 0x7C	; 124
     66e:	86 a3       	std	Z+38, r24	; 0x26
	TIMER.PERH = SYSTIMERVAL0(1) >> 8;
     670:	17 a2       	std	Z+39, r1	; 0x27
	TIMER.CTRLA = TC_CLKSEL_DIV256_gc;
     672:	86 e0       	ldi	r24, 0x06	; 6
     674:	80 83       	st	Z, r24
	systimer_running = 1;
     676:	81 e0       	ldi	r24, 0x01	; 1
     678:	80 93 32 28 	sts	0x2832, r24
}
     67c:	08 95       	ret

0000067e <systimer_isTimerRunning>:

unsigned char systimer_isTimerRunning() {
	return systimer_running;
}
     67e:	80 91 32 28 	lds	r24, 0x2832
     682:	08 95       	ret

00000684 <getRetAddr>:
	//stack++;
	//retAddr <<= 8;
	//retAddr |= *stack;
	*/
	//return (*retAddr);
}
     684:	bc 01       	movw	r22, r24
     686:	80 e0       	ldi	r24, 0x00	; 0
     688:	90 e0       	ldi	r25, 0x00	; 0
     68a:	08 95       	ret

0000068c <__vector_77>:

ISR(TIMER_vect) {
     68c:	1f 92       	push	r1
     68e:	0f 92       	push	r0
     690:	0f b6       	in	r0, 0x3f	; 63
     692:	0f 92       	push	r0
     694:	08 b6       	in	r0, 0x38	; 56
     696:	0f 92       	push	r0
     698:	09 b6       	in	r0, 0x39	; 57
     69a:	0f 92       	push	r0
     69c:	0b b6       	in	r0, 0x3b	; 59
     69e:	0f 92       	push	r0
     6a0:	11 24       	eor	r1, r1
     6a2:	18 be       	out	0x38, r1	; 56
     6a4:	19 be       	out	0x39, r1	; 57
     6a6:	1b be       	out	0x3b, r1	; 59
     6a8:	2f 93       	push	r18
     6aa:	3f 93       	push	r19
     6ac:	8f 93       	push	r24
     6ae:	9f 93       	push	r25
     6b0:	af 93       	push	r26
     6b2:	bf 93       	push	r27
     6b4:	ef 93       	push	r30
     6b6:	ff 93       	push	r31
	//unsigned int sPointer = (unsigned int)(SPH << 8) | (SPL);
	{
		//unsigned long int position = 0xffffffff;
		unsigned char i = 0;
		
		switch (systimer_round++) {
     6b8:	80 91 31 28 	lds	r24, 0x2831
     6bc:	8f 5f       	subi	r24, 0xFF	; 255
     6be:	80 93 31 28 	sts	0x2831, r24
     6c2:	81 50       	subi	r24, 0x01	; 1
     6c4:	82 30       	cpi	r24, 0x02	; 2
     6c6:	61 f0       	breq	.+24     	; 0x6e0 <__vector_77+0x54>
     6c8:	83 30       	cpi	r24, 0x03	; 3
     6ca:	28 f4       	brcc	.+10     	; 0x6d6 <__vector_77+0x4a>
     6cc:	88 23       	and	r24, r24
     6ce:	41 f0       	breq	.+16     	; 0x6e0 <__vector_77+0x54>
     6d0:	81 30       	cpi	r24, 0x01	; 1
     6d2:	d9 f5       	brne	.+118    	; 0x74a <__vector_77+0xbe>
     6d4:	05 c0       	rjmp	.+10     	; 0x6e0 <__vector_77+0x54>
     6d6:	83 30       	cpi	r24, 0x03	; 3
     6d8:	19 f0       	breq	.+6      	; 0x6e0 <__vector_77+0x54>
     6da:	84 30       	cpi	r24, 0x04	; 4
     6dc:	b1 f5       	brne	.+108    	; 0x74a <__vector_77+0xbe>
     6de:	1a c0       	rjmp	.+52     	; 0x714 <__vector_77+0x88>
				TIMER.PERBUFH = SYSTIMERVAL0(3) >> 8;
				// Vorherige Runde war 2
				preciseTime += SYSTIMERVAL0(2);
				break;
			case 3:
				TIMER.PERBUFL = SYSTIMERVAL0(4) & 0xff;
     6e0:	e0 e0       	ldi	r30, 0x00	; 0
     6e2:	f9 e0       	ldi	r31, 0x09	; 9
     6e4:	8c e7       	ldi	r24, 0x7C	; 124
     6e6:	86 ab       	std	Z+54, r24	; 0x36
				TIMER.PERBUFH = SYSTIMERVAL0(4) >> 8;
     6e8:	17 aa       	std	Z+55, r1	; 0x37
				// Vorherige Runde war 3
				preciseTime += SYSTIMERVAL0(3);
     6ea:	80 91 33 28 	lds	r24, 0x2833
     6ee:	90 91 34 28 	lds	r25, 0x2834
     6f2:	a0 91 35 28 	lds	r26, 0x2835
     6f6:	b0 91 36 28 	lds	r27, 0x2836
     6fa:	84 58       	subi	r24, 0x84	; 132
     6fc:	9f 4f       	sbci	r25, 0xFF	; 255
     6fe:	af 4f       	sbci	r26, 0xFF	; 255
     700:	bf 4f       	sbci	r27, 0xFF	; 255
     702:	80 93 33 28 	sts	0x2833, r24
     706:	90 93 34 28 	sts	0x2834, r25
     70a:	a0 93 35 28 	sts	0x2835, r26
     70e:	b0 93 36 28 	sts	0x2836, r27
     712:	1b c0       	rjmp	.+54     	; 0x74a <__vector_77+0xbe>
				break;
			case 4:
				TIMER.PERBUFL = SYSTIMERVAL0(5) & 0xff;
     714:	e0 e0       	ldi	r30, 0x00	; 0
     716:	f9 e0       	ldi	r31, 0x09	; 9
     718:	8c e7       	ldi	r24, 0x7C	; 124
     71a:	86 ab       	std	Z+54, r24	; 0x36
				TIMER.PERBUFH = SYSTIMERVAL0(5) >> 8;
     71c:	17 aa       	std	Z+55, r1	; 0x37
				// Vorherige Runde war 4
				preciseTime += SYSTIMERVAL0(4);
     71e:	80 91 33 28 	lds	r24, 0x2833
     722:	90 91 34 28 	lds	r25, 0x2834
     726:	a0 91 35 28 	lds	r26, 0x2835
     72a:	b0 91 36 28 	lds	r27, 0x2836
     72e:	84 58       	subi	r24, 0x84	; 132
     730:	9f 4f       	sbci	r25, 0xFF	; 255
     732:	af 4f       	sbci	r26, 0xFF	; 255
     734:	bf 4f       	sbci	r27, 0xFF	; 255
     736:	80 93 33 28 	sts	0x2833, r24
     73a:	90 93 34 28 	sts	0x2834, r25
     73e:	a0 93 35 28 	sts	0x2835, r26
     742:	b0 93 36 28 	sts	0x2836, r27
				systimer_round = 0;
     746:	10 92 31 28 	sts	0x2831, r1
				break;
		}
		
		systimer_toAdd++;
     74a:	80 91 26 28 	lds	r24, 0x2826
     74e:	8f 5f       	subi	r24, 0xFF	; 255
     750:	80 93 26 28 	sts	0x2826, r24
		if (!systimer_toAdd) {
     754:	80 91 26 28 	lds	r24, 0x2826
     758:	88 23       	and	r24, r24
     75a:	59 f0       	breq	.+22     	; 0x772 <__vector_77+0xe6>
			}
		} else {
			emergencyTimer = EMERGENCY_TIMER_TICKS;
		}
		*/
		for (i=0;i<callback_count;i++) {
     75c:	90 91 2b 28 	lds	r25, 0x282B
     760:	e7 e3       	ldi	r30, 0x37	; 55
     762:	f8 e2       	ldi	r31, 0x28	; 40
     764:	89 e0       	ldi	r24, 0x09	; 9
     766:	98 9f       	mul	r25, r24
     768:	90 01       	movw	r18, r0
     76a:	11 24       	eor	r1, r1
     76c:	2e 0f       	add	r18, r30
     76e:	3f 1f       	adc	r19, r31
     770:	1d c0       	rjmp	.+58     	; 0x7ac <__vector_77+0x120>
		}
		
		systimer_toAdd++;
		if (!systimer_toAdd) {
			// Overflow des Systimers. Hier MÜSSEN wir die systimer_time erhöhen, sonst vergessen wir 256ms!
			systimer_time+=0x100;
     772:	80 91 22 28 	lds	r24, 0x2822
     776:	90 91 23 28 	lds	r25, 0x2823
     77a:	a0 91 24 28 	lds	r26, 0x2824
     77e:	b0 91 25 28 	lds	r27, 0x2825
     782:	80 50       	subi	r24, 0x00	; 0
     784:	9f 4f       	sbci	r25, 0xFF	; 255
     786:	af 4f       	sbci	r26, 0xFF	; 255
     788:	bf 4f       	sbci	r27, 0xFF	; 255
     78a:	80 93 22 28 	sts	0x2822, r24
     78e:	90 93 23 28 	sts	0x2823, r25
     792:	a0 93 24 28 	sts	0x2824, r26
     796:	b0 93 25 28 	sts	0x2825, r27
     79a:	e0 cf       	rjmp	.-64     	; 0x75c <__vector_77+0xd0>
		} else {
			emergencyTimer = EMERGENCY_TIMER_TICKS;
		}
		*/
		for (i=0;i<callback_count;i++) {
			if (callbacks[i].waitTime)
     79c:	80 81       	ld	r24, Z
     79e:	91 81       	ldd	r25, Z+1	; 0x01
     7a0:	00 97       	sbiw	r24, 0x00	; 0
     7a2:	19 f0       	breq	.+6      	; 0x7aa <__vector_77+0x11e>
				callbacks[i].waitTime--;
     7a4:	01 97       	sbiw	r24, 0x01	; 1
     7a6:	80 83       	st	Z, r24
     7a8:	91 83       	std	Z+1, r25	; 0x01
     7aa:	39 96       	adiw	r30, 0x09	; 9
			}
		} else {
			emergencyTimer = EMERGENCY_TIMER_TICKS;
		}
		*/
		for (i=0;i<callback_count;i++) {
     7ac:	e2 17       	cp	r30, r18
     7ae:	f3 07       	cpc	r31, r19
     7b0:	a9 f7       	brne	.-22     	; 0x79c <__vector_77+0x110>
			if (callbacks[i].waitTime)
				callbacks[i].waitTime--;
		}
	}
}
     7b2:	ff 91       	pop	r31
     7b4:	ef 91       	pop	r30
     7b6:	bf 91       	pop	r27
     7b8:	af 91       	pop	r26
     7ba:	9f 91       	pop	r25
     7bc:	8f 91       	pop	r24
     7be:	3f 91       	pop	r19
     7c0:	2f 91       	pop	r18
     7c2:	0f 90       	pop	r0
     7c4:	0b be       	out	0x3b, r0	; 59
     7c6:	0f 90       	pop	r0
     7c8:	09 be       	out	0x39, r0	; 57
     7ca:	0f 90       	pop	r0
     7cc:	08 be       	out	0x38, r0	; 56
     7ce:	0f 90       	pop	r0
     7d0:	0f be       	out	0x3f, r0	; 63
     7d2:	0f 90       	pop	r0
     7d4:	1f 90       	pop	r1
     7d6:	18 95       	reti

000007d8 <systimer_getUptime>:

unsigned long systimer_getUptime() {
     7d8:	60 91 2c 28 	lds	r22, 0x282C
     7dc:	70 91 2d 28 	lds	r23, 0x282D
	return uptime;
}
     7e0:	80 91 2e 28 	lds	r24, 0x282E
     7e4:	90 91 2f 28 	lds	r25, 0x282F
     7e8:	08 95       	ret

000007ea <check_timers>:

unsigned int check_timers() {
     7ea:	af 92       	push	r10
     7ec:	bf 92       	push	r11
     7ee:	cf 92       	push	r12
     7f0:	df 92       	push	r13
     7f2:	ef 92       	push	r14
     7f4:	ff 92       	push	r15
     7f6:	0f 93       	push	r16
     7f8:	1f 93       	push	r17
     7fa:	cf 93       	push	r28
     7fc:	df 93       	push	r29
	unsigned char stmp;
	void * ptr;
	static unsigned char callRound = 0;
	Void_Function_VoidP thisCallback;
	
	if (callRound > 10)
     7fe:	90 91 30 28 	lds	r25, 0x2830
     802:	9b 30       	cpi	r25, 0x0B	; 11
     804:	08 f0       	brcs	.+2      	; 0x808 <check_timers+0x1e>
     806:	40 c0       	rjmp	.+128    	; 0x888 <check_timers+0x9e>
		return 0;
	
	callRound++;
     808:	9f 5f       	subi	r25, 0xFF	; 255
     80a:	90 93 30 28 	sts	0x2830, r25
     80e:	91 50       	subi	r25, 0x01	; 1
	
	if (systimer_toAdd) {
     810:	80 91 26 28 	lds	r24, 0x2826
     814:	88 23       	and	r24, r24
     816:	b1 f1       	breq	.+108    	; 0x884 <check_timers+0x9a>
		stmp = SREG;
     818:	6f b7       	in	r22, 0x3f	; 63
		cli();
     81a:	f8 94       	cli
		toAdd = systimer_toAdd;
     81c:	c0 90 26 28 	lds	r12, 0x2826
		systimer_toAdd = 0;
     820:	10 92 26 28 	sts	0x2826, r1
		systimer_time+=toAdd;
     824:	2c 2d       	mov	r18, r12
     826:	30 e0       	ldi	r19, 0x00	; 0
     828:	40 e0       	ldi	r20, 0x00	; 0
     82a:	50 e0       	ldi	r21, 0x00	; 0
     82c:	80 91 22 28 	lds	r24, 0x2822
     830:	90 91 23 28 	lds	r25, 0x2823
     834:	a0 91 24 28 	lds	r26, 0x2824
     838:	b0 91 25 28 	lds	r27, 0x2825
     83c:	82 0f       	add	r24, r18
     83e:	93 1f       	adc	r25, r19
     840:	a4 1f       	adc	r26, r20
     842:	b5 1f       	adc	r27, r21
     844:	80 93 22 28 	sts	0x2822, r24
     848:	90 93 23 28 	sts	0x2823, r25
     84c:	a0 93 24 28 	sts	0x2824, r26
     850:	b0 93 25 28 	sts	0x2825, r27
		SREG = stmp;
     854:	6f bf       	out	0x3f, r22	; 63
	} else {
		callRound--;
		return 0;
	}
	
	uptime += toAdd;
     856:	80 91 2c 28 	lds	r24, 0x282C
     85a:	90 91 2d 28 	lds	r25, 0x282D
     85e:	a0 91 2e 28 	lds	r26, 0x282E
     862:	b0 91 2f 28 	lds	r27, 0x282F
     866:	82 0f       	add	r24, r18
     868:	93 1f       	adc	r25, r19
     86a:	a4 1f       	adc	r26, r20
     86c:	b5 1f       	adc	r27, r21
     86e:	80 93 2c 28 	sts	0x282C, r24
     872:	90 93 2d 28 	sts	0x282D, r25
     876:	a0 93 2e 28 	sts	0x282E, r26
     87a:	b0 93 2f 28 	sts	0x282F, r27
	
	
	// We only have to check this if a 1ms tick has happened.
	//timer_msExpired(toAdd);
	
	i = callback_count;
     87e:	d0 90 2b 28 	lds	r13, 0x282B
     882:	8e c0       	rjmp	.+284    	; 0x9a0 <check_timers+0x1b6>
		toAdd = systimer_toAdd;
		systimer_toAdd = 0;
		systimer_time+=toAdd;
		SREG = stmp;
	} else {
		callRound--;
     884:	90 93 30 28 	sts	0x2830, r25
     888:	20 e0       	ldi	r18, 0x00	; 0
     88a:	30 e0       	ldi	r19, 0x00	; 0
     88c:	93 c0       	rjmp	.+294    	; 0x9b4 <check_timers+0x1ca>
	
	// We only have to check this if a 1ms tick has happened.
	//timer_msExpired(toAdd);
	
	i = callback_count;
	while (i--) {
     88e:	da 94       	dec	r13
		if (!callbacks[i].waitTime && !callbacks[i].isActive) {
     890:	4d 2d       	mov	r20, r13
     892:	50 e0       	ldi	r21, 0x00	; 0
     894:	fa 01       	movw	r30, r20
     896:	a3 e0       	ldi	r26, 0x03	; 3
     898:	ee 0f       	add	r30, r30
     89a:	ff 1f       	adc	r31, r31
     89c:	aa 95       	dec	r26
     89e:	e1 f7       	brne	.-8      	; 0x898 <check_timers+0xae>
     8a0:	e4 0f       	add	r30, r20
     8a2:	f5 1f       	adc	r31, r21
     8a4:	df 01       	movw	r26, r30
     8a6:	a9 5c       	subi	r26, 0xC9	; 201
     8a8:	b7 4d       	sbci	r27, 0xD7	; 215
     8aa:	8d 91       	ld	r24, X+
     8ac:	9c 91       	ld	r25, X
     8ae:	11 97       	sbiw	r26, 0x01	; 1
     8b0:	89 2b       	or	r24, r25
     8b2:	09 f0       	breq	.+2      	; 0x8b6 <check_timers+0xcc>
     8b4:	75 c0       	rjmp	.+234    	; 0x9a0 <check_timers+0x1b6>
     8b6:	e1 5c       	subi	r30, 0xC1	; 193
     8b8:	f7 4d       	sbci	r31, 0xD7	; 215
     8ba:	80 81       	ld	r24, Z
     8bc:	80 fd       	sbrc	r24, 0
     8be:	70 c0       	rjmp	.+224    	; 0x9a0 <check_timers+0x1b6>
			thisCallback = callbacks[i].callback;
     8c0:	14 96       	adiw	r26, 0x04	; 4
     8c2:	ed 90       	ld	r14, X+
     8c4:	fc 90       	ld	r15, X
     8c6:	15 97       	sbiw	r26, 0x05	; 5
			ptr = callbacks[i].callback_ptr;
     8c8:	16 96       	adiw	r26, 0x06	; 6
     8ca:	ad 90       	ld	r10, X+
     8cc:	bc 90       	ld	r11, X
     8ce:	17 97       	sbiw	r26, 0x07	; 7
		
			if (callbacks[i].restartWith) {
     8d0:	12 96       	adiw	r26, 0x02	; 2
     8d2:	8d 91       	ld	r24, X+
     8d4:	9c 91       	ld	r25, X
     8d6:	13 97       	sbiw	r26, 0x03	; 3
     8d8:	00 97       	sbiw	r24, 0x00	; 0
     8da:	19 f0       	breq	.+6      	; 0x8e2 <check_timers+0xf8>
				callbacks[i].waitTime = callbacks[i].restartWith;
     8dc:	8d 93       	st	X+, r24
     8de:	9c 93       	st	X, r25
     8e0:	16 c0       	rjmp	.+44     	; 0x90e <check_timers+0x124>
			} else {
				callbacks[i] = callbacks[callback_count--];
     8e2:	20 91 2b 28 	lds	r18, 0x282B
     8e6:	82 2f       	mov	r24, r18
     8e8:	90 e0       	ldi	r25, 0x00	; 0
     8ea:	fc 01       	movw	r30, r24
     8ec:	73 e0       	ldi	r23, 0x03	; 3
     8ee:	ee 0f       	add	r30, r30
     8f0:	ff 1f       	adc	r31, r31
     8f2:	7a 95       	dec	r23
     8f4:	e1 f7       	brne	.-8      	; 0x8ee <check_timers+0x104>
     8f6:	e8 0f       	add	r30, r24
     8f8:	f9 1f       	adc	r31, r25
     8fa:	e9 5c       	subi	r30, 0xC9	; 201
     8fc:	f7 4d       	sbci	r31, 0xD7	; 215
     8fe:	89 e0       	ldi	r24, 0x09	; 9
     900:	01 90       	ld	r0, Z+
     902:	0d 92       	st	X+, r0
     904:	81 50       	subi	r24, 0x01	; 1
     906:	e1 f7       	brne	.-8      	; 0x900 <check_timers+0x116>
     908:	21 50       	subi	r18, 0x01	; 1
     90a:	20 93 2b 28 	sts	0x282B, r18
			}
		
			// Dieser Callback ist gerade aktiv:
			callbacks[i].isActive = 1;
     90e:	ca 01       	movw	r24, r20
     910:	63 e0       	ldi	r22, 0x03	; 3
     912:	88 0f       	add	r24, r24
     914:	99 1f       	adc	r25, r25
     916:	6a 95       	dec	r22
     918:	e1 f7       	brne	.-8      	; 0x912 <check_timers+0x128>
     91a:	84 0f       	add	r24, r20
     91c:	95 1f       	adc	r25, r21
     91e:	8c 01       	movw	r16, r24
     920:	01 5c       	subi	r16, 0xC1	; 193
     922:	17 4d       	sbci	r17, 0xD7	; 215
     924:	f8 01       	movw	r30, r16
     926:	20 81       	ld	r18, Z
     928:	21 60       	ori	r18, 0x01	; 1
     92a:	20 83       	st	Z, r18
			// Callback aufrufen:
			thisCallback(callbacks[i].callback_ptr);
     92c:	ec 01       	movw	r28, r24
     92e:	c9 5c       	subi	r28, 0xC9	; 201
     930:	d7 4d       	sbci	r29, 0xD7	; 215
     932:	8e 81       	ldd	r24, Y+6	; 0x06
     934:	9f 81       	ldd	r25, Y+7	; 0x07
     936:	f7 01       	movw	r30, r14
     938:	19 95       	eicall
			// Wenn dieser Callback gerade evtl gelöscht wurde, dürfen wir isActive nicht löschen:
			if ((callbacks[i].callback == thisCallback) && (callbacks[i].callback_ptr == ptr)) {
     93a:	8c 81       	ldd	r24, Y+4	; 0x04
     93c:	9d 81       	ldd	r25, Y+5	; 0x05
     93e:	8e 15       	cp	r24, r14
     940:	9f 05       	cpc	r25, r15
     942:	41 f4       	brne	.+16     	; 0x954 <check_timers+0x16a>
     944:	8e 81       	ldd	r24, Y+6	; 0x06
     946:	9f 81       	ldd	r25, Y+7	; 0x07
     948:	8a 15       	cp	r24, r10
     94a:	9b 05       	cpc	r25, r11
     94c:	19 f4       	brne	.+6      	; 0x954 <check_timers+0x16a>
				callbacks[i].isActive = 0;
     94e:	f8 01       	movw	r30, r16
     950:	80 81       	ld	r24, Z
     952:	21 c0       	rjmp	.+66     	; 0x996 <check_timers+0x1ac>
			} else {
				// Irgendwo ist jetzt ein isActive-Bit gesetzt wo es das nicht sein sollte. Das müssen wir überprüfen.
				unsigned char n = callback_count;
     954:	40 91 2b 28 	lds	r20, 0x282B
     958:	21 c0       	rjmp	.+66     	; 0x99c <check_timers+0x1b2>
				while (n--) {
     95a:	41 50       	subi	r20, 0x01	; 1
					if ((callbacks[n].callback == thisCallback) && (callbacks[n].callback_ptr == ptr) && callbacks[n].isActive) {
     95c:	84 2f       	mov	r24, r20
     95e:	90 e0       	ldi	r25, 0x00	; 0
     960:	9c 01       	movw	r18, r24
     962:	53 e0       	ldi	r21, 0x03	; 3
     964:	22 0f       	add	r18, r18
     966:	33 1f       	adc	r19, r19
     968:	5a 95       	dec	r21
     96a:	e1 f7       	brne	.-8      	; 0x964 <check_timers+0x17a>
     96c:	28 0f       	add	r18, r24
     96e:	39 1f       	adc	r19, r25
     970:	f9 01       	movw	r30, r18
     972:	e9 5c       	subi	r30, 0xC9	; 201
     974:	f7 4d       	sbci	r31, 0xD7	; 215
     976:	84 81       	ldd	r24, Z+4	; 0x04
     978:	95 81       	ldd	r25, Z+5	; 0x05
     97a:	8e 15       	cp	r24, r14
     97c:	9f 05       	cpc	r25, r15
     97e:	71 f4       	brne	.+28     	; 0x99c <check_timers+0x1b2>
     980:	86 81       	ldd	r24, Z+6	; 0x06
     982:	97 81       	ldd	r25, Z+7	; 0x07
     984:	8a 15       	cp	r24, r10
     986:	9b 05       	cpc	r25, r11
     988:	49 f4       	brne	.+18     	; 0x99c <check_timers+0x1b2>
     98a:	f9 01       	movw	r30, r18
     98c:	e1 5c       	subi	r30, 0xC1	; 193
     98e:	f7 4d       	sbci	r31, 0xD7	; 215
     990:	80 81       	ld	r24, Z
     992:	80 ff       	sbrs	r24, 0
     994:	03 c0       	rjmp	.+6      	; 0x99c <check_timers+0x1b2>
						callbacks[n].isActive = 0;
     996:	8e 7f       	andi	r24, 0xFE	; 254
     998:	80 83       	st	Z, r24
     99a:	02 c0       	rjmp	.+4      	; 0x9a0 <check_timers+0x1b6>
			if ((callbacks[i].callback == thisCallback) && (callbacks[i].callback_ptr == ptr)) {
				callbacks[i].isActive = 0;
			} else {
				// Irgendwo ist jetzt ein isActive-Bit gesetzt wo es das nicht sein sollte. Das müssen wir überprüfen.
				unsigned char n = callback_count;
				while (n--) {
     99c:	44 23       	and	r20, r20
     99e:	e9 f6       	brne	.-70     	; 0x95a <check_timers+0x170>
	
	// We only have to check this if a 1ms tick has happened.
	//timer_msExpired(toAdd);
	
	i = callback_count;
	while (i--) {
     9a0:	dd 20       	and	r13, r13
     9a2:	09 f0       	breq	.+2      	; 0x9a6 <check_timers+0x1bc>
     9a4:	74 cf       	rjmp	.-280    	; 0x88e <check_timers+0xa4>
				}
			}
		}
	}
	
	callRound--;
     9a6:	80 91 30 28 	lds	r24, 0x2830
     9aa:	81 50       	subi	r24, 0x01	; 1
     9ac:	80 93 30 28 	sts	0x2830, r24
	
	return toAdd;
     9b0:	2c 2d       	mov	r18, r12
     9b2:	30 e0       	ldi	r19, 0x00	; 0
}
     9b4:	c9 01       	movw	r24, r18
     9b6:	df 91       	pop	r29
     9b8:	cf 91       	pop	r28
     9ba:	1f 91       	pop	r17
     9bc:	0f 91       	pop	r16
     9be:	ff 90       	pop	r15
     9c0:	ef 90       	pop	r14
     9c2:	df 90       	pop	r13
     9c4:	cf 90       	pop	r12
     9c6:	bf 90       	pop	r11
     9c8:	af 90       	pop	r10
     9ca:	08 95       	ret

000009cc <timer_getCallbackCount>:

unsigned char timer_getCallbackCount() {
	return callback_count;
}
     9cc:	80 91 2b 28 	lds	r24, 0x282B
     9d0:	08 95       	ret

000009d2 <timer_addCallback>:

void timer_addCallback(unsigned int waitTime, unsigned char repeat, Void_Function_VoidP fnct, void * ptr) {
     9d2:	0f 93       	push	r16
     9d4:	1f 93       	push	r17
     9d6:	cf 93       	push	r28
     9d8:	df 93       	push	r29
     9da:	ec 01       	movw	r28, r24
     9dc:	89 01       	movw	r16, r18
	unsigned char i = 0;
	while (i < callback_count) {
     9de:	20 91 2b 28 	lds	r18, 0x282B
     9e2:	eb e3       	ldi	r30, 0x3B	; 59
     9e4:	f8 e2       	ldi	r31, 0x28	; 40
     9e6:	70 e0       	ldi	r23, 0x00	; 0
     9e8:	0c c0       	rjmp	.+24     	; 0xa02 <timer_addCallback+0x30>
		if ((callbacks[i].callback == fnct) && (callbacks[i].callback_ptr == ptr)) {
     9ea:	80 81       	ld	r24, Z
     9ec:	91 81       	ldd	r25, Z+1	; 0x01
     9ee:	84 17       	cp	r24, r20
     9f0:	95 07       	cpc	r25, r21
     9f2:	29 f4       	brne	.+10     	; 0x9fe <timer_addCallback+0x2c>
     9f4:	82 81       	ldd	r24, Z+2	; 0x02
     9f6:	93 81       	ldd	r25, Z+3	; 0x03
     9f8:	80 17       	cp	r24, r16
     9fa:	91 07       	cpc	r25, r17
     9fc:	21 f0       	breq	.+8      	; 0xa06 <timer_addCallback+0x34>
			break;
		}
		i++;
     9fe:	7f 5f       	subi	r23, 0xFF	; 255
     a00:	39 96       	adiw	r30, 0x09	; 9
	return callback_count;
}

void timer_addCallback(unsigned int waitTime, unsigned char repeat, Void_Function_VoidP fnct, void * ptr) {
	unsigned char i = 0;
	while (i < callback_count) {
     a02:	72 17       	cp	r23, r18
     a04:	90 f3       	brcs	.-28     	; 0x9ea <timer_addCallback+0x18>
		if ((callbacks[i].callback == fnct) && (callbacks[i].callback_ptr == ptr)) {
			break;
		}
		i++;
	}
	if (i < TIMER_NR_OF_CALLBACKS) {
     a06:	79 31       	cpi	r23, 0x19	; 25
     a08:	98 f5       	brcc	.+102    	; 0xa70 <timer_addCallback+0x9e>
		callbacks[i].waitTime = waitTime;
     a0a:	87 2f       	mov	r24, r23
     a0c:	90 e0       	ldi	r25, 0x00	; 0
     a0e:	fc 01       	movw	r30, r24
     a10:	33 e0       	ldi	r19, 0x03	; 3
     a12:	ee 0f       	add	r30, r30
     a14:	ff 1f       	adc	r31, r31
     a16:	3a 95       	dec	r19
     a18:	e1 f7       	brne	.-8      	; 0xa12 <timer_addCallback+0x40>
     a1a:	e8 0f       	add	r30, r24
     a1c:	f9 1f       	adc	r31, r25
     a1e:	e9 5c       	subi	r30, 0xC9	; 201
     a20:	f7 4d       	sbci	r31, 0xD7	; 215
     a22:	c0 83       	st	Z, r28
     a24:	d1 83       	std	Z+1, r29	; 0x01
		callbacks[i].restartWith = (repeat ? waitTime : 0);
     a26:	66 23       	and	r22, r22
     a28:	11 f4       	brne	.+4      	; 0xa2e <timer_addCallback+0x5c>
     a2a:	c0 e0       	ldi	r28, 0x00	; 0
     a2c:	d0 e0       	ldi	r29, 0x00	; 0
     a2e:	fc 01       	movw	r30, r24
     a30:	b3 e0       	ldi	r27, 0x03	; 3
     a32:	ee 0f       	add	r30, r30
     a34:	ff 1f       	adc	r31, r31
     a36:	ba 95       	dec	r27
     a38:	e1 f7       	brne	.-8      	; 0xa32 <timer_addCallback+0x60>
     a3a:	e8 0f       	add	r30, r24
     a3c:	f9 1f       	adc	r31, r25
     a3e:	df 01       	movw	r26, r30
     a40:	a9 5c       	subi	r26, 0xC9	; 201
     a42:	b7 4d       	sbci	r27, 0xD7	; 215
     a44:	12 96       	adiw	r26, 0x02	; 2
     a46:	cd 93       	st	X+, r28
     a48:	dc 93       	st	X, r29
     a4a:	13 97       	sbiw	r26, 0x03	; 3
		callbacks[i].callback = fnct;
     a4c:	14 96       	adiw	r26, 0x04	; 4
     a4e:	4d 93       	st	X+, r20
     a50:	5c 93       	st	X, r21
     a52:	15 97       	sbiw	r26, 0x05	; 5
		callbacks[i].isActive = 0;
     a54:	e1 5c       	subi	r30, 0xC1	; 193
     a56:	f7 4d       	sbci	r31, 0xD7	; 215
     a58:	80 81       	ld	r24, Z
     a5a:	8e 7f       	andi	r24, 0xFE	; 254
     a5c:	80 83       	st	Z, r24
		callbacks[i].callback_ptr = (unsigned char*)ptr;
     a5e:	16 96       	adiw	r26, 0x06	; 6
     a60:	0d 93       	st	X+, r16
     a62:	1c 93       	st	X, r17
     a64:	17 97       	sbiw	r26, 0x07	; 7
		if (callback_count == i) {
     a66:	27 17       	cp	r18, r23
     a68:	19 f4       	brne	.+6      	; 0xa70 <timer_addCallback+0x9e>
			callback_count++;
     a6a:	2f 5f       	subi	r18, 0xFF	; 255
     a6c:	20 93 2b 28 	sts	0x282B, r18
		}
	}
}
     a70:	df 91       	pop	r29
     a72:	cf 91       	pop	r28
     a74:	1f 91       	pop	r17
     a76:	0f 91       	pop	r16
     a78:	08 95       	ret

00000a7a <timer_delCallback>:

void timer_delCallback(Void_Function_VoidP fnct, void * ptr) {
     a7a:	ac 01       	movw	r20, r24
	unsigned char i = callback_count;
     a7c:	30 91 2b 28 	lds	r19, 0x282B
	if (!fnct) {
     a80:	00 97       	sbiw	r24, 0x00	; 0
     a82:	79 f5       	brne	.+94     	; 0xae2 <timer_delCallback+0x68>
		callback_count = 0;
     a84:	10 92 2b 28 	sts	0x282B, r1
     a88:	08 95       	ret
		return;
	}
	while (i--) {
     a8a:	21 50       	subi	r18, 0x01	; 1
		if ((callbacks[i].callback == fnct) && (callbacks[i].callback_ptr == ptr)) {
     a8c:	82 2f       	mov	r24, r18
     a8e:	90 e0       	ldi	r25, 0x00	; 0
     a90:	fc 01       	movw	r30, r24
     a92:	a3 e0       	ldi	r26, 0x03	; 3
     a94:	ee 0f       	add	r30, r30
     a96:	ff 1f       	adc	r31, r31
     a98:	aa 95       	dec	r26
     a9a:	e1 f7       	brne	.-8      	; 0xa94 <timer_delCallback+0x1a>
     a9c:	e8 0f       	add	r30, r24
     a9e:	f9 1f       	adc	r31, r25
     aa0:	e9 5c       	subi	r30, 0xC9	; 201
     aa2:	f7 4d       	sbci	r31, 0xD7	; 215
     aa4:	84 81       	ldd	r24, Z+4	; 0x04
     aa6:	95 81       	ldd	r25, Z+5	; 0x05
     aa8:	84 17       	cp	r24, r20
     aaa:	95 07       	cpc	r25, r21
     aac:	d9 f4       	brne	.+54     	; 0xae4 <timer_delCallback+0x6a>
     aae:	86 81       	ldd	r24, Z+6	; 0x06
     ab0:	97 81       	ldd	r25, Z+7	; 0x07
     ab2:	86 17       	cp	r24, r22
     ab4:	97 07       	cpc	r25, r23
     ab6:	b1 f4       	brne	.+44     	; 0xae4 <timer_delCallback+0x6a>
			callback_count--;
     ab8:	83 2f       	mov	r24, r19
     aba:	81 50       	subi	r24, 0x01	; 1
     abc:	80 93 2b 28 	sts	0x282B, r24
			callbacks[i] = callbacks[callback_count];
     ac0:	90 e0       	ldi	r25, 0x00	; 0
     ac2:	dc 01       	movw	r26, r24
     ac4:	43 e0       	ldi	r20, 0x03	; 3
     ac6:	aa 0f       	add	r26, r26
     ac8:	bb 1f       	adc	r27, r27
     aca:	4a 95       	dec	r20
     acc:	e1 f7       	brne	.-8      	; 0xac6 <timer_delCallback+0x4c>
     ace:	a8 0f       	add	r26, r24
     ad0:	b9 1f       	adc	r27, r25
     ad2:	a9 5c       	subi	r26, 0xC9	; 201
     ad4:	b7 4d       	sbci	r27, 0xD7	; 215
     ad6:	89 e0       	ldi	r24, 0x09	; 9
     ad8:	0d 90       	ld	r0, X+
     ada:	01 92       	st	Z+, r0
     adc:	81 50       	subi	r24, 0x01	; 1
     ade:	e1 f7       	brne	.-8      	; 0xad8 <timer_delCallback+0x5e>
     ae0:	08 95       	ret
			break;
     ae2:	23 2f       	mov	r18, r19
	unsigned char i = callback_count;
	if (!fnct) {
		callback_count = 0;
		return;
	}
	while (i--) {
     ae4:	22 23       	and	r18, r18
     ae6:	89 f6       	brne	.-94     	; 0xa8a <timer_delCallback+0x10>
     ae8:	08 95       	ret

00000aea <systimer_startStopwatch>:
	}
}

void systimer_startStopwatch() {
	unsigned char stmp;
	check_timers();
     aea:	0e 94 f5 03 	call	0x7ea	; 0x7ea <check_timers>
	stmp = SREG;
     aee:	2f b7       	in	r18, 0x3f	; 63
	cli();
     af0:	f8 94       	cli
	startTime = systimer_time;
     af2:	80 91 22 28 	lds	r24, 0x2822
     af6:	90 91 23 28 	lds	r25, 0x2823
     afa:	a0 91 24 28 	lds	r26, 0x2824
     afe:	b0 91 25 28 	lds	r27, 0x2825
     b02:	80 93 27 28 	sts	0x2827, r24
     b06:	90 93 28 28 	sts	0x2828, r25
     b0a:	a0 93 29 28 	sts	0x2829, r26
     b0e:	b0 93 2a 28 	sts	0x282A, r27
	SREG = stmp;
     b12:	2f bf       	out	0x3f, r18	; 63
}
     b14:	08 95       	ret

00000b16 <systimer_getStopwatch>:

unsigned long int systimer_getStopwatch() {
	unsigned long int tmp;
	unsigned char stmp;
	check_timers();
     b16:	0e 94 f5 03 	call	0x7ea	; 0x7ea <check_timers>
	stmp = SREG;
     b1a:	8f b7       	in	r24, 0x3f	; 63
	cli();
     b1c:	f8 94       	cli
	tmp = (systimer_time - startTime);
	SREG = stmp;
     b1e:	8f bf       	out	0x3f, r24	; 63
     b20:	20 91 22 28 	lds	r18, 0x2822
     b24:	30 91 23 28 	lds	r19, 0x2823
     b28:	40 91 24 28 	lds	r20, 0x2824
     b2c:	50 91 25 28 	lds	r21, 0x2825
     b30:	80 91 27 28 	lds	r24, 0x2827
     b34:	90 91 28 28 	lds	r25, 0x2828
     b38:	a0 91 29 28 	lds	r26, 0x2829
     b3c:	b0 91 2a 28 	lds	r27, 0x282A
     b40:	28 1b       	sub	r18, r24
     b42:	39 0b       	sbc	r19, r25
     b44:	4a 0b       	sbc	r20, r26
     b46:	5b 0b       	sbc	r21, r27
	return tmp; 
}
     b48:	b9 01       	movw	r22, r18
     b4a:	ca 01       	movw	r24, r20
     b4c:	08 95       	ret

00000b4e <systimer_getTimestamp_async>:

unsigned long int systimer_getTimestamp_async() {
	return systimer_time + systimer_toAdd;
     b4e:	80 91 26 28 	lds	r24, 0x2826
     b52:	20 91 22 28 	lds	r18, 0x2822
     b56:	30 91 23 28 	lds	r19, 0x2823
     b5a:	40 91 24 28 	lds	r20, 0x2824
     b5e:	50 91 25 28 	lds	r21, 0x2825
     b62:	28 0f       	add	r18, r24
     b64:	31 1d       	adc	r19, r1
     b66:	41 1d       	adc	r20, r1
     b68:	51 1d       	adc	r21, r1
}
     b6a:	b9 01       	movw	r22, r18
     b6c:	ca 01       	movw	r24, r20
     b6e:	08 95       	ret

00000b70 <systimer_getTimestamp>:

unsigned long int systimer_getTimestamp() {
	unsigned long int tmp;
	unsigned char stmp;
	stmp = SREG;
     b70:	8f b7       	in	r24, 0x3f	; 63
	cli();
     b72:	f8 94       	cli
	tmp = systimer_time + systimer_toAdd;
     b74:	90 91 26 28 	lds	r25, 0x2826
	SREG = stmp;
     b78:	8f bf       	out	0x3f, r24	; 63
     b7a:	20 91 22 28 	lds	r18, 0x2822
     b7e:	30 91 23 28 	lds	r19, 0x2823
     b82:	40 91 24 28 	lds	r20, 0x2824
     b86:	50 91 25 28 	lds	r21, 0x2825
     b8a:	29 0f       	add	r18, r25
     b8c:	31 1d       	adc	r19, r1
     b8e:	41 1d       	adc	r20, r1
     b90:	51 1d       	adc	r21, r1
	return tmp;
}
     b92:	b9 01       	movw	r22, r18
     b94:	ca 01       	movw	r24, r20
     b96:	08 95       	ret

00000b98 <timer_getPreciseTimestamp>:

unsigned long int timer_getPreciseTimestamp() {
	unsigned char timerValueL;
	unsigned char timerValueH;
	unsigned long int preciseTime_local;
	cli();
     b98:	f8 94       	cli
	timerValueL = TIMER.CNTL;
     b9a:	e0 e0       	ldi	r30, 0x00	; 0
     b9c:	f9 e0       	ldi	r31, 0x09	; 9
     b9e:	80 a1       	ldd	r24, Z+32	; 0x20
	timerValueH = TIMER.CNTH;
     ba0:	61 a1       	ldd	r22, Z+33	; 0x21
	preciseTime_local = preciseTime;
	sei();
     ba2:	78 94       	sei
     ba4:	36 2f       	mov	r19, r22
     ba6:	20 e0       	ldi	r18, 0x00	; 0
     ba8:	90 e0       	ldi	r25, 0x00	; 0
     baa:	28 2b       	or	r18, r24
     bac:	39 2b       	or	r19, r25
     bae:	40 e0       	ldi	r20, 0x00	; 0
     bb0:	50 e0       	ldi	r21, 0x00	; 0
     bb2:	80 91 33 28 	lds	r24, 0x2833
     bb6:	90 91 34 28 	lds	r25, 0x2834
     bba:	a0 91 35 28 	lds	r26, 0x2835
     bbe:	b0 91 36 28 	lds	r27, 0x2836
     bc2:	28 0f       	add	r18, r24
     bc4:	39 1f       	adc	r19, r25
     bc6:	4a 1f       	adc	r20, r26
     bc8:	5b 1f       	adc	r21, r27
	// Okay. preciseTime_local enthält jetzt die Zeit die aktuell war, als der Timer noch vor einem möglichen Überlauf stand.
	return preciseTime_local + (((unsigned int)timerValueH << 8) | timerValueL);
}
     bca:	b9 01       	movw	r22, r18
     bcc:	ca 01       	movw	r24, r20
     bce:	08 95       	ret

00000bd0 <timer_getPreciseTimestamp_async>:

unsigned long int timer_getPreciseTimestamp_async() { // Wir sind sowieso in einem Interrupt, können also eh nicht unterbrochen werden.
	unsigned char timerValueL;
	unsigned char timerValueH;
	unsigned long int preciseTime_local;
	timerValueL = TIMER.CNTL;
     bd0:	e0 e0       	ldi	r30, 0x00	; 0
     bd2:	f9 e0       	ldi	r31, 0x09	; 9
     bd4:	80 a1       	ldd	r24, Z+32	; 0x20
	timerValueH = TIMER.CNTH;
     bd6:	61 a1       	ldd	r22, Z+33	; 0x21
     bd8:	36 2f       	mov	r19, r22
     bda:	20 e0       	ldi	r18, 0x00	; 0
     bdc:	90 e0       	ldi	r25, 0x00	; 0
     bde:	28 2b       	or	r18, r24
     be0:	39 2b       	or	r19, r25
     be2:	40 e0       	ldi	r20, 0x00	; 0
     be4:	50 e0       	ldi	r21, 0x00	; 0
     be6:	80 91 33 28 	lds	r24, 0x2833
     bea:	90 91 34 28 	lds	r25, 0x2834
     bee:	a0 91 35 28 	lds	r26, 0x2835
     bf2:	b0 91 36 28 	lds	r27, 0x2836
     bf6:	28 0f       	add	r18, r24
     bf8:	39 1f       	adc	r19, r25
     bfa:	4a 1f       	adc	r20, r26
     bfc:	5b 1f       	adc	r21, r27
	preciseTime_local = preciseTime;
	// Okay. preciseTime_local enthält jetzt die Zeit die aktuell war, als der Timer noch vor einem möglichen Überlauf stand.
	return preciseTime_local + (((unsigned int)timerValueH << 8) | timerValueL);
}
     bfe:	b9 01       	movw	r22, r18
     c00:	ca 01       	movw	r24, r20
     c02:	08 95       	ret

00000c04 <timer_getMicrosecondsFromPreciseTimestamp>:

unsigned long int timer_getMicrosecondsFromPreciseTimestamp(unsigned long int preciseTimestamp) {
     c04:	20 e1       	ldi	r18, 0x10	; 16
     c06:	37 e2       	ldi	r19, 0x27	; 39
     c08:	40 e0       	ldi	r20, 0x00	; 0
     c0a:	50 e0       	ldi	r21, 0x00	; 0
     c0c:	0e 94 5e 28 	call	0x50bc	; 0x50bc <__mulsi3>
     c10:	22 ee       	ldi	r18, 0xE2	; 226
     c12:	34 e0       	ldi	r19, 0x04	; 4
     c14:	40 e0       	ldi	r20, 0x00	; 0
     c16:	50 e0       	ldi	r21, 0x00	; 0
     c18:	0e 94 91 28 	call	0x5122	; 0x5122 <__udivmodsi4>
     c1c:	ca 01       	movw	r24, r20
	return (preciseTimestamp * 10000) / PRECISE_TICKS_PER_10MS;
}
     c1e:	b9 01       	movw	r22, r18
     c20:	08 95       	ret

00000c22 <sdram_testPeriodic>:
			sdram_detectedOkay();
			ramTestState = 0;
			break;
	}
*/
}
     c22:	08 95       	ret

00000c24 <sdram_init>:
	unsigned char i;	
	unsigned char state = 1;
	//console_print("Setting up SDRAM.. ");
	
	/* Set signals which are active-low to high value */
	PORTH.OUT = 0x0F;
     c24:	8f e0       	ldi	r24, 0x0F	; 15
     c26:	e0 ee       	ldi	r30, 0xE0	; 224
     c28:	f6 e0       	ldi	r31, 0x06	; 6
     c2a:	84 83       	std	Z+4, r24	; 0x04
	
	/* Configure bus pins as outputs(except for data lines). */
	PORTH.DIR = 0xFF;
     c2c:	8f ef       	ldi	r24, 0xFF	; 255
     c2e:	80 93 e0 06 	sts	0x06E0, r24
	PORTK.DIR = 0xFF;
     c32:	80 93 20 07 	sts	0x0720, r24
	PORTJ.DIR = 0xF0;
     c36:	80 ef       	ldi	r24, 0xF0	; 240
     c38:	80 93 00 07 	sts	0x0700, r24
	
	//PORTE.OUTCLR = 1; // Chip select für RAM -> AKTIV
	
	
	EBI.CTRL = 			EBI_SDDATAW_4BIT_gc | 		// 4-Bit-Interface
     c3c:	e0 e4       	ldi	r30, 0x40	; 64
     c3e:	f4 e0       	ldi	r31, 0x04	; 4
     c40:	8d e0       	ldi	r24, 0x0D	; 13
     c42:	80 93 40 04 	sts	0x0440, r24
						EBI_IFMODE_3PORT_gc |		// 3 Ports
						EBI_SRMODE_NOALE_gc; 		// Eigentlich nicht relevant aber wir versuchen den RAM genau so anzusteuern wie Atmel es in der AppNote macht
	
	EBI.SDRAMCTRLA = 	EBI_SDROW_bm / 				// 12 Bit for Rows (4096)
     c46:	8a e0       	ldi	r24, 0x0A	; 10
     c48:	81 83       	std	Z+1, r24	; 0x01
						EBI_SDCOL_10BIT_gc | 		//  9 Bit for Columns (512)
						EBI_SDCAS_bm;				// CAS-Latenz 3 Zyklen
	
	// Refresh rate 14,91µS (minimal Rate specified by SDRAM 15,xx µS)
	EBI.REFRESH = 		440; //440; // WAS: 440 // Calculated for 28 MHz or 14 MHz with 2x peripheral clock
     c4a:	88 eb       	ldi	r24, 0xB8	; 184
     c4c:	91 e0       	ldi	r25, 0x01	; 1
     c4e:	84 83       	std	Z+4, r24	; 0x04
     c50:	95 83       	std	Z+5, r25	; 0x05
	
	// Initialization delay.. max. could be ~10ms
	EBI.INITDLY = 		7000; // Berechnet: 200µs = 5898 bei 29 MHz.
     c52:	88 e5       	ldi	r24, 0x58	; 88
     c54:	9b e1       	ldi	r25, 0x1B	; 27
     c56:	86 83       	std	Z+6, r24	; 0x06
     c58:	97 83       	std	Z+7, r25	; 0x07
						EBI_ESRDLY_2CLK_gc |		// Ausgerechnet
						EBI_ROWCOLDLY_1CLK_gc;
*/
	
	
	EBI.SDRAMCTRLB =	EBI_MRDLY_2CLK_gc | 		// 2CLK
     c5a:	8f eb       	ldi	r24, 0xBF	; 191
     c5c:	80 87       	std	Z+8, r24	; 0x08
						EBI_ROWCYCDLY_7CLK_gc | 	// 7CLK
						EBI_RPDLY_7CLK_gc;			// 7CLK
	EBI.SDRAMCTRLC =	EBI_WRDLY_2CLK_gc |			// Ausgerechnet
     c5e:	81 87       	std	Z+9, r24	; 0x09
						EBI_ESRDLY_7CLK_gc |		// Ausgerechnet
						EBI_ROWCOLDLY_7CLK_gc;
	
	EBI.CS3.CTRLA =		EBI_CS_ASPACE_8MB_gc;
     c60:	8c e3       	ldi	r24, 0x3C	; 60
     c62:	84 8f       	std	Z+28, r24	; 0x1c
	EBI.CS3.CTRLB =		0;
     c64:	15 8e       	std	Z+29, r1	; 0x1d
	
	EBI.CS3.BASEADDR =	0x0;						// Lowest SDRAM-addr >> 8, aligned to chip size (1M = 0x100000)
     c66:	16 8e       	std	Z+30, r1	; 0x1e
     c68:	17 8e       	std	Z+31, r1	; 0x1f
	
	
	
	EBI.CS3.CTRLA = EBI_CS_ASPACE_4MB_gc | EBI_CS_MODE_SDRAM_gc;
     c6a:	8b e3       	ldi	r24, 0x3B	; 59
     c6c:	84 8f       	std	Z+28, r24	; 0x1c
    while (!(EBI.CS3.CTRLB & EBI_CS_SDINITDONE_bm) );   // wait for init of SDRAM
     c6e:	80 91 5d 04 	lds	r24, 0x045D
     c72:	87 ff       	sbrs	r24, 7
     c74:	fc cf       	rjmp	.-8      	; 0xc6e <sdram_init+0x4a>
	
	wait(200);
     c76:	88 ec       	ldi	r24, 0xC8	; 200
     c78:	90 e0       	ldi	r25, 0x00	; 0
     c7a:	0e 94 f5 02 	call	0x5ea	; 0x5ea <wait>
     c7e:	90 e8       	ldi	r25, 0x80	; 128
//	while (!(EBI.CS3.CTRLB & EBI_CS_SDINITDONE_bm)) { }
	
	// Daten in den Testpuffer schreiben:
	i = sizeof(testBuffer);
	while (i--)
		testBuffer[i] = (i ^ 0xaa);
     c80:	2a ea       	ldi	r18, 0xAA	; 170
//	
//	while (!(EBI.CS3.CTRLB & EBI_CS_SDINITDONE_bm)) { }
	
	// Daten in den Testpuffer schreiben:
	i = sizeof(testBuffer);
	while (i--)
     c82:	91 50       	subi	r25, 0x01	; 1
		testBuffer[i] = (i ^ 0xaa);
     c84:	e9 2f       	mov	r30, r25
     c86:	f0 e0       	ldi	r31, 0x00	; 0
     c88:	89 2f       	mov	r24, r25
     c8a:	82 27       	eor	r24, r18
     c8c:	e0 50       	subi	r30, 0x00	; 0
     c8e:	f0 4c       	sbci	r31, 0xC0	; 192
     c90:	80 83       	st	Z, r24
//	
//	while (!(EBI.CS3.CTRLB & EBI_CS_SDINITDONE_bm)) { }
	
	// Daten in den Testpuffer schreiben:
	i = sizeof(testBuffer);
	while (i--)
     c92:	99 23       	and	r25, r25
     c94:	b1 f7       	brne	.-20     	; 0xc82 <sdram_init+0x5e>
		testBuffer[i] = (i ^ 0xaa);
	
	// 25ms warten:
	wait(25);
     c96:	89 e1       	ldi	r24, 0x19	; 25
     c98:	90 e0       	ldi	r25, 0x00	; 0
     c9a:	0e 94 f5 02 	call	0x5ea	; 0x5ea <wait>
     c9e:	90 e8       	ldi	r25, 0x80	; 128
	
	// Daten in den Testpuffer schreiben:
	i = sizeof(testBuffer);
	while (i--)
		testBuffer[i] = (i ^ 0xaa);
     ca0:	2a ea       	ldi	r18, 0xAA	; 170
	// 25ms warten:
	wait(25);
	
	// Daten in den Testpuffer schreiben:
	i = sizeof(testBuffer);
	while (i--)
     ca2:	91 50       	subi	r25, 0x01	; 1
		testBuffer[i] = (i ^ 0xaa);
     ca4:	e9 2f       	mov	r30, r25
     ca6:	f0 e0       	ldi	r31, 0x00	; 0
     ca8:	89 2f       	mov	r24, r25
     caa:	82 27       	eor	r24, r18
     cac:	e0 50       	subi	r30, 0x00	; 0
     cae:	f0 4c       	sbci	r31, 0xC0	; 192
     cb0:	80 83       	st	Z, r24
	// 25ms warten:
	wait(25);
	
	// Daten in den Testpuffer schreiben:
	i = sizeof(testBuffer);
	while (i--)
     cb2:	99 23       	and	r25, r25
     cb4:	b1 f7       	brne	.-20     	; 0xca2 <sdram_init+0x7e>
		testBuffer[i] = (i ^ 0xaa);
	
	// 25ms warten:
	wait(25);
     cb6:	89 e1       	ldi	r24, 0x19	; 25
     cb8:	90 e0       	ldi	r25, 0x00	; 0
     cba:	0e 94 f5 02 	call	0x5ea	; 0x5ea <wait>
     cbe:	90 e8       	ldi	r25, 0x80	; 128
	
	// Daten in den Testpuffer schreiben:
	i = sizeof(testBuffer);
	while (i--)
		testBuffer[i] = (i ^ 0xaa);
     cc0:	2a ea       	ldi	r18, 0xAA	; 170
	// 25ms warten:
	wait(25);
	
	// Daten in den Testpuffer schreiben:
	i = sizeof(testBuffer);
	while (i--)
     cc2:	91 50       	subi	r25, 0x01	; 1
		testBuffer[i] = (i ^ 0xaa);
     cc4:	e9 2f       	mov	r30, r25
     cc6:	f0 e0       	ldi	r31, 0x00	; 0
     cc8:	89 2f       	mov	r24, r25
     cca:	82 27       	eor	r24, r18
     ccc:	e0 50       	subi	r30, 0x00	; 0
     cce:	f0 4c       	sbci	r31, 0xC0	; 192
     cd0:	80 83       	st	Z, r24
	// 25ms warten:
	wait(25);
	
	// Daten in den Testpuffer schreiben:
	i = sizeof(testBuffer);
	while (i--)
     cd2:	99 23       	and	r25, r25
     cd4:	b1 f7       	brne	.-20     	; 0xcc2 <sdram_init+0x9e>
		testBuffer[i] = (i ^ 0xaa);
	
	// 25ms warten:
	wait(25);
     cd6:	89 e1       	ldi	r24, 0x19	; 25
     cd8:	90 e0       	ldi	r25, 0x00	; 0
     cda:	0e 94 f5 02 	call	0x5ea	; 0x5ea <wait>
	
	timer_addCallback(10, 1, sdram_testPeriodic, 0);
     cde:	8a e0       	ldi	r24, 0x0A	; 10
     ce0:	90 e0       	ldi	r25, 0x00	; 0
     ce2:	61 e0       	ldi	r22, 0x01	; 1
     ce4:	41 e1       	ldi	r20, 0x11	; 17
     ce6:	56 e0       	ldi	r21, 0x06	; 6
     ce8:	20 e0       	ldi	r18, 0x00	; 0
     cea:	30 e0       	ldi	r19, 0x00	; 0
     cec:	0e 94 e9 04 	call	0x9d2	; 0x9d2 <timer_addCallback>
	
	{
		unsigned char * p = (unsigned char*)&__extram_start;
     cf0:	e0 e0       	ldi	r30, 0x00	; 0
     cf2:	f0 e4       	ldi	r31, 0x40	; 64
		unsigned int len = ((unsigned int)&__extram_end - (unsigned int)&__extram_start);
     cf4:	8e e4       	ldi	r24, 0x4E	; 78
     cf6:	90 e7       	ldi	r25, 0x70	; 112
     cf8:	8e 1b       	sub	r24, r30
     cfa:	9f 0b       	sbc	r25, r31
     cfc:	02 c0       	rjmp	.+4      	; 0xd02 <sdram_init+0xde>
		while (len--)
			*p++ = 0;
     cfe:	11 92       	st	Z+, r1
     d00:	01 97       	sbiw	r24, 0x01	; 1
	timer_addCallback(10, 1, sdram_testPeriodic, 0);
	
	{
		unsigned char * p = (unsigned char*)&__extram_start;
		unsigned int len = ((unsigned int)&__extram_end - (unsigned int)&__extram_start);
		while (len--)
     d02:	00 97       	sbiw	r24, 0x00	; 0
     d04:	e1 f7       	brne	.-8      	; 0xcfe <sdram_init+0xda>
	sdram_testPeriodic(0);
	sdram_testPeriodic(0);
	
	// RAM funktioniert offenbar erstmal:
	return state;
}
     d06:	81 e0       	ldi	r24, 0x01	; 1
     d08:	08 95       	ret

00000d0a <memoryTransferDMA>:
								:	/* No output operands */							\
								: [to] "r" (toaddr), [len] "r" (length),				\
								  [rampz] "I" (_SFR_IO_ADDR(RAMPZ))						\
								)

void memoryTransferDMA(unsigned long from, unsigned long to, unsigned char howMany) {
     d0a:	ef 92       	push	r14
     d0c:	ff 92       	push	r15
     d0e:	0f 93       	push	r16
     d10:	1f 93       	push	r17
	
	DMA.CH1.CTRLA |= DMA_CH_ENABLE_bm;	
	*/
	
	// DMA konfigurieren:
	DMA.CH1.ADDRCTRL = DMA_CH_SRCRELOAD_NONE_gc | DMA_CH_SRCDIR_INC_gc | DMA_CH_DESTRELOAD_NONE_gc | DMA_CH_DESTDIR_INC_gc;
     d12:	e0 e0       	ldi	r30, 0x00	; 0
     d14:	f1 e0       	ldi	r31, 0x01	; 1
     d16:	a1 e1       	ldi	r26, 0x11	; 17
     d18:	a2 a3       	std	Z+34, r26	; 0x22
	DMA.CH1.TRIGSRC = 0;
     d1a:	13 a2       	std	Z+35, r1	; 0x23
	
	DMA.CH1.TRFCNTL = howMany;
     d1c:	04 a3       	std	Z+36, r16	; 0x24
	DMA.CH1.TRFCNTH = 0;
     d1e:	15 a2       	std	Z+37, r1	; 0x25
	
	DMA.CH1.REPCNT = 0;
     d20:	16 a2       	std	Z+38, r1	; 0x26
	DMA.CH1.SRCADDR0 = (from & 0xff);
     d22:	60 a7       	std	Z+40, r22	; 0x28
	DMA.CH1.SRCADDR1 = (from >> 8) & 0xff;
     d24:	e7 2e       	mov	r14, r23
     d26:	f8 2e       	mov	r15, r24
     d28:	09 2f       	mov	r16, r25
     d2a:	11 27       	eor	r17, r17
     d2c:	e1 a6       	std	Z+41, r14	; 0x29
	DMA.CH1.SRCADDR2 = (from >> 16) & 0xff;
     d2e:	bc 01       	movw	r22, r24
     d30:	88 27       	eor	r24, r24
     d32:	99 27       	eor	r25, r25
     d34:	62 a7       	std	Z+42, r22	; 0x2a
	DMA.CH1.DESTADDR0 = (to & 0xff);
     d36:	24 a7       	std	Z+44, r18	; 0x2c
	DMA.CH1.DESTADDR1 = (to >> 8) & 0xff;
     d38:	bb 27       	eor	r27, r27
     d3a:	a5 2f       	mov	r26, r21
     d3c:	94 2f       	mov	r25, r20
     d3e:	83 2f       	mov	r24, r19
     d40:	85 a7       	std	Z+45, r24	; 0x2d
	DMA.CH1.DESTADDR2 = (to >> 16) & 0xff;
     d42:	9a 01       	movw	r18, r20
     d44:	44 27       	eor	r20, r20
     d46:	55 27       	eor	r21, r21
     d48:	26 a7       	std	Z+46, r18	; 0x2e
	
	// Transfer starten:
	DMA.CH1.CTRLA |= DMA_CH_ENABLE_bm | DMA_CH_BURSTLEN_1BYTE_gc;
     d4a:	80 91 20 01 	lds	r24, 0x0120
     d4e:	80 68       	ori	r24, 0x80	; 128
     d50:	80 a3       	std	Z+32, r24	; 0x20
	DMA.CH1.CTRLA |= DMA_CH_TRFREQ_bm;
     d52:	80 91 20 01 	lds	r24, 0x0120
     d56:	80 61       	ori	r24, 0x10	; 16
     d58:	80 a3       	std	Z+32, r24	; 0x20
	
	// Warten, bis Transfer fertig.
	while (DMA.STATUS & (DMA_CH1BUSY_bm | DMA_CH1PEND_bm)) { }
     d5a:	80 91 04 01 	lds	r24, 0x0104
     d5e:	82 72       	andi	r24, 0x22	; 34
     d60:	e1 f7       	brne	.-8      	; 0xd5a <memoryTransferDMA+0x50>
	
}
     d62:	1f 91       	pop	r17
     d64:	0f 91       	pop	r16
     d66:	ff 90       	pop	r15
     d68:	ef 90       	pop	r14
     d6a:	08 95       	ret

00000d6c <memoryTransfer>:

void memoryTransfer(unsigned long from, unsigned long to, unsigned char howMany) {
	//memoryTransferDMA(from, to, howMany);
	if (howMany)
     d6c:	00 23       	and	r16, r16
     d6e:	a1 f0       	breq	.+40     	; 0xd98 <memoryTransferNoDMA>
		__far_mem_copy(from, to, howMany);
     d70:	f8 94       	cli
     d72:	cf 93       	push	r28
     d74:	df 93       	push	r29
     d76:	0a b6       	in	r0, 0x3a	; 58
     d78:	1b b6       	in	r1, 0x3b	; 59
     d7a:	8a bf       	out	0x3a, r24	; 58
     d7c:	4b bf       	out	0x3b, r20	; 59
     d7e:	eb 01       	movw	r28, r22
     d80:	f9 01       	movw	r30, r18
     d82:	99 91       	ld	r25, Y+
     d84:	91 93       	st	Z+, r25
     d86:	0a 95       	dec	r16
     d88:	e1 f7       	brne	.-8      	; 0xd82 <memoryTransfer+0x16>
     d8a:	0a be       	out	0x3a, r0	; 58
     d8c:	1b be       	out	0x3b, r1	; 59
     d8e:	11 24       	eor	r1, r1
     d90:	df 91       	pop	r29
     d92:	cf 91       	pop	r28
     d94:	78 94       	sei
     d96:	08 95       	ret

00000d98 <memoryTransferNoDMA>:
}

void memoryTransferNoDMA(unsigned long from, unsigned long to, unsigned char howMany) {
	if (howMany)
     d98:	00 23       	and	r16, r16
     d9a:	a1 f0       	breq	.+40     	; 0xdc4 <memoryTransferLong>
		__far_mem_copy(from, to, howMany);
     d9c:	f8 94       	cli
     d9e:	cf 93       	push	r28
     da0:	df 93       	push	r29
     da2:	0a b6       	in	r0, 0x3a	; 58
     da4:	1b b6       	in	r1, 0x3b	; 59
     da6:	8a bf       	out	0x3a, r24	; 58
     da8:	4b bf       	out	0x3b, r20	; 59
     daa:	eb 01       	movw	r28, r22
     dac:	f9 01       	movw	r30, r18
     dae:	99 91       	ld	r25, Y+
     db0:	91 93       	st	Z+, r25
     db2:	0a 95       	dec	r16
     db4:	e1 f7       	brne	.-8      	; 0xdae <memoryTransferNoDMA+0x16>
     db6:	0a be       	out	0x3a, r0	; 58
     db8:	1b be       	out	0x3b, r1	; 59
     dba:	11 24       	eor	r1, r1
     dbc:	df 91       	pop	r29
     dbe:	cf 91       	pop	r28
     dc0:	78 94       	sei
     dc2:	08 95       	ret

00000dc4 <memoryTransferLong>:
}

void memoryTransferLong(unsigned long from, unsigned long to, unsigned int howMany) {
     dc4:	0f 93       	push	r16
     dc6:	1f 93       	push	r17
}

void memoryTransfer(unsigned long from, unsigned long to, unsigned char howMany) {
	//memoryTransferDMA(from, to, howMany);
	if (howMany)
		__far_mem_copy(from, to, howMany);
     dc8:	e0 e8       	ldi	r30, 0x80	; 128
		__far_mem_copy(from, to, howMany);
}

void memoryTransferLong(unsigned long from, unsigned long to, unsigned int howMany) {
	do {
		if (howMany > 128) {
     dca:	01 38       	cpi	r16, 0x81	; 129
     dcc:	11 05       	cpc	r17, r1
     dce:	00 f1       	brcs	.+64     	; 0xe10 <memoryTransferLong+0x4c>
}

void memoryTransfer(unsigned long from, unsigned long to, unsigned char howMany) {
	//memoryTransferDMA(from, to, howMany);
	if (howMany)
		__far_mem_copy(from, to, howMany);
     dd0:	f8 94       	cli
     dd2:	cf 93       	push	r28
     dd4:	df 93       	push	r29
     dd6:	0a b6       	in	r0, 0x3a	; 58
     dd8:	1b b6       	in	r1, 0x3b	; 59
     dda:	8a bf       	out	0x3a, r24	; 58
     ddc:	4b bf       	out	0x3b, r20	; 59
     dde:	eb 01       	movw	r28, r22
     de0:	f9 01       	movw	r30, r18
     de2:	99 91       	ld	r25, Y+
     de4:	91 93       	st	Z+, r25
     de6:	ea 95       	dec	r30
     de8:	e1 f7       	brne	.-8      	; 0xde2 <memoryTransferLong+0x1e>
     dea:	0a be       	out	0x3a, r0	; 58
     dec:	1b be       	out	0x3b, r1	; 59
     dee:	11 24       	eor	r1, r1
     df0:	df 91       	pop	r29
     df2:	cf 91       	pop	r28
     df4:	78 94       	sei
     df6:	08 95       	ret
		if (howMany > 128) {
			memoryTransfer(from, to, (unsigned char)128);
			//__far_mem_copy(from, to, 128);
			from += 128;
			to += 128;
			howMany -= 128;
     df8:	00 58       	subi	r16, 0x80	; 128
     dfa:	10 40       	sbci	r17, 0x00	; 0
		} else {
			memoryTransfer(from, to, (unsigned char)howMany);
			howMany = 0;
			break;
		}
	} while (howMany);
     dfc:	f9 f0       	breq	.+62     	; 0xe3c <memoryTransferLong+0x78>
void memoryTransferLong(unsigned long from, unsigned long to, unsigned int howMany) {
	do {
		if (howMany > 128) {
			memoryTransfer(from, to, (unsigned char)128);
			//__far_mem_copy(from, to, 128);
			from += 128;
     dfe:	60 58       	subi	r22, 0x80	; 128
     e00:	7f 4f       	sbci	r23, 0xFF	; 255
     e02:	8f 4f       	sbci	r24, 0xFF	; 255
     e04:	9f 4f       	sbci	r25, 0xFF	; 255
			to += 128;
     e06:	20 58       	subi	r18, 0x80	; 128
     e08:	3f 4f       	sbci	r19, 0xFF	; 255
     e0a:	4f 4f       	sbci	r20, 0xFF	; 255
     e0c:	5f 4f       	sbci	r21, 0xFF	; 255
     e0e:	dd cf       	rjmp	.-70     	; 0xdca <memoryTransferLong+0x6>
	
}

void memoryTransfer(unsigned long from, unsigned long to, unsigned char howMany) {
	//memoryTransferDMA(from, to, howMany);
	if (howMany)
     e10:	00 23       	and	r16, r16
     e12:	a1 f0       	breq	.+40     	; 0xe3c <memoryTransferLong+0x78>
		__far_mem_copy(from, to, howMany);
     e14:	f8 94       	cli
     e16:	cf 93       	push	r28
     e18:	df 93       	push	r29
     e1a:	0a b6       	in	r0, 0x3a	; 58
     e1c:	1b b6       	in	r1, 0x3b	; 59
     e1e:	8a bf       	out	0x3a, r24	; 58
     e20:	4b bf       	out	0x3b, r20	; 59
     e22:	eb 01       	movw	r28, r22
     e24:	f9 01       	movw	r30, r18
     e26:	99 91       	ld	r25, Y+
     e28:	91 93       	st	Z+, r25
     e2a:	0a 95       	dec	r16
     e2c:	e1 f7       	brne	.-8      	; 0xe26 <memoryTransferLong+0x62>
     e2e:	0a be       	out	0x3a, r0	; 58
     e30:	1b be       	out	0x3b, r1	; 59
     e32:	11 24       	eor	r1, r1
     e34:	df 91       	pop	r29
     e36:	cf 91       	pop	r28
     e38:	78 94       	sei
     e3a:	08 95       	ret
			memoryTransfer(from, to, (unsigned char)howMany);
			howMany = 0;
			break;
		}
	} while (howMany);
}
     e3c:	1f 91       	pop	r17
     e3e:	0f 91       	pop	r16
     e40:	08 95       	ret

00000e42 <memoryZero>:


void memoryZero(unsigned long to, unsigned char howMany) {
	if (howMany)
     e42:	44 23       	and	r20, r20
     e44:	59 f0       	breq	.+22     	; 0xe5c <memoryZeroLong>
		__far_mem_clear(to, howMany);
     e46:	f8 94       	cli
     e48:	0b b6       	in	r0, 0x3b	; 59
     e4a:	8b bf       	out	0x3b, r24	; 59
     e4c:	fb 01       	movw	r30, r22
     e4e:	11 24       	eor	r1, r1
     e50:	11 92       	st	Z+, r1
     e52:	4a 95       	dec	r20
     e54:	e1 f7       	brne	.-8      	; 0xe4e <memoryZero+0xc>
     e56:	0b be       	out	0x3b, r0	; 59
     e58:	78 94       	sei
     e5a:	08 95       	ret

00000e5c <memoryZeroLong>:
     e5c:	20 e8       	ldi	r18, 0x80	; 128
}

void memoryZeroLong(unsigned long to, unsigned int howMany) {
	do {
		if (howMany > 128) {
     e5e:	41 38       	cpi	r20, 0x81	; 129
     e60:	51 05       	cpc	r21, r1
     e62:	98 f0       	brcs	.+38     	; 0xe8a <memoryZeroLong+0x2e>
}


void memoryZero(unsigned long to, unsigned char howMany) {
	if (howMany)
		__far_mem_clear(to, howMany);
     e64:	f8 94       	cli
     e66:	0b b6       	in	r0, 0x3b	; 59
     e68:	8b bf       	out	0x3b, r24	; 59
     e6a:	fb 01       	movw	r30, r22
     e6c:	11 24       	eor	r1, r1
     e6e:	11 92       	st	Z+, r1
     e70:	2a 95       	dec	r18
     e72:	e1 f7       	brne	.-8      	; 0xe6c <memoryZeroLong+0x10>
     e74:	0b be       	out	0x3b, r0	; 59
     e76:	78 94       	sei
     e78:	08 95       	ret
void memoryZeroLong(unsigned long to, unsigned int howMany) {
	do {
		if (howMany > 128) {
			memoryZero(to, 128);
			to += 128;
			howMany -= 128;
     e7a:	40 58       	subi	r20, 0x80	; 128
     e7c:	50 40       	sbci	r21, 0x00	; 0
		} else {
			memoryZero(to, howMany);
			howMany = 0;
			//break;
		}
	} while (howMany);
     e7e:	91 f0       	breq	.+36     	; 0xea4 <memoryZeroLong+0x48>

void memoryZeroLong(unsigned long to, unsigned int howMany) {
	do {
		if (howMany > 128) {
			memoryZero(to, 128);
			to += 128;
     e80:	60 58       	subi	r22, 0x80	; 128
     e82:	7f 4f       	sbci	r23, 0xFF	; 255
     e84:	8f 4f       	sbci	r24, 0xFF	; 255
     e86:	9f 4f       	sbci	r25, 0xFF	; 255
     e88:	ea cf       	rjmp	.-44     	; 0xe5e <memoryZeroLong+0x2>
	} while (howMany);
}


void memoryZero(unsigned long to, unsigned char howMany) {
	if (howMany)
     e8a:	44 23       	and	r20, r20
     e8c:	59 f0       	breq	.+22     	; 0xea4 <memoryZeroLong+0x48>
		__far_mem_clear(to, howMany);
     e8e:	f8 94       	cli
     e90:	0b b6       	in	r0, 0x3b	; 59
     e92:	8b bf       	out	0x3b, r24	; 59
     e94:	fb 01       	movw	r30, r22
     e96:	11 24       	eor	r1, r1
     e98:	11 92       	st	Z+, r1
     e9a:	4a 95       	dec	r20
     e9c:	e1 f7       	brne	.-8      	; 0xe96 <memoryZeroLong+0x3a>
     e9e:	0b be       	out	0x3b, r0	; 59
     ea0:	78 94       	sei
     ea2:	08 95       	ret
     ea4:	08 95       	ret

00000ea6 <hw_resolvePinData>:
		return hw_resolvePinData(hwPin, port, pinctrl, pin);
	}
	return 0;
}

unsigned char hw_resolvePinData(unsigned char hwPin, PORT_t ** port, unsigned char ** pinctrl, unsigned char * pin) {
     ea6:	1f 93       	push	r17
     ea8:	cf 93       	push	r28
     eaa:	df 93       	push	r29
     eac:	18 2f       	mov	r17, r24
     eae:	fb 01       	movw	r30, r22
     eb0:	da 01       	movw	r26, r20
     eb2:	e9 01       	movw	r28, r18
	PORT_t * myPort;
	if (hwPin && (hwPin != 0xff)) {
     eb4:	98 2f       	mov	r25, r24
     eb6:	91 50       	subi	r25, 0x01	; 1
     eb8:	9e 3f       	cpi	r25, 0xFE	; 254
     eba:	10 f0       	brcs	.+4      	; 0xec0 <hw_resolvePinData+0x1a>
     ebc:	10 e0       	ldi	r17, 0x00	; 0
     ebe:	1f c0       	rjmp	.+62     	; 0xefe <hw_resolvePinData+0x58>
		hwPin--;
		// Richtigen Port finden:
		myPort = (PORT_t*)(((unsigned int)&PORTA) + (unsigned int)((hwPin >> 4) * 0x20));
     ec0:	89 2f       	mov	r24, r25
     ec2:	82 95       	swap	r24
     ec4:	8f 70       	andi	r24, 0x0F	; 15
     ec6:	28 2f       	mov	r18, r24
     ec8:	30 e0       	ldi	r19, 0x00	; 0
     eca:	20 5d       	subi	r18, 0xD0	; 208
     ecc:	3f 4f       	sbci	r19, 0xFF	; 255
     ece:	85 e0       	ldi	r24, 0x05	; 5
     ed0:	22 0f       	add	r18, r18
     ed2:	33 1f       	adc	r19, r19
     ed4:	8a 95       	dec	r24
     ed6:	e1 f7       	brne	.-8      	; 0xed0 <hw_resolvePinData+0x2a>
		// Wenn gewünscht, den Port nach draußen geben:
		if (port)
     ed8:	61 15       	cp	r22, r1
     eda:	71 05       	cpc	r23, r1
     edc:	11 f0       	breq	.+4      	; 0xee2 <hw_resolvePinData+0x3c>
			*port = myPort;
     ede:	20 83       	st	Z, r18
     ee0:	31 83       	std	Z+1, r19	; 0x01
		// Wenn gewünscht, den PINCTRL-Block nach draußen geben:
		if (pinctrl)
     ee2:	10 97       	sbiw	r26, 0x00	; 0
     ee4:	41 f0       	breq	.+16     	; 0xef6 <hw_resolvePinData+0x50>
			*pinctrl = ((unsigned char *)&(myPort->PIN0CTRL)) + (hwPin & 0xf);
     ee6:	20 5f       	subi	r18, 0xF0	; 240
     ee8:	3f 4f       	sbci	r19, 0xFF	; 255
     eea:	89 2f       	mov	r24, r25
     eec:	8f 70       	andi	r24, 0x0F	; 15
     eee:	28 0f       	add	r18, r24
     ef0:	31 1d       	adc	r19, r1
     ef2:	2d 93       	st	X+, r18
     ef4:	3c 93       	st	X, r19
		// Wenn gewünscht auch noch die Pin-Nummer:
		if (pin)
     ef6:	20 97       	sbiw	r28, 0x00	; 0
     ef8:	11 f0       	breq	.+4      	; 0xefe <hw_resolvePinData+0x58>
			*pin = hwPin & 0xf;
     efa:	9f 70       	andi	r25, 0x0F	; 15
     efc:	98 83       	st	Y, r25
		return hwPin + 1; // Add one to not give back "0" (false "pin not available" indication)
	}
	return 0;
}
     efe:	81 2f       	mov	r24, r17
     f00:	df 91       	pop	r29
     f02:	cf 91       	pop	r28
     f04:	1f 91       	pop	r17
     f06:	08 95       	ret

00000f08 <hw_getPinData>:
#include <avr/pgmspace.h>

HW_DEF_t hwDef;

// Aus der UserSignature den richtigen Pin auslesen:
unsigned char hw_getPinData(unsigned char pinID, PORT_t ** port, unsigned char ** pinctrl, unsigned char * pin) {
     f08:	98 2f       	mov	r25, r24
	unsigned char hwPin;
	// Heraussuchen, welchen Pin wir meinen:
	if (pinID < hwDef.hwDefLen) {
     f0a:	80 91 09 2a 	lds	r24, 0x2A09
     f0e:	98 17       	cp	r25, r24
     f10:	c8 f4       	brcc	.+50     	; 0xf44 <hw_getPinData+0x3c>
		switch (hwDef.memType) {
     f12:	80 91 08 2a 	lds	r24, 0x2A08
     f16:	81 30       	cpi	r24, 0x01	; 1
     f18:	19 f0       	breq	.+6      	; 0xf20 <hw_getPinData+0x18>
     f1a:	82 30       	cpi	r24, 0x02	; 2
     f1c:	99 f4       	brne	.+38     	; 0xf44 <hw_getPinData+0x3c>
     f1e:	08 c0       	rjmp	.+16     	; 0xf30 <hw_getPinData+0x28>
			case MEM_TYPE_NOTFOUND:
				return 0;
			case MEM_TYPE_PROGMEM:
				hwPin = pgm_read_byte(&hwDef.usedHwDef[pinID]);
     f20:	e0 91 06 2a 	lds	r30, 0x2A06
     f24:	f0 91 07 2a 	lds	r31, 0x2A07
     f28:	e9 0f       	add	r30, r25
     f2a:	f1 1d       	adc	r31, r1
     f2c:	84 91       	lpm	r24, Z+
     f2e:	07 c0       	rjmp	.+14     	; 0xf3e <hw_getPinData+0x36>
				break;
			case MEM_TYPE_RAM:
				hwPin = hwDef.usedHwDef[pinID];
     f30:	e0 91 06 2a 	lds	r30, 0x2A06
     f34:	f0 91 07 2a 	lds	r31, 0x2A07
     f38:	e9 0f       	add	r30, r25
     f3a:	f1 1d       	adc	r31, r1
     f3c:	80 81       	ld	r24, Z
			case MEM_TYPE_DEFAULT:
				return 0;
			default:
				return 0;
		}
		return hw_resolvePinData(hwPin, port, pinctrl, pin);
     f3e:	0e 94 53 07 	call	0xea6	; 0xea6 <hw_resolvePinData>
     f42:	08 95       	ret
     f44:	80 e0       	ldi	r24, 0x00	; 0
	}
	return 0;
}
     f46:	08 95       	ret

00000f48 <hw_setOn>:
		return hwPin + 1; // Add one to not give back "0" (false "pin not available" indication)
	}
	return 0;
}

void hw_setOn(unsigned char pinID) {
     f48:	df 93       	push	r29
     f4a:	cf 93       	push	r28
     f4c:	00 d0       	rcall	.+0      	; 0xf4e <hw_setOn+0x6>
     f4e:	cd b7       	in	r28, 0x3d	; 61
     f50:	de b7       	in	r29, 0x3e	; 62
	PORT_t * port;
	unsigned char pin;
	if (hw_getPinData(pinID, &port, 0, &pin))
     f52:	be 01       	movw	r22, r28
     f54:	6e 5f       	subi	r22, 0xFE	; 254
     f56:	7f 4f       	sbci	r23, 0xFF	; 255
     f58:	40 e0       	ldi	r20, 0x00	; 0
     f5a:	50 e0       	ldi	r21, 0x00	; 0
     f5c:	9e 01       	movw	r18, r28
     f5e:	2f 5f       	subi	r18, 0xFF	; 255
     f60:	3f 4f       	sbci	r19, 0xFF	; 255
     f62:	0e 94 84 07 	call	0xf08	; 0xf08 <hw_getPinData>
     f66:	88 23       	and	r24, r24
     f68:	59 f0       	breq	.+22     	; 0xf80 <hw_setOn+0x38>
		port->OUTSET = (1 << pin);
     f6a:	ea 81       	ldd	r30, Y+2	; 0x02
     f6c:	fb 81       	ldd	r31, Y+3	; 0x03
     f6e:	81 e0       	ldi	r24, 0x01	; 1
     f70:	90 e0       	ldi	r25, 0x00	; 0
     f72:	09 80       	ldd	r0, Y+1	; 0x01
     f74:	02 c0       	rjmp	.+4      	; 0xf7a <hw_setOn+0x32>
     f76:	88 0f       	add	r24, r24
     f78:	99 1f       	adc	r25, r25
     f7a:	0a 94       	dec	r0
     f7c:	e2 f7       	brpl	.-8      	; 0xf76 <hw_setOn+0x2e>
     f7e:	85 83       	std	Z+5, r24	; 0x05
}
     f80:	23 96       	adiw	r28, 0x03	; 3
     f82:	cd bf       	out	0x3d, r28	; 61
     f84:	de bf       	out	0x3e, r29	; 62
     f86:	cf 91       	pop	r28
     f88:	df 91       	pop	r29
     f8a:	08 95       	ret

00000f8c <hw_setOff>:

void hw_setOff(unsigned char pinID) {
     f8c:	df 93       	push	r29
     f8e:	cf 93       	push	r28
     f90:	00 d0       	rcall	.+0      	; 0xf92 <hw_setOff+0x6>
     f92:	cd b7       	in	r28, 0x3d	; 61
     f94:	de b7       	in	r29, 0x3e	; 62
	PORT_t * port;
	unsigned char pin;
	if (hw_getPinData(pinID, &port, 0, &pin))
     f96:	be 01       	movw	r22, r28
     f98:	6e 5f       	subi	r22, 0xFE	; 254
     f9a:	7f 4f       	sbci	r23, 0xFF	; 255
     f9c:	40 e0       	ldi	r20, 0x00	; 0
     f9e:	50 e0       	ldi	r21, 0x00	; 0
     fa0:	9e 01       	movw	r18, r28
     fa2:	2f 5f       	subi	r18, 0xFF	; 255
     fa4:	3f 4f       	sbci	r19, 0xFF	; 255
     fa6:	0e 94 84 07 	call	0xf08	; 0xf08 <hw_getPinData>
     faa:	88 23       	and	r24, r24
     fac:	59 f0       	breq	.+22     	; 0xfc4 <hw_setOff+0x38>
		port->OUTCLR = (1 << pin);
     fae:	ea 81       	ldd	r30, Y+2	; 0x02
     fb0:	fb 81       	ldd	r31, Y+3	; 0x03
     fb2:	81 e0       	ldi	r24, 0x01	; 1
     fb4:	90 e0       	ldi	r25, 0x00	; 0
     fb6:	09 80       	ldd	r0, Y+1	; 0x01
     fb8:	02 c0       	rjmp	.+4      	; 0xfbe <hw_setOff+0x32>
     fba:	88 0f       	add	r24, r24
     fbc:	99 1f       	adc	r25, r25
     fbe:	0a 94       	dec	r0
     fc0:	e2 f7       	brpl	.-8      	; 0xfba <hw_setOff+0x2e>
     fc2:	86 83       	std	Z+6, r24	; 0x06
}
     fc4:	23 96       	adiw	r28, 0x03	; 3
     fc6:	cd bf       	out	0x3d, r28	; 61
     fc8:	de bf       	out	0x3e, r29	; 62
     fca:	cf 91       	pop	r28
     fcc:	df 91       	pop	r29
     fce:	08 95       	ret

00000fd0 <hw_isOn>:

unsigned char hw_isOn(unsigned char pinID) {
     fd0:	df 93       	push	r29
     fd2:	cf 93       	push	r28
     fd4:	00 d0       	rcall	.+0      	; 0xfd6 <hw_isOn+0x6>
     fd6:	cd b7       	in	r28, 0x3d	; 61
     fd8:	de b7       	in	r29, 0x3e	; 62
	PORT_t * port;
	unsigned char pin;
	if (hw_getPinData(pinID, &port, 0, &pin))
     fda:	be 01       	movw	r22, r28
     fdc:	6e 5f       	subi	r22, 0xFE	; 254
     fde:	7f 4f       	sbci	r23, 0xFF	; 255
     fe0:	40 e0       	ldi	r20, 0x00	; 0
     fe2:	50 e0       	ldi	r21, 0x00	; 0
     fe4:	9e 01       	movw	r18, r28
     fe6:	2f 5f       	subi	r18, 0xFF	; 255
     fe8:	3f 4f       	sbci	r19, 0xFF	; 255
     fea:	0e 94 84 07 	call	0xf08	; 0xf08 <hw_getPinData>
     fee:	88 23       	and	r24, r24
     ff0:	59 f0       	breq	.+22     	; 0x1008 <hw_isOn+0x38>
		return (port->IN >> pin) & 1;
     ff2:	ea 81       	ldd	r30, Y+2	; 0x02
     ff4:	fb 81       	ldd	r31, Y+3	; 0x03
     ff6:	80 85       	ldd	r24, Z+8	; 0x08
     ff8:	90 e0       	ldi	r25, 0x00	; 0
     ffa:	09 80       	ldd	r0, Y+1	; 0x01
     ffc:	02 c0       	rjmp	.+4      	; 0x1002 <hw_isOn+0x32>
     ffe:	95 95       	asr	r25
    1000:	87 95       	ror	r24
    1002:	0a 94       	dec	r0
    1004:	e2 f7       	brpl	.-8      	; 0xffe <hw_isOn+0x2e>
    1006:	81 70       	andi	r24, 0x01	; 1
	return 0;
}
    1008:	23 96       	adiw	r28, 0x03	; 3
    100a:	cd bf       	out	0x3d, r28	; 61
    100c:	de bf       	out	0x3e, r29	; 62
    100e:	cf 91       	pop	r28
    1010:	df 91       	pop	r29
    1012:	08 95       	ret

00001014 <hw_setOutput>:

void hw_setOutput(unsigned char pinID) {
    1014:	df 93       	push	r29
    1016:	cf 93       	push	r28
    1018:	00 d0       	rcall	.+0      	; 0x101a <hw_setOutput+0x6>
    101a:	cd b7       	in	r28, 0x3d	; 61
    101c:	de b7       	in	r29, 0x3e	; 62
	PORT_t * port;
	unsigned char pin;
	if (hw_getPinData(pinID, &port, 0, &pin))
    101e:	be 01       	movw	r22, r28
    1020:	6e 5f       	subi	r22, 0xFE	; 254
    1022:	7f 4f       	sbci	r23, 0xFF	; 255
    1024:	40 e0       	ldi	r20, 0x00	; 0
    1026:	50 e0       	ldi	r21, 0x00	; 0
    1028:	9e 01       	movw	r18, r28
    102a:	2f 5f       	subi	r18, 0xFF	; 255
    102c:	3f 4f       	sbci	r19, 0xFF	; 255
    102e:	0e 94 84 07 	call	0xf08	; 0xf08 <hw_getPinData>
    1032:	88 23       	and	r24, r24
    1034:	59 f0       	breq	.+22     	; 0x104c <hw_setOutput+0x38>
		port->DIRSET = (1 << pin);
    1036:	ea 81       	ldd	r30, Y+2	; 0x02
    1038:	fb 81       	ldd	r31, Y+3	; 0x03
    103a:	81 e0       	ldi	r24, 0x01	; 1
    103c:	90 e0       	ldi	r25, 0x00	; 0
    103e:	09 80       	ldd	r0, Y+1	; 0x01
    1040:	02 c0       	rjmp	.+4      	; 0x1046 <hw_setOutput+0x32>
    1042:	88 0f       	add	r24, r24
    1044:	99 1f       	adc	r25, r25
    1046:	0a 94       	dec	r0
    1048:	e2 f7       	brpl	.-8      	; 0x1042 <hw_setOutput+0x2e>
    104a:	81 83       	std	Z+1, r24	; 0x01
}
    104c:	23 96       	adiw	r28, 0x03	; 3
    104e:	cd bf       	out	0x3d, r28	; 61
    1050:	de bf       	out	0x3e, r29	; 62
    1052:	cf 91       	pop	r28
    1054:	df 91       	pop	r29
    1056:	08 95       	ret

00001058 <hw_setInput>:

void hw_setInput(unsigned char pinID) {
    1058:	df 93       	push	r29
    105a:	cf 93       	push	r28
    105c:	00 d0       	rcall	.+0      	; 0x105e <hw_setInput+0x6>
    105e:	cd b7       	in	r28, 0x3d	; 61
    1060:	de b7       	in	r29, 0x3e	; 62
	PORT_t * port;
	unsigned char pin;
	if (hw_getPinData(pinID, &port, 0, &pin))
    1062:	be 01       	movw	r22, r28
    1064:	6e 5f       	subi	r22, 0xFE	; 254
    1066:	7f 4f       	sbci	r23, 0xFF	; 255
    1068:	40 e0       	ldi	r20, 0x00	; 0
    106a:	50 e0       	ldi	r21, 0x00	; 0
    106c:	9e 01       	movw	r18, r28
    106e:	2f 5f       	subi	r18, 0xFF	; 255
    1070:	3f 4f       	sbci	r19, 0xFF	; 255
    1072:	0e 94 84 07 	call	0xf08	; 0xf08 <hw_getPinData>
    1076:	88 23       	and	r24, r24
    1078:	59 f0       	breq	.+22     	; 0x1090 <hw_setInput+0x38>
		port->DIRCLR = (1 << pin);
    107a:	ea 81       	ldd	r30, Y+2	; 0x02
    107c:	fb 81       	ldd	r31, Y+3	; 0x03
    107e:	81 e0       	ldi	r24, 0x01	; 1
    1080:	90 e0       	ldi	r25, 0x00	; 0
    1082:	09 80       	ldd	r0, Y+1	; 0x01
    1084:	02 c0       	rjmp	.+4      	; 0x108a <hw_setInput+0x32>
    1086:	88 0f       	add	r24, r24
    1088:	99 1f       	adc	r25, r25
    108a:	0a 94       	dec	r0
    108c:	e2 f7       	brpl	.-8      	; 0x1086 <hw_setInput+0x2e>
    108e:	82 83       	std	Z+2, r24	; 0x02
}
    1090:	23 96       	adiw	r28, 0x03	; 3
    1092:	cd bf       	out	0x3d, r28	; 61
    1094:	de bf       	out	0x3e, r29	; 62
    1096:	cf 91       	pop	r28
    1098:	df 91       	pop	r29
    109a:	08 95       	ret

0000109c <hw_setOPC>:

void hw_setOPC(unsigned char pinID, unsigned char opc) {
    109c:	1f 93       	push	r17
    109e:	df 93       	push	r29
    10a0:	cf 93       	push	r28
    10a2:	0f 92       	push	r0
    10a4:	0f 92       	push	r0
    10a6:	cd b7       	in	r28, 0x3d	; 61
    10a8:	de b7       	in	r29, 0x3e	; 62
    10aa:	16 2f       	mov	r17, r22
	unsigned char * pinctrl;
	if (hw_getPinData(pinID, 0, &pinctrl, 0))
    10ac:	60 e0       	ldi	r22, 0x00	; 0
    10ae:	70 e0       	ldi	r23, 0x00	; 0
    10b0:	ae 01       	movw	r20, r28
    10b2:	4f 5f       	subi	r20, 0xFF	; 255
    10b4:	5f 4f       	sbci	r21, 0xFF	; 255
    10b6:	20 e0       	ldi	r18, 0x00	; 0
    10b8:	30 e0       	ldi	r19, 0x00	; 0
    10ba:	0e 94 84 07 	call	0xf08	; 0xf08 <hw_getPinData>
    10be:	88 23       	and	r24, r24
    10c0:	31 f0       	breq	.+12     	; 0x10ce <hw_setOPC+0x32>
		*pinctrl = (*pinctrl & ~(PORT_OPC_gm)) | opc;
    10c2:	e9 81       	ldd	r30, Y+1	; 0x01
    10c4:	fa 81       	ldd	r31, Y+2	; 0x02
    10c6:	80 81       	ld	r24, Z
    10c8:	87 7c       	andi	r24, 0xC7	; 199
    10ca:	81 2b       	or	r24, r17
    10cc:	80 83       	st	Z, r24
}
    10ce:	0f 90       	pop	r0
    10d0:	0f 90       	pop	r0
    10d2:	cf 91       	pop	r28
    10d4:	df 91       	pop	r29
    10d6:	1f 91       	pop	r17
    10d8:	08 95       	ret

000010da <hw_setInvert>:

void hw_setInvert(unsigned char pinID, unsigned char do_invert) {
    10da:	1f 93       	push	r17
    10dc:	df 93       	push	r29
    10de:	cf 93       	push	r28
    10e0:	0f 92       	push	r0
    10e2:	0f 92       	push	r0
    10e4:	cd b7       	in	r28, 0x3d	; 61
    10e6:	de b7       	in	r29, 0x3e	; 62
    10e8:	16 2f       	mov	r17, r22
	unsigned char * pinctrl;
	if (hw_getPinData(pinID, 0, &pinctrl, 0)) {
    10ea:	60 e0       	ldi	r22, 0x00	; 0
    10ec:	70 e0       	ldi	r23, 0x00	; 0
    10ee:	ae 01       	movw	r20, r28
    10f0:	4f 5f       	subi	r20, 0xFF	; 255
    10f2:	5f 4f       	sbci	r21, 0xFF	; 255
    10f4:	20 e0       	ldi	r18, 0x00	; 0
    10f6:	30 e0       	ldi	r19, 0x00	; 0
    10f8:	0e 94 84 07 	call	0xf08	; 0xf08 <hw_getPinData>
    10fc:	88 23       	and	r24, r24
    10fe:	51 f0       	breq	.+20     	; 0x1114 <hw_setInvert+0x3a>
    1100:	e9 81       	ldd	r30, Y+1	; 0x01
    1102:	fa 81       	ldd	r31, Y+2	; 0x02
		if (do_invert) {
    1104:	11 23       	and	r17, r17
    1106:	19 f0       	breq	.+6      	; 0x110e <hw_setInvert+0x34>
			*pinctrl |= PORT_INVEN_bm;
    1108:	80 81       	ld	r24, Z
    110a:	80 64       	ori	r24, 0x40	; 64
    110c:	02 c0       	rjmp	.+4      	; 0x1112 <hw_setInvert+0x38>
		} else {
			*pinctrl &= ~(PORT_INVEN_bm);
    110e:	80 81       	ld	r24, Z
    1110:	8f 7b       	andi	r24, 0xBF	; 191
    1112:	80 83       	st	Z, r24
		}
	}
}
    1114:	0f 90       	pop	r0
    1116:	0f 90       	pop	r0
    1118:	cf 91       	pop	r28
    111a:	df 91       	pop	r29
    111c:	1f 91       	pop	r17
    111e:	08 95       	ret

00001120 <hw_setLimitSlewRate>:

void hw_setLimitSlewRate(unsigned char pinID, unsigned char do_limit) {
    1120:	1f 93       	push	r17
    1122:	df 93       	push	r29
    1124:	cf 93       	push	r28
    1126:	0f 92       	push	r0
    1128:	0f 92       	push	r0
    112a:	cd b7       	in	r28, 0x3d	; 61
    112c:	de b7       	in	r29, 0x3e	; 62
    112e:	16 2f       	mov	r17, r22
	unsigned char * pinctrl;
	if (hw_getPinData(pinID, 0, &pinctrl, 0)) {
    1130:	60 e0       	ldi	r22, 0x00	; 0
    1132:	70 e0       	ldi	r23, 0x00	; 0
    1134:	ae 01       	movw	r20, r28
    1136:	4f 5f       	subi	r20, 0xFF	; 255
    1138:	5f 4f       	sbci	r21, 0xFF	; 255
    113a:	20 e0       	ldi	r18, 0x00	; 0
    113c:	30 e0       	ldi	r19, 0x00	; 0
    113e:	0e 94 84 07 	call	0xf08	; 0xf08 <hw_getPinData>
    1142:	88 23       	and	r24, r24
    1144:	51 f0       	breq	.+20     	; 0x115a <hw_setLimitSlewRate+0x3a>
    1146:	e9 81       	ldd	r30, Y+1	; 0x01
    1148:	fa 81       	ldd	r31, Y+2	; 0x02
		if (do_limit) {
    114a:	11 23       	and	r17, r17
    114c:	19 f0       	breq	.+6      	; 0x1154 <hw_setLimitSlewRate+0x34>
			*pinctrl |= PORT_SRLEN_bm;
    114e:	80 81       	ld	r24, Z
    1150:	80 68       	ori	r24, 0x80	; 128
    1152:	02 c0       	rjmp	.+4      	; 0x1158 <hw_setLimitSlewRate+0x38>
		} else {
			*pinctrl &= ~(PORT_SRLEN_bm);
    1154:	80 81       	ld	r24, Z
    1156:	8f 77       	andi	r24, 0x7F	; 127
    1158:	80 83       	st	Z, r24
		}
	}
}
    115a:	0f 90       	pop	r0
    115c:	0f 90       	pop	r0
    115e:	cf 91       	pop	r28
    1160:	df 91       	pop	r29
    1162:	1f 91       	pop	r17
    1164:	08 95       	ret

00001166 <hw_isPinAvailable>:

unsigned char hw_isPinAvailable(unsigned char pinID) {
	return hw_getPinData(pinID, 0, 0, 0);
    1166:	60 e0       	ldi	r22, 0x00	; 0
    1168:	70 e0       	ldi	r23, 0x00	; 0
    116a:	40 e0       	ldi	r20, 0x00	; 0
    116c:	50 e0       	ldi	r21, 0x00	; 0
    116e:	20 e0       	ldi	r18, 0x00	; 0
    1170:	30 e0       	ldi	r19, 0x00	; 0
    1172:	0e 94 84 07 	call	0xf08	; 0xf08 <hw_getPinData>
}
    1176:	08 95       	ret

00001178 <hw_getHardwareVersion>:





unsigned char hw_getHardwareVersion(unsigned char defaultVersion) {
    1178:	68 2f       	mov	r22, r24
	unsigned char c1;
	unsigned char c2;
	unsigned int hwVersion;
	
	c1 = pgm_read_byte_far(BOOT_SECTION_START - 3);	// Byte-3 vor dem Bootloader
    117a:	8d ef       	ldi	r24, 0xFD	; 253
    117c:	9f ef       	ldi	r25, 0xFF	; 255
    117e:	a1 e0       	ldi	r26, 0x01	; 1
    1180:	b0 e0       	ldi	r27, 0x00	; 0
    1182:	0b b6       	in	r0, 0x3b	; 59
    1184:	ab bf       	out	0x3b, r26	; 59
    1186:	fc 01       	movw	r30, r24
    1188:	27 91       	elpm	r18, Z+
    118a:	0b be       	out	0x3b, r0	; 59
	c2 = pgm_read_byte_far(BOOT_SECTION_START - 2);	// Byte-2 vor dem Bootloader
    118c:	8e ef       	ldi	r24, 0xFE	; 254
    118e:	9f ef       	ldi	r25, 0xFF	; 255
    1190:	a1 e0       	ldi	r26, 0x01	; 1
    1192:	b0 e0       	ldi	r27, 0x00	; 0
    1194:	0b b6       	in	r0, 0x3b	; 59
    1196:	ab bf       	out	0x3b, r26	; 59
    1198:	fc 01       	movw	r30, r24
    119a:	87 91       	elpm	r24, Z+
    119c:	0b be       	out	0x3b, r0	; 59
	
	hwVersion = ((unsigned int)c2 << 8) | c1;
	if (c1 == (c2 ^ 0xff))
    119e:	80 95       	com	r24
    11a0:	28 17       	cp	r18, r24
    11a2:	11 f4       	brne	.+4      	; 0x11a8 <hw_getHardwareVersion+0x30>
    11a4:	82 2f       	mov	r24, r18
    11a6:	08 95       	ret
		return c1;
	
	// Alternativ müssen wir im Bootloader-Bereich nachgucken. Das KANN allerdings ein Problem werden, wenn die Fuses gesperrt sind..
	c1 = pgm_read_byte_far(0x201f4UL);	// Byte direkt nach dem Vektor-Table des Bootloaders
    11a8:	84 ef       	ldi	r24, 0xF4	; 244
    11aa:	91 e0       	ldi	r25, 0x01	; 1
    11ac:	a2 e0       	ldi	r26, 0x02	; 2
    11ae:	b0 e0       	ldi	r27, 0x00	; 0
    11b0:	0b b6       	in	r0, 0x3b	; 59
    11b2:	ab bf       	out	0x3b, r26	; 59
    11b4:	fc 01       	movw	r30, r24
    11b6:	57 91       	elpm	r21, Z+
    11b8:	0b be       	out	0x3b, r0	; 59
	c2 = pgm_read_byte_far(0x201f5UL);	// +1 Byte (wegen Alignment frei gehalten)
    11ba:	85 ef       	ldi	r24, 0xF5	; 245
    11bc:	91 e0       	ldi	r25, 0x01	; 1
    11be:	a2 e0       	ldi	r26, 0x02	; 2
    11c0:	b0 e0       	ldi	r27, 0x00	; 0
    11c2:	0b b6       	in	r0, 0x3b	; 59
    11c4:	ab bf       	out	0x3b, r26	; 59
    11c6:	fc 01       	movw	r30, r24
    11c8:	47 91       	elpm	r20, Z+
    11ca:	0b be       	out	0x3b, r0	; 59
	
	hwVersion = ((unsigned int)c2 << 8) | c1;
    11cc:	94 2f       	mov	r25, r20
    11ce:	80 e0       	ldi	r24, 0x00	; 0
    11d0:	25 2f       	mov	r18, r21
    11d2:	30 e0       	ldi	r19, 0x00	; 0
    11d4:	28 2b       	or	r18, r24
    11d6:	39 2b       	or	r19, r25
	// hwVersion 0x2411 ist der normale Boot-Code bevor wir die HW-Version in den Bootloader integriert hatten! Der Wert muss also auf Version "0" führen:
	if (hwVersion == 0x2411)
    11d8:	84 e2       	ldi	r24, 0x24	; 36
    11da:	21 31       	cpi	r18, 0x11	; 17
    11dc:	38 07       	cpc	r19, r24
    11de:	51 f0       	breq	.+20     	; 0x11f4 <hw_getHardwareVersion+0x7c>
		return defaultVersion;
	if (hwVersion == 0xffff)	// Kein Bootloader da
    11e0:	2f 5f       	subi	r18, 0xFF	; 255
    11e2:	3f 4f       	sbci	r19, 0xFF	; 255
    11e4:	39 f0       	breq	.+14     	; 0x11f4 <hw_getHardwareVersion+0x7c>
		return defaultVersion;
	// c1 exor c2 muss genau 0xff sein (c1 genau komplement von c2)
	if (c1 != (c2 ^ 0xff))
    11e6:	40 95       	com	r20
    11e8:	54 17       	cp	r21, r20
    11ea:	11 f4       	brne	.+4      	; 0x11f0 <hw_getHardwareVersion+0x78>
    11ec:	85 2f       	mov	r24, r21
    11ee:	08 95       	ret
    11f0:	8f ef       	ldi	r24, 0xFF	; 255
    11f2:	08 95       	ret
    11f4:	86 2f       	mov	r24, r22
		return 0xff;
	return c1;
}
    11f6:	08 95       	ret

000011f8 <hw_switchHardwareDefinitions>:

void hw_switchHardwareDefinitions(void) {
    11f8:	ef 92       	push	r14
    11fa:	ff 92       	push	r15
    11fc:	0f 93       	push	r16
    11fe:	1f 93       	push	r17
    1200:	df 93       	push	r29
    1202:	cf 93       	push	r28
    1204:	0f 92       	push	r0
    1206:	0f 92       	push	r0
    1208:	cd b7       	in	r28, 0x3d	; 61
    120a:	de b7       	in	r29, 0x3e	; 62
	unsigned char * pinctrl;
	unsigned char * doInitPulldown = 0;
	unsigned char doInitPulldownLen = 0;
	unsigned char i;
	
	hwDef.memType = MEM_TYPE_PROGMEM;
    120c:	81 e0       	ldi	r24, 0x01	; 1
    120e:	80 93 08 2a 	sts	0x2A08, r24
	hwDef.usedHwDef = &hwDefinition_iPark[0];
    1212:	84 ef       	ldi	r24, 0xF4	; 244
    1214:	91 e0       	ldi	r25, 0x01	; 1
    1216:	80 93 06 2a 	sts	0x2A06, r24
    121a:	90 93 07 2a 	sts	0x2A07, r25
	hwDef.hwDefLen = sizeof(hwDefinition_iPark) / sizeof(hwDefinition_iPark[0]);
    121e:	8c e2       	ldi	r24, 0x2C	; 44
    1220:	80 93 09 2a 	sts	0x2A09, r24
	doInitPulldown = &hwDefinition_iPark_WeakPullDown[0];
	doInitPulldownLen = sizeof(hwDefinition_iPark_WeakPullDown) / sizeof(hwDefinition_iPark_WeakPullDown[0]);
	hwDef.usartPC = &USARTC0;
    1224:	80 ea       	ldi	r24, 0xA0	; 160
    1226:	98 e0       	ldi	r25, 0x08	; 8
    1228:	80 93 0a 2a 	sts	0x2A0A, r24
    122c:	90 93 0b 2a 	sts	0x2A0B, r25
    1230:	00 e2       	ldi	r16, 0x20	; 32
    1232:	12 e0       	ldi	r17, 0x02	; 2
	//hwDef.adcInfo = (ADC_CTRL_t*)&hwDefinitions_AM1_ADCInfo[0];
	
	// Nicht benutzte Pins hier schon auf Pulldown schalten:
	for (i=0;i<doInitPulldownLen;i++) {
		// Raussuchen wo der Pin-Control-Block liegt:
		if (hw_getPinData(doInitPulldown[i], 0, &pinctrl, 0)) {
    1234:	7e 01       	movw	r14, r28
    1236:	08 94       	sec
    1238:	e1 1c       	adc	r14, r1
    123a:	f1 1c       	adc	r15, r1
    123c:	f8 01       	movw	r30, r16
    123e:	80 81       	ld	r24, Z
    1240:	60 e0       	ldi	r22, 0x00	; 0
    1242:	70 e0       	ldi	r23, 0x00	; 0
    1244:	a7 01       	movw	r20, r14
    1246:	20 e0       	ldi	r18, 0x00	; 0
    1248:	30 e0       	ldi	r19, 0x00	; 0
    124a:	0e 94 84 07 	call	0xf08	; 0xf08 <hw_getPinData>
    124e:	88 23       	and	r24, r24
    1250:	31 f0       	breq	.+12     	; 0x125e <hw_switchHardwareDefinitions+0x66>
			// Und dann den Pin-Control-Block entsprechend bearbeiten um den Pulldown zu erreichen:
			*pinctrl = (*pinctrl & ~(PORT_OPC_gm)) | PORT_OPC_PULLDOWN_gc;
    1252:	e9 81       	ldd	r30, Y+1	; 0x01
    1254:	fa 81       	ldd	r31, Y+2	; 0x02
    1256:	80 81       	ld	r24, Z
    1258:	87 7c       	andi	r24, 0xC7	; 199
    125a:	80 61       	ori	r24, 0x10	; 16
    125c:	80 83       	st	Z, r24
    125e:	0f 5f       	subi	r16, 0xFF	; 255
    1260:	1f 4f       	sbci	r17, 0xFF	; 255
	doInitPulldownLen = sizeof(hwDefinition_iPark_WeakPullDown) / sizeof(hwDefinition_iPark_WeakPullDown[0]);
	hwDef.usartPC = &USARTC0;
	//hwDef.adcInfo = (ADC_CTRL_t*)&hwDefinitions_AM1_ADCInfo[0];
	
	// Nicht benutzte Pins hier schon auf Pulldown schalten:
	for (i=0;i<doInitPulldownLen;i++) {
    1262:	f2 e0       	ldi	r31, 0x02	; 2
    1264:	09 32       	cpi	r16, 0x29	; 41
    1266:	1f 07       	cpc	r17, r31
    1268:	49 f7       	brne	.-46     	; 0x123c <hw_switchHardwareDefinitions+0x44>
		if (hw_getPinData(doInitPulldown[i], 0, &pinctrl, 0)) {
			// Und dann den Pin-Control-Block entsprechend bearbeiten um den Pulldown zu erreichen:
			*pinctrl = (*pinctrl & ~(PORT_OPC_gm)) | PORT_OPC_PULLDOWN_gc;
		}
	}
}
    126a:	0f 90       	pop	r0
    126c:	0f 90       	pop	r0
    126e:	cf 91       	pop	r28
    1270:	df 91       	pop	r29
    1272:	1f 91       	pop	r17
    1274:	0f 91       	pop	r16
    1276:	ff 90       	pop	r15
    1278:	ef 90       	pop	r14
    127a:	08 95       	ret

0000127c <hw_init>:

void hw_init() {
	hw_switchHardwareDefinitions();
    127c:	0e 94 fc 08 	call	0x11f8	; 0x11f8 <hw_switchHardwareDefinitions>
	
	// Pins richtig setzen

	// LEDs:
	SET_INVERT(LED0, 1); SET_OUTPUT(LED0);
    1280:	81 e0       	ldi	r24, 0x01	; 1
    1282:	61 e0       	ldi	r22, 0x01	; 1
    1284:	0e 94 6d 08 	call	0x10da	; 0x10da <hw_setInvert>
    1288:	81 e0       	ldi	r24, 0x01	; 1
    128a:	0e 94 0a 08 	call	0x1014	; 0x1014 <hw_setOutput>
	SET_INVERT(LED1, 1); SET_OUTPUT(LED1);
    128e:	82 e0       	ldi	r24, 0x02	; 2
    1290:	61 e0       	ldi	r22, 0x01	; 1
    1292:	0e 94 6d 08 	call	0x10da	; 0x10da <hw_setInvert>
    1296:	82 e0       	ldi	r24, 0x02	; 2
    1298:	0e 94 0a 08 	call	0x1014	; 0x1014 <hw_setOutput>
	SET_INVERT(LED2, 1); SET_OUTPUT(LED2);
    129c:	83 e0       	ldi	r24, 0x03	; 3
    129e:	61 e0       	ldi	r22, 0x01	; 1
    12a0:	0e 94 6d 08 	call	0x10da	; 0x10da <hw_setInvert>
    12a4:	83 e0       	ldi	r24, 0x03	; 3
    12a6:	0e 94 0a 08 	call	0x1014	; 0x1014 <hw_setOutput>
	SET_INVERT(LED3, 1); SET_OUTPUT(LED3);
    12aa:	84 e0       	ldi	r24, 0x04	; 4
    12ac:	61 e0       	ldi	r22, 0x01	; 1
    12ae:	0e 94 6d 08 	call	0x10da	; 0x10da <hw_setInvert>
    12b2:	84 e0       	ldi	r24, 0x04	; 4
    12b4:	0e 94 0a 08 	call	0x1014	; 0x1014 <hw_setOutput>
	SET_INVERT(LED4, 1); SET_OUTPUT(LED4);
    12b8:	85 e0       	ldi	r24, 0x05	; 5
    12ba:	61 e0       	ldi	r22, 0x01	; 1
    12bc:	0e 94 6d 08 	call	0x10da	; 0x10da <hw_setInvert>
    12c0:	85 e0       	ldi	r24, 0x05	; 5
    12c2:	0e 94 0a 08 	call	0x1014	; 0x1014 <hw_setOutput>
	SET_INVERT(LED5, 1); SET_OUTPUT(LED5);
    12c6:	86 e0       	ldi	r24, 0x06	; 6
    12c8:	61 e0       	ldi	r22, 0x01	; 1
    12ca:	0e 94 6d 08 	call	0x10da	; 0x10da <hw_setInvert>
    12ce:	86 e0       	ldi	r24, 0x06	; 6
    12d0:	0e 94 0a 08 	call	0x1014	; 0x1014 <hw_setOutput>
	SET_INVERT(LED6, 1); SET_OUTPUT(LED6);
    12d4:	87 e0       	ldi	r24, 0x07	; 7
    12d6:	61 e0       	ldi	r22, 0x01	; 1
    12d8:	0e 94 6d 08 	call	0x10da	; 0x10da <hw_setInvert>
    12dc:	87 e0       	ldi	r24, 0x07	; 7
    12de:	0e 94 0a 08 	call	0x1014	; 0x1014 <hw_setOutput>
	SET_INVERT(LED7, 1); SET_OUTPUT(LED7);
    12e2:	88 e0       	ldi	r24, 0x08	; 8
    12e4:	61 e0       	ldi	r22, 0x01	; 1
    12e6:	0e 94 6d 08 	call	0x10da	; 0x10da <hw_setInvert>
    12ea:	88 e0       	ldi	r24, 0x08	; 8
    12ec:	0e 94 0a 08 	call	0x1014	; 0x1014 <hw_setOutput>
	
	// Buttons:
	SET_PULLUP(KEY0); SET_INVERT(KEY0, 1);
    12f0:	89 e0       	ldi	r24, 0x09	; 9
    12f2:	68 e1       	ldi	r22, 0x18	; 24
    12f4:	0e 94 4e 08 	call	0x109c	; 0x109c <hw_setOPC>
    12f8:	89 e0       	ldi	r24, 0x09	; 9
    12fa:	61 e0       	ldi	r22, 0x01	; 1
    12fc:	0e 94 6d 08 	call	0x10da	; 0x10da <hw_setInvert>
	SET_PULLUP(KEY1); SET_INVERT(KEY1, 1);
    1300:	8a e0       	ldi	r24, 0x0A	; 10
    1302:	68 e1       	ldi	r22, 0x18	; 24
    1304:	0e 94 4e 08 	call	0x109c	; 0x109c <hw_setOPC>
    1308:	8a e0       	ldi	r24, 0x0A	; 10
    130a:	61 e0       	ldi	r22, 0x01	; 1
    130c:	0e 94 6d 08 	call	0x10da	; 0x10da <hw_setInvert>
	SET_PULLUP(KEY2); SET_INVERT(KEY2, 1);
    1310:	8b e0       	ldi	r24, 0x0B	; 11
    1312:	68 e1       	ldi	r22, 0x18	; 24
    1314:	0e 94 4e 08 	call	0x109c	; 0x109c <hw_setOPC>
    1318:	8b e0       	ldi	r24, 0x0B	; 11
    131a:	61 e0       	ldi	r22, 0x01	; 1
    131c:	0e 94 6d 08 	call	0x10da	; 0x10da <hw_setInvert>
	SET_PULLUP(KEY3); SET_INVERT(KEY3, 1);
    1320:	8c e0       	ldi	r24, 0x0C	; 12
    1322:	68 e1       	ldi	r22, 0x18	; 24
    1324:	0e 94 4e 08 	call	0x109c	; 0x109c <hw_setOPC>
    1328:	8c e0       	ldi	r24, 0x0C	; 12
    132a:	61 e0       	ldi	r22, 0x01	; 1
    132c:	0e 94 6d 08 	call	0x10da	; 0x10da <hw_setInvert>
	SET_PULLUP(KEY4); SET_INVERT(KEY4, 1);
    1330:	8d e0       	ldi	r24, 0x0D	; 13
    1332:	68 e1       	ldi	r22, 0x18	; 24
    1334:	0e 94 4e 08 	call	0x109c	; 0x109c <hw_setOPC>
    1338:	8d e0       	ldi	r24, 0x0D	; 13
    133a:	61 e0       	ldi	r22, 0x01	; 1
    133c:	0e 94 6d 08 	call	0x10da	; 0x10da <hw_setInvert>
	SET_PULLUP(KEY5); SET_INVERT(KEY5, 1);
    1340:	8e e0       	ldi	r24, 0x0E	; 14
    1342:	68 e1       	ldi	r22, 0x18	; 24
    1344:	0e 94 4e 08 	call	0x109c	; 0x109c <hw_setOPC>
    1348:	8e e0       	ldi	r24, 0x0E	; 14
    134a:	61 e0       	ldi	r22, 0x01	; 1
    134c:	0e 94 6d 08 	call	0x10da	; 0x10da <hw_setInvert>
	SET_PULLUP(KEY6); SET_INVERT(KEY6, 1);
    1350:	8f e0       	ldi	r24, 0x0F	; 15
    1352:	68 e1       	ldi	r22, 0x18	; 24
    1354:	0e 94 4e 08 	call	0x109c	; 0x109c <hw_setOPC>
    1358:	8f e0       	ldi	r24, 0x0F	; 15
    135a:	61 e0       	ldi	r22, 0x01	; 1
    135c:	0e 94 6d 08 	call	0x10da	; 0x10da <hw_setInvert>
	SET_PULLUP(KEY7); SET_INVERT(KEY7, 1);
    1360:	80 e1       	ldi	r24, 0x10	; 16
    1362:	68 e1       	ldi	r22, 0x18	; 24
    1364:	0e 94 4e 08 	call	0x109c	; 0x109c <hw_setOPC>
    1368:	80 e1       	ldi	r24, 0x10	; 16
    136a:	61 e0       	ldi	r22, 0x01	; 1
    136c:	0e 94 6d 08 	call	0x10da	; 0x10da <hw_setInvert>
	
	// UART zum PC:
	SET_INPUT(PC_UART_RX);
    1370:	82 e1       	ldi	r24, 0x12	; 18
    1372:	0e 94 2c 08 	call	0x1058	; 0x1058 <hw_setInput>
	SET_PULLUP(PC_UART_RX);
    1376:	82 e1       	ldi	r24, 0x12	; 18
    1378:	68 e1       	ldi	r22, 0x18	; 24
    137a:	0e 94 4e 08 	call	0x109c	; 0x109c <hw_setOPC>
	SET_OUTPUT(PC_UART_TX);
    137e:	81 e1       	ldi	r24, 0x11	; 17
    1380:	0e 94 0a 08 	call	0x1014	; 0x1014 <hw_setOutput>
	ON(PC_UART_TX);
    1384:	81 e1       	ldi	r24, 0x11	; 17
    1386:	0e 94 a4 07 	call	0xf48	; 0xf48 <hw_setOn>
	
	// EBI:
	ON(EBI_WE);
    138a:	83 e1       	ldi	r24, 0x13	; 19
    138c:	0e 94 a4 07 	call	0xf48	; 0xf48 <hw_setOn>
	SET_OUTPUT(EBI_WE);
    1390:	83 e1       	ldi	r24, 0x13	; 19
    1392:	0e 94 0a 08 	call	0x1014	; 0x1014 <hw_setOutput>
	ON(EBI_CAS);
    1396:	84 e1       	ldi	r24, 0x14	; 20
    1398:	0e 94 a4 07 	call	0xf48	; 0xf48 <hw_setOn>
	SET_OUTPUT(EBI_CAS);
    139c:	84 e1       	ldi	r24, 0x14	; 20
    139e:	0e 94 0a 08 	call	0x1014	; 0x1014 <hw_setOutput>
	ON(EBI_RAS);
    13a2:	85 e1       	ldi	r24, 0x15	; 21
    13a4:	0e 94 a4 07 	call	0xf48	; 0xf48 <hw_setOn>
	SET_OUTPUT(EBI_RAS);
    13a8:	85 e1       	ldi	r24, 0x15	; 21
    13aa:	0e 94 0a 08 	call	0x1014	; 0x1014 <hw_setOutput>
	ON(EBI_DQM);
    13ae:	86 e1       	ldi	r24, 0x16	; 22
    13b0:	0e 94 a4 07 	call	0xf48	; 0xf48 <hw_setOn>
	SET_OUTPUT(EBI_DQM);
    13b4:	86 e1       	ldi	r24, 0x16	; 22
    13b6:	0e 94 0a 08 	call	0x1014	; 0x1014 <hw_setOutput>
	OFF(EBI_BA0);
    13ba:	87 e1       	ldi	r24, 0x17	; 23
    13bc:	0e 94 c6 07 	call	0xf8c	; 0xf8c <hw_setOff>
	SET_OUTPUT(EBI_BA0);
    13c0:	87 e1       	ldi	r24, 0x17	; 23
    13c2:	0e 94 0a 08 	call	0x1014	; 0x1014 <hw_setOutput>
	OFF(EBI_BA1);
    13c6:	88 e1       	ldi	r24, 0x18	; 24
    13c8:	0e 94 c6 07 	call	0xf8c	; 0xf8c <hw_setOff>
	SET_OUTPUT(EBI_BA1);
    13cc:	88 e1       	ldi	r24, 0x18	; 24
    13ce:	0e 94 0a 08 	call	0x1014	; 0x1014 <hw_setOutput>
	OFF(EBI_CKE);
    13d2:	89 e1       	ldi	r24, 0x19	; 25
    13d4:	0e 94 c6 07 	call	0xf8c	; 0xf8c <hw_setOff>
	SET_OUTPUT(EBI_CKE);
    13d8:	89 e1       	ldi	r24, 0x19	; 25
    13da:	0e 94 0a 08 	call	0x1014	; 0x1014 <hw_setOutput>
	OFF(EBI_CLK);
    13de:	8a e1       	ldi	r24, 0x1A	; 26
    13e0:	0e 94 c6 07 	call	0xf8c	; 0xf8c <hw_setOff>
	SET_OUTPUT(EBI_CLK);
    13e4:	8a e1       	ldi	r24, 0x1A	; 26
    13e6:	0e 94 0a 08 	call	0x1014	; 0x1014 <hw_setOutput>
	
	SET_OUTPUT(EBI_A0);
    13ea:	8b e1       	ldi	r24, 0x1B	; 27
    13ec:	0e 94 0a 08 	call	0x1014	; 0x1014 <hw_setOutput>
	SET_OUTPUT(EBI_A1);
    13f0:	8c e1       	ldi	r24, 0x1C	; 28
    13f2:	0e 94 0a 08 	call	0x1014	; 0x1014 <hw_setOutput>
	SET_OUTPUT(EBI_A2);
    13f6:	8d e1       	ldi	r24, 0x1D	; 29
    13f8:	0e 94 0a 08 	call	0x1014	; 0x1014 <hw_setOutput>
	SET_OUTPUT(EBI_A3);
    13fc:	8e e1       	ldi	r24, 0x1E	; 30
    13fe:	0e 94 0a 08 	call	0x1014	; 0x1014 <hw_setOutput>
	SET_OUTPUT(EBI_A4);
    1402:	8f e1       	ldi	r24, 0x1F	; 31
    1404:	0e 94 0a 08 	call	0x1014	; 0x1014 <hw_setOutput>
	SET_OUTPUT(EBI_A5);
    1408:	80 e2       	ldi	r24, 0x20	; 32
    140a:	0e 94 0a 08 	call	0x1014	; 0x1014 <hw_setOutput>
	SET_OUTPUT(EBI_A6);
    140e:	81 e2       	ldi	r24, 0x21	; 33
    1410:	0e 94 0a 08 	call	0x1014	; 0x1014 <hw_setOutput>
	SET_OUTPUT(EBI_A7);
    1414:	82 e2       	ldi	r24, 0x22	; 34
    1416:	0e 94 0a 08 	call	0x1014	; 0x1014 <hw_setOutput>
	SET_OUTPUT(EBI_A8);
    141a:	83 e2       	ldi	r24, 0x23	; 35
    141c:	0e 94 0a 08 	call	0x1014	; 0x1014 <hw_setOutput>
	SET_OUTPUT(EBI_A9);
    1420:	84 e2       	ldi	r24, 0x24	; 36
    1422:	0e 94 0a 08 	call	0x1014	; 0x1014 <hw_setOutput>
	SET_OUTPUT(EBI_A10);
    1426:	85 e2       	ldi	r24, 0x25	; 37
    1428:	0e 94 0a 08 	call	0x1014	; 0x1014 <hw_setOutput>
	SET_OUTPUT(EBI_A11);
    142c:	86 e2       	ldi	r24, 0x26	; 38
    142e:	0e 94 0a 08 	call	0x1014	; 0x1014 <hw_setOutput>

	SET_OUTPUT(SERVO_A);
    1432:	87 e2       	ldi	r24, 0x27	; 39
    1434:	0e 94 0a 08 	call	0x1014	; 0x1014 <hw_setOutput>
	SET_OUTPUT(DISTANCE_START_MEASURING);
    1438:	89 e2       	ldi	r24, 0x29	; 41
    143a:	0e 94 0a 08 	call	0x1014	; 0x1014 <hw_setOutput>

	SET_OUTPUT(LIGHT_RED);
    143e:	8a e2       	ldi	r24, 0x2A	; 42
    1440:	0e 94 0a 08 	call	0x1014	; 0x1014 <hw_setOutput>
	SET_OUTPUT(LIGHT_GREEN);
    1444:	8b e2       	ldi	r24, 0x2B	; 43
    1446:	0e 94 0a 08 	call	0x1014	; 0x1014 <hw_setOutput>
}
    144a:	08 95       	ret

0000144c <rb_createBuffer>:

// ACHTUNG: DER PUFFER DARF NICHT MIT MEHR ALS 16 KB GRÖßE BETRIEBEN WERDEN!!

RB_BUFFER_t * rb_createBuffer(void * data, unsigned short int buflen) {
	RB_BUFFER_t * buf = (RB_BUFFER_t*)data;
	if (buflen > (sizeof(RB_BUFFER_t) + 2)) {
    144c:	6d 30       	cpi	r22, 0x0D	; 13
    144e:	71 05       	cpc	r23, r1
    1450:	18 f4       	brcc	.+6      	; 0x1458 <rb_createBuffer+0xc>
    1452:	e0 e0       	ldi	r30, 0x00	; 0
    1454:	f0 e0       	ldi	r31, 0x00	; 0
    1456:	0e c0       	rjmp	.+28     	; 0x1474 <rb_createBuffer+0x28>
// Größe ca: 344 Bytes

// ACHTUNG: DER PUFFER DARF NICHT MIT MEHR ALS 16 KB GRÖßE BETRIEBEN WERDEN!!

RB_BUFFER_t * rb_createBuffer(void * data, unsigned short int buflen) {
	RB_BUFFER_t * buf = (RB_BUFFER_t*)data;
    1458:	fc 01       	movw	r30, r24
	if (buflen > (sizeof(RB_BUFFER_t) + 2)) {
		buf->buffer = ((unsigned char *)data) + sizeof(RB_BUFFER_t);
    145a:	0a 96       	adiw	r24, 0x0a	; 10
    145c:	80 87       	std	Z+8, r24	; 0x08
    145e:	91 87       	std	Z+9, r25	; 0x09
		buf->readPosition = 0;
    1460:	10 82       	st	Z, r1
    1462:	11 82       	std	Z+1, r1	; 0x01
		buf->writePosition = 0;
    1464:	12 82       	std	Z+2, r1	; 0x02
    1466:	13 82       	std	Z+3, r1	; 0x03
		buf->size = 0;
    1468:	14 82       	std	Z+4, r1	; 0x04
    146a:	15 82       	std	Z+5, r1	; 0x05
		buf->maxSize = buflen - sizeof(RB_BUFFER_t);
    146c:	6a 50       	subi	r22, 0x0A	; 10
    146e:	70 40       	sbci	r23, 0x00	; 0
    1470:	66 83       	std	Z+6, r22	; 0x06
    1472:	77 83       	std	Z+7, r23	; 0x07
		return buf;
	} else {
		return (RB_BUFFER_t*)0;
	}
}
    1474:	cf 01       	movw	r24, r30
    1476:	08 95       	ret

00001478 <rb_peek>:

unsigned char rb_peek(RB_BUFFER_t * buf, unsigned short int position) {
    1478:	fc 01       	movw	r30, r24
	if (position < buf->size) {
    147a:	84 81       	ldd	r24, Z+4	; 0x04
    147c:	95 81       	ldd	r25, Z+5	; 0x05
    147e:	68 17       	cp	r22, r24
    1480:	79 07       	cpc	r23, r25
    1482:	10 f0       	brcs	.+4      	; 0x1488 <rb_peek+0x10>
    1484:	80 e0       	ldi	r24, 0x00	; 0
    1486:	08 95       	ret
		position += buf->readPosition;
    1488:	80 81       	ld	r24, Z
    148a:	91 81       	ldd	r25, Z+1	; 0x01
    148c:	86 0f       	add	r24, r22
    148e:	97 1f       	adc	r25, r23
		if (!(position < buf->maxSize))
    1490:	26 81       	ldd	r18, Z+6	; 0x06
    1492:	37 81       	ldd	r19, Z+7	; 0x07
    1494:	82 17       	cp	r24, r18
    1496:	93 07       	cpc	r25, r19
    1498:	10 f0       	brcs	.+4      	; 0x149e <rb_peek+0x26>
			position -= buf->maxSize;
    149a:	82 1b       	sub	r24, r18
    149c:	93 0b       	sbc	r25, r19
		return buf->buffer[position];
    149e:	00 84       	ldd	r0, Z+8	; 0x08
    14a0:	f1 85       	ldd	r31, Z+9	; 0x09
    14a2:	e0 2d       	mov	r30, r0
    14a4:	e8 0f       	add	r30, r24
    14a6:	f9 1f       	adc	r31, r25
    14a8:	80 81       	ld	r24, Z
	}
	return 0;
}
    14aa:	08 95       	ret

000014ac <rb_delete>:

void rb_delete(RB_BUFFER_t * buf, unsigned short int howMany) {
    14ac:	fc 01       	movw	r30, r24
	if (howMany && (howMany < buf->size)) {
    14ae:	61 15       	cp	r22, r1
    14b0:	71 05       	cpc	r23, r1
    14b2:	c9 f0       	breq	.+50     	; 0x14e6 <rb_delete+0x3a>
    14b4:	24 81       	ldd	r18, Z+4	; 0x04
    14b6:	35 81       	ldd	r19, Z+5	; 0x05
    14b8:	62 17       	cp	r22, r18
    14ba:	73 07       	cpc	r23, r19
    14bc:	a0 f4       	brcc	.+40     	; 0x14e6 <rb_delete+0x3a>
		buf->readPosition += howMany;
    14be:	80 81       	ld	r24, Z
    14c0:	91 81       	ldd	r25, Z+1	; 0x01
    14c2:	86 0f       	add	r24, r22
    14c4:	97 1f       	adc	r25, r23
    14c6:	80 83       	st	Z, r24
    14c8:	91 83       	std	Z+1, r25	; 0x01
		buf->size -= howMany;
    14ca:	26 1b       	sub	r18, r22
    14cc:	37 0b       	sbc	r19, r23
    14ce:	24 83       	std	Z+4, r18	; 0x04
    14d0:	35 83       	std	Z+5, r19	; 0x05
		if (!(buf->readPosition < buf->maxSize))
    14d2:	26 81       	ldd	r18, Z+6	; 0x06
    14d4:	37 81       	ldd	r19, Z+7	; 0x07
    14d6:	82 17       	cp	r24, r18
    14d8:	93 07       	cpc	r25, r19
    14da:	58 f0       	brcs	.+22     	; 0x14f2 <rb_delete+0x46>
			buf->readPosition -= buf->maxSize;
    14dc:	82 1b       	sub	r24, r18
    14de:	93 0b       	sbc	r25, r19
    14e0:	80 83       	st	Z, r24
    14e2:	91 83       	std	Z+1, r25	; 0x01
    14e4:	08 95       	ret
	} else { // Alles löschen
		buf->readPosition = buf->writePosition;
    14e6:	82 81       	ldd	r24, Z+2	; 0x02
    14e8:	93 81       	ldd	r25, Z+3	; 0x03
    14ea:	80 83       	st	Z, r24
    14ec:	91 83       	std	Z+1, r25	; 0x01
		buf->size = 0;
    14ee:	14 82       	std	Z+4, r1	; 0x04
    14f0:	15 82       	std	Z+5, r1	; 0x05
    14f2:	08 95       	ret

000014f4 <rb_put>:
	}
}

unsigned char rb_put(RB_BUFFER_t * buf, unsigned char whatChar) {
    14f4:	dc 01       	movw	r26, r24
	if (buf->size < buf->maxSize) {
    14f6:	14 96       	adiw	r26, 0x04	; 4
    14f8:	2d 91       	ld	r18, X+
    14fa:	3c 91       	ld	r19, X
    14fc:	15 97       	sbiw	r26, 0x05	; 5
    14fe:	16 96       	adiw	r26, 0x06	; 6
    1500:	8d 91       	ld	r24, X+
    1502:	9c 91       	ld	r25, X
    1504:	17 97       	sbiw	r26, 0x07	; 7
    1506:	28 17       	cp	r18, r24
    1508:	39 07       	cpc	r19, r25
    150a:	10 f0       	brcs	.+4      	; 0x1510 <rb_put+0x1c>
    150c:	80 e0       	ldi	r24, 0x00	; 0
    150e:	08 95       	ret
		buf->buffer[buf->writePosition++] = whatChar;
    1510:	12 96       	adiw	r26, 0x02	; 2
    1512:	2d 91       	ld	r18, X+
    1514:	3c 91       	ld	r19, X
    1516:	13 97       	sbiw	r26, 0x03	; 3
    1518:	18 96       	adiw	r26, 0x08	; 8
    151a:	ed 91       	ld	r30, X+
    151c:	fc 91       	ld	r31, X
    151e:	19 97       	sbiw	r26, 0x09	; 9
    1520:	e2 0f       	add	r30, r18
    1522:	f3 1f       	adc	r31, r19
    1524:	60 83       	st	Z, r22
    1526:	2f 5f       	subi	r18, 0xFF	; 255
    1528:	3f 4f       	sbci	r19, 0xFF	; 255
    152a:	12 96       	adiw	r26, 0x02	; 2
    152c:	2d 93       	st	X+, r18
    152e:	3c 93       	st	X, r19
    1530:	13 97       	sbiw	r26, 0x03	; 3
		buf->size++;
    1532:	14 96       	adiw	r26, 0x04	; 4
    1534:	8d 91       	ld	r24, X+
    1536:	9c 91       	ld	r25, X
    1538:	15 97       	sbiw	r26, 0x05	; 5
    153a:	01 96       	adiw	r24, 0x01	; 1
    153c:	14 96       	adiw	r26, 0x04	; 4
    153e:	8d 93       	st	X+, r24
    1540:	9c 93       	st	X, r25
    1542:	15 97       	sbiw	r26, 0x05	; 5
		if (!(buf->writePosition < buf->maxSize))
    1544:	16 96       	adiw	r26, 0x06	; 6
    1546:	8d 91       	ld	r24, X+
    1548:	9c 91       	ld	r25, X
    154a:	17 97       	sbiw	r26, 0x07	; 7
    154c:	28 17       	cp	r18, r24
    154e:	39 07       	cpc	r19, r25
    1550:	10 f4       	brcc	.+4      	; 0x1556 <rb_put+0x62>
    1552:	81 e0       	ldi	r24, 0x01	; 1
    1554:	08 95       	ret
			buf->writePosition = 0; // Das geht nur, da wir jedes Mal höchstens ein Byte hinzufügen
    1556:	12 96       	adiw	r26, 0x02	; 2
    1558:	1d 92       	st	X+, r1
    155a:	1c 92       	st	X, r1
    155c:	13 97       	sbiw	r26, 0x03	; 3
    155e:	81 e0       	ldi	r24, 0x01	; 1
		return 1;
	} else {
		return 0;
	}
}
    1560:	08 95       	ret

00001562 <rb_get>:

unsigned char rb_get(RB_BUFFER_t * buf) {
    1562:	1f 93       	push	r17
    1564:	dc 01       	movw	r26, r24
		return (RB_BUFFER_t*)0;
	}
}

unsigned char rb_peek(RB_BUFFER_t * buf, unsigned short int position) {
	if (position < buf->size) {
    1566:	14 96       	adiw	r26, 0x04	; 4
    1568:	8d 91       	ld	r24, X+
    156a:	9c 91       	ld	r25, X
    156c:	15 97       	sbiw	r26, 0x05	; 5
    156e:	89 2b       	or	r24, r25
    1570:	11 f4       	brne	.+4      	; 0x1576 <rb_get+0x14>
    1572:	10 e0       	ldi	r17, 0x00	; 0
    1574:	13 c0       	rjmp	.+38     	; 0x159c <rb_get+0x3a>
		position += buf->readPosition;
    1576:	8d 91       	ld	r24, X+
    1578:	9c 91       	ld	r25, X
    157a:	11 97       	sbiw	r26, 0x01	; 1
		if (!(position < buf->maxSize))
    157c:	16 96       	adiw	r26, 0x06	; 6
    157e:	2d 91       	ld	r18, X+
    1580:	3c 91       	ld	r19, X
    1582:	17 97       	sbiw	r26, 0x07	; 7
    1584:	82 17       	cp	r24, r18
    1586:	93 07       	cpc	r25, r19
    1588:	10 f0       	brcs	.+4      	; 0x158e <rb_get+0x2c>
			position -= buf->maxSize;
    158a:	82 1b       	sub	r24, r18
    158c:	93 0b       	sbc	r25, r19
		return buf->buffer[position];
    158e:	18 96       	adiw	r26, 0x08	; 8
    1590:	ed 91       	ld	r30, X+
    1592:	fc 91       	ld	r31, X
    1594:	19 97       	sbiw	r26, 0x09	; 9
    1596:	e8 0f       	add	r30, r24
    1598:	f9 1f       	adc	r31, r25
    159a:	10 81       	ld	r17, Z
	}
}

unsigned char rb_get(RB_BUFFER_t * buf) {
	unsigned char data = rb_peek(buf, 0);
	rb_delete(buf, 1);
    159c:	cd 01       	movw	r24, r26
    159e:	61 e0       	ldi	r22, 0x01	; 1
    15a0:	70 e0       	ldi	r23, 0x00	; 0
    15a2:	0e 94 56 0a 	call	0x14ac	; 0x14ac <rb_delete>
	return data;
}
    15a6:	81 2f       	mov	r24, r17
    15a8:	1f 91       	pop	r17
    15aa:	08 95       	ret

000015ac <rb_getCount>:

unsigned short int rb_getCount(RB_BUFFER_t * buf) {
    15ac:	fc 01       	movw	r30, r24
	return buf->size;
}
    15ae:	84 81       	ldd	r24, Z+4	; 0x04
    15b0:	95 81       	ldd	r25, Z+5	; 0x05
    15b2:	08 95       	ret

000015b4 <rb_peek_sync>:

unsigned char rb_peek_sync(RB_BUFFER_t * buf, unsigned short int position) {
    15b4:	fc 01       	movw	r30, r24
	unsigned char data;
	cli();
    15b6:	f8 94       	cli
	if (position < buf->size) {
    15b8:	84 81       	ldd	r24, Z+4	; 0x04
    15ba:	95 81       	ldd	r25, Z+5	; 0x05
    15bc:	68 17       	cp	r22, r24
    15be:	79 07       	cpc	r23, r25
    15c0:	98 f4       	brcc	.+38     	; 0x15e8 <rb_peek_sync+0x34>
		position += buf->readPosition;
    15c2:	80 81       	ld	r24, Z
    15c4:	91 81       	ldd	r25, Z+1	; 0x01
    15c6:	86 0f       	add	r24, r22
    15c8:	97 1f       	adc	r25, r23
		if (!(position < buf->maxSize))
    15ca:	26 81       	ldd	r18, Z+6	; 0x06
    15cc:	37 81       	ldd	r19, Z+7	; 0x07
    15ce:	82 17       	cp	r24, r18
    15d0:	93 07       	cpc	r25, r19
    15d2:	10 f0       	brcs	.+4      	; 0x15d8 <rb_peek_sync+0x24>
			position -= buf->maxSize;
    15d4:	82 1b       	sub	r24, r18
    15d6:	93 0b       	sbc	r25, r19
		data = buf->buffer[position];
    15d8:	00 84       	ldd	r0, Z+8	; 0x08
    15da:	f1 85       	ldd	r31, Z+9	; 0x09
    15dc:	e0 2d       	mov	r30, r0
    15de:	e8 0f       	add	r30, r24
    15e0:	f9 1f       	adc	r31, r25
    15e2:	80 81       	ld	r24, Z
		sei();
    15e4:	78 94       	sei
    15e6:	08 95       	ret
		return data;
	}
	sei();
    15e8:	78 94       	sei
    15ea:	80 e0       	ldi	r24, 0x00	; 0
	return 0;
}
    15ec:	08 95       	ret

000015ee <rb_delete_sync>:

void rb_delete_sync(RB_BUFFER_t * buf, unsigned short int howMany) {
    15ee:	fc 01       	movw	r30, r24
	cli();
    15f0:	f8 94       	cli
	if (howMany && (howMany < buf->size)) {
    15f2:	61 15       	cp	r22, r1
    15f4:	71 05       	cpc	r23, r1
    15f6:	c9 f0       	breq	.+50     	; 0x162a <rb_delete_sync+0x3c>
    15f8:	24 81       	ldd	r18, Z+4	; 0x04
    15fa:	35 81       	ldd	r19, Z+5	; 0x05
    15fc:	62 17       	cp	r22, r18
    15fe:	73 07       	cpc	r23, r19
    1600:	a0 f4       	brcc	.+40     	; 0x162a <rb_delete_sync+0x3c>
		buf->readPosition += howMany;
    1602:	80 81       	ld	r24, Z
    1604:	91 81       	ldd	r25, Z+1	; 0x01
    1606:	86 0f       	add	r24, r22
    1608:	97 1f       	adc	r25, r23
    160a:	80 83       	st	Z, r24
    160c:	91 83       	std	Z+1, r25	; 0x01
		buf->size -= howMany;
    160e:	26 1b       	sub	r18, r22
    1610:	37 0b       	sbc	r19, r23
    1612:	24 83       	std	Z+4, r18	; 0x04
    1614:	35 83       	std	Z+5, r19	; 0x05
		if (!(buf->readPosition < buf->maxSize))
    1616:	26 81       	ldd	r18, Z+6	; 0x06
    1618:	37 81       	ldd	r19, Z+7	; 0x07
    161a:	82 17       	cp	r24, r18
    161c:	93 07       	cpc	r25, r19
    161e:	58 f0       	brcs	.+22     	; 0x1636 <rb_delete_sync+0x48>
			buf->readPosition -= buf->maxSize;
    1620:	82 1b       	sub	r24, r18
    1622:	93 0b       	sbc	r25, r19
    1624:	80 83       	st	Z, r24
    1626:	91 83       	std	Z+1, r25	; 0x01
    1628:	06 c0       	rjmp	.+12     	; 0x1636 <rb_delete_sync+0x48>
	} else { // Alles löschen
		buf->readPosition = 0;
    162a:	10 82       	st	Z, r1
    162c:	11 82       	std	Z+1, r1	; 0x01
		buf->writePosition = 0;
    162e:	12 82       	std	Z+2, r1	; 0x02
    1630:	13 82       	std	Z+3, r1	; 0x03
		buf->size = 0;
    1632:	14 82       	std	Z+4, r1	; 0x04
    1634:	15 82       	std	Z+5, r1	; 0x05
	}
	sei();
    1636:	78 94       	sei
}
    1638:	08 95       	ret

0000163a <rb_put_sync>:

unsigned char rb_put_sync(RB_BUFFER_t * buf, unsigned char whatChar) {
    163a:	dc 01       	movw	r26, r24
	cli();
    163c:	f8 94       	cli
	if (buf->size < buf->maxSize) {
    163e:	14 96       	adiw	r26, 0x04	; 4
    1640:	2d 91       	ld	r18, X+
    1642:	3c 91       	ld	r19, X
    1644:	15 97       	sbiw	r26, 0x05	; 5
    1646:	16 96       	adiw	r26, 0x06	; 6
    1648:	8d 91       	ld	r24, X+
    164a:	9c 91       	ld	r25, X
    164c:	17 97       	sbiw	r26, 0x07	; 7
    164e:	28 17       	cp	r18, r24
    1650:	39 07       	cpc	r19, r25
    1652:	40 f5       	brcc	.+80     	; 0x16a4 <rb_put_sync+0x6a>
		buf->buffer[buf->writePosition++] = whatChar;
    1654:	12 96       	adiw	r26, 0x02	; 2
    1656:	2d 91       	ld	r18, X+
    1658:	3c 91       	ld	r19, X
    165a:	13 97       	sbiw	r26, 0x03	; 3
    165c:	18 96       	adiw	r26, 0x08	; 8
    165e:	ed 91       	ld	r30, X+
    1660:	fc 91       	ld	r31, X
    1662:	19 97       	sbiw	r26, 0x09	; 9
    1664:	e2 0f       	add	r30, r18
    1666:	f3 1f       	adc	r31, r19
    1668:	60 83       	st	Z, r22
    166a:	2f 5f       	subi	r18, 0xFF	; 255
    166c:	3f 4f       	sbci	r19, 0xFF	; 255
    166e:	12 96       	adiw	r26, 0x02	; 2
    1670:	2d 93       	st	X+, r18
    1672:	3c 93       	st	X, r19
    1674:	13 97       	sbiw	r26, 0x03	; 3
		buf->size++;
    1676:	14 96       	adiw	r26, 0x04	; 4
    1678:	8d 91       	ld	r24, X+
    167a:	9c 91       	ld	r25, X
    167c:	15 97       	sbiw	r26, 0x05	; 5
    167e:	01 96       	adiw	r24, 0x01	; 1
    1680:	14 96       	adiw	r26, 0x04	; 4
    1682:	8d 93       	st	X+, r24
    1684:	9c 93       	st	X, r25
    1686:	15 97       	sbiw	r26, 0x05	; 5
		if (!(buf->writePosition < buf->maxSize))
    1688:	16 96       	adiw	r26, 0x06	; 6
    168a:	8d 91       	ld	r24, X+
    168c:	9c 91       	ld	r25, X
    168e:	17 97       	sbiw	r26, 0x07	; 7
    1690:	28 17       	cp	r18, r24
    1692:	39 07       	cpc	r19, r25
    1694:	20 f0       	brcs	.+8      	; 0x169e <rb_put_sync+0x64>
			buf->writePosition = 0; // Das geht nur, da wir jedes Mal höchstens ein Byte hinzufügen
    1696:	12 96       	adiw	r26, 0x02	; 2
    1698:	1d 92       	st	X+, r1
    169a:	1c 92       	st	X, r1
    169c:	13 97       	sbiw	r26, 0x03	; 3
		sei();
    169e:	78 94       	sei
    16a0:	81 e0       	ldi	r24, 0x01	; 1
    16a2:	08 95       	ret
		return 1;
	} else {
		sei();
    16a4:	78 94       	sei
    16a6:	80 e0       	ldi	r24, 0x00	; 0
		return 0;
	}
}
    16a8:	08 95       	ret

000016aa <rb_get_sync>:

unsigned char rb_get_sync(RB_BUFFER_t * buf) {
    16aa:	ff 92       	push	r15
    16ac:	0f 93       	push	r16
    16ae:	1f 93       	push	r17
    16b0:	8c 01       	movw	r16, r24
	unsigned char data = rb_peek_sync(buf, 0);
    16b2:	60 e0       	ldi	r22, 0x00	; 0
    16b4:	70 e0       	ldi	r23, 0x00	; 0
    16b6:	0e 94 da 0a 	call	0x15b4	; 0x15b4 <rb_peek_sync>
    16ba:	f8 2e       	mov	r15, r24
	rb_delete_sync(buf, 1);
    16bc:	c8 01       	movw	r24, r16
    16be:	61 e0       	ldi	r22, 0x01	; 1
    16c0:	70 e0       	ldi	r23, 0x00	; 0
    16c2:	0e 94 f7 0a 	call	0x15ee	; 0x15ee <rb_delete_sync>
	return data;
}
    16c6:	8f 2d       	mov	r24, r15
    16c8:	1f 91       	pop	r17
    16ca:	0f 91       	pop	r16
    16cc:	ff 90       	pop	r15
    16ce:	08 95       	ret

000016d0 <rb_getCount_sync>:

unsigned short int rb_getCount_sync(RB_BUFFER_t * buf) {
    16d0:	fc 01       	movw	r30, r24
	unsigned short int count;
	cli();
    16d2:	f8 94       	cli
	count = buf->size;
	sei();
    16d4:	78 94       	sei
	return count;
}
    16d6:	84 81       	ldd	r24, Z+4	; 0x04
    16d8:	95 81       	ldd	r25, Z+5	; 0x05
    16da:	08 95       	ret

000016dc <uart_addModifyNotifyFunction>:
	uart->stateSend = UART_STATE_NOINIT;
	
	return uart;
}

unsigned char uart_addModifyNotifyFunction(UART_INFO_t * uart, void * infoPtr, UART_notifyFunction f, unsigned int notifyMask) {
    16dc:	ef 92       	push	r14
    16de:	ff 92       	push	r15
    16e0:	0f 93       	push	r16
    16e2:	1f 93       	push	r17
    16e4:	cf 93       	push	r28
    16e6:	df 93       	push	r29
    16e8:	8c 01       	movw	r16, r24
    16ea:	7b 01       	movw	r14, r22
    16ec:	b9 01       	movw	r22, r18
	unsigned char i;
	for (i=0;i<uart->notifyCount;i++) {
    16ee:	fc 01       	movw	r30, r24
    16f0:	36 85       	ldd	r19, Z+14	; 0x0e
    16f2:	20 e0       	ldi	r18, 0x00	; 0
    16f4:	14 c0       	rjmp	.+40     	; 0x171e <uart_addModifyNotifyFunction+0x42>
		if (uart->notifyInfo[i].f == (UART_notifyFunction)f) {
    16f6:	82 2f       	mov	r24, r18
    16f8:	90 e0       	ldi	r25, 0x00	; 0
    16fa:	fc 01       	movw	r30, r24
    16fc:	ee 0f       	add	r30, r30
    16fe:	ff 1f       	adc	r31, r31
    1700:	e8 0f       	add	r30, r24
    1702:	f9 1f       	adc	r31, r25
    1704:	df 01       	movw	r26, r30
    1706:	aa 0f       	add	r26, r26
    1708:	bb 1f       	adc	r27, r27
    170a:	a0 0f       	add	r26, r16
    170c:	b1 1f       	adc	r27, r17
    170e:	1f 96       	adiw	r26, 0x0f	; 15
    1710:	8d 91       	ld	r24, X+
    1712:	9c 91       	ld	r25, X
    1714:	50 97       	sbiw	r26, 0x10	; 16
    1716:	84 17       	cp	r24, r20
    1718:	95 07       	cpc	r25, r21
    171a:	d9 f0       	breq	.+54     	; 0x1752 <uart_addModifyNotifyFunction+0x76>
	return uart;
}

unsigned char uart_addModifyNotifyFunction(UART_INFO_t * uart, void * infoPtr, UART_notifyFunction f, unsigned int notifyMask) {
	unsigned char i;
	for (i=0;i<uart->notifyCount;i++) {
    171c:	2f 5f       	subi	r18, 0xFF	; 255
    171e:	23 17       	cp	r18, r19
    1720:	50 f3       	brcs	.-44     	; 0x16f6 <uart_addModifyNotifyFunction+0x1a>
    1722:	20 e0       	ldi	r18, 0x00	; 0
    1724:	24 c0       	rjmp	.+72     	; 0x176e <uart_addModifyNotifyFunction+0x92>
			uart->notifyInfo[i].infoPtr = infoPtr;
			return 1;
		}
	}
	for (i=0;i<uart->notifyCount;i++) {
		if (!uart->notifyInfo[i].f) {
    1726:	82 2f       	mov	r24, r18
    1728:	90 e0       	ldi	r25, 0x00	; 0
    172a:	fc 01       	movw	r30, r24
    172c:	ee 0f       	add	r30, r30
    172e:	ff 1f       	adc	r31, r31
    1730:	e8 0f       	add	r30, r24
    1732:	f9 1f       	adc	r31, r25
    1734:	df 01       	movw	r26, r30
    1736:	aa 0f       	add	r26, r26
    1738:	bb 1f       	adc	r27, r27
    173a:	a0 0f       	add	r26, r16
    173c:	b1 1f       	adc	r27, r17
    173e:	ed 01       	movw	r28, r26
    1740:	2f 96       	adiw	r28, 0x0f	; 15
    1742:	1f 96       	adiw	r26, 0x0f	; 15
    1744:	8d 91       	ld	r24, X+
    1746:	9c 91       	ld	r25, X
    1748:	50 97       	sbiw	r26, 0x10	; 16
    174a:	89 2b       	or	r24, r25
    174c:	79 f4       	brne	.+30     	; 0x176c <uart_addModifyNotifyFunction+0x90>
			uart->notifyInfo[i].f = (UART_notifyFunction)f;
    174e:	48 83       	st	Y, r20
    1750:	59 83       	std	Y+1, r21	; 0x01
			uart->notifyInfo[i].notifyMask = notifyMask;
    1752:	31 96       	adiw	r30, 0x01	; 1
    1754:	ee 0f       	add	r30, r30
    1756:	ff 1f       	adc	r31, r31
    1758:	e0 0f       	add	r30, r16
    175a:	f1 1f       	adc	r31, r17
    175c:	67 87       	std	Z+15, r22	; 0x0f
    175e:	70 8b       	std	Z+16, r23	; 0x10
			uart->notifyInfo[i].infoPtr = infoPtr;
    1760:	53 96       	adiw	r26, 0x13	; 19
    1762:	ed 92       	st	X+, r14
    1764:	fc 92       	st	X, r15
    1766:	54 97       	sbiw	r26, 0x14	; 20
    1768:	81 e0       	ldi	r24, 0x01	; 1
    176a:	04 c0       	rjmp	.+8      	; 0x1774 <uart_addModifyNotifyFunction+0x98>
			uart->notifyInfo[i].notifyMask = notifyMask;
			uart->notifyInfo[i].infoPtr = infoPtr;
			return 1;
		}
	}
	for (i=0;i<uart->notifyCount;i++) {
    176c:	2f 5f       	subi	r18, 0xFF	; 255
    176e:	23 17       	cp	r18, r19
    1770:	d0 f2       	brcs	.-76     	; 0x1726 <uart_addModifyNotifyFunction+0x4a>
    1772:	80 e0       	ldi	r24, 0x00	; 0
			uart->notifyInfo[i].infoPtr = infoPtr;
			return 1;
		}
	}
	return 0;
}
    1774:	df 91       	pop	r29
    1776:	cf 91       	pop	r28
    1778:	1f 91       	pop	r17
    177a:	0f 91       	pop	r16
    177c:	ff 90       	pop	r15
    177e:	ef 90       	pop	r14
    1780:	08 95       	ret

00001782 <uart_doNotify>:

static void uart_doNotify(UART_INFO_t * uart, unsigned char event, unsigned char data) {
    1782:	df 92       	push	r13
    1784:	ef 92       	push	r14
    1786:	ff 92       	push	r15
    1788:	0f 93       	push	r16
    178a:	1f 93       	push	r17
    178c:	cf 93       	push	r28
    178e:	df 93       	push	r29
    1790:	8c 01       	movw	r16, r24
    1792:	e6 2e       	mov	r14, r22
    1794:	d4 2e       	mov	r13, r20
	for (unsigned char i=0;i<uart->notifyCount;i++) {
		if (uart->notifyInfo[i].notifyMask & (1 << event)) { // Diese Funktion hat Interesse an dem Event..? Dann sagen wir bescheid und die Funktion darf entscheiden ob noch weitere Interessenten die Info bekommen
    1796:	c1 e0       	ldi	r28, 0x01	; 1
    1798:	d0 e0       	ldi	r29, 0x00	; 0
    179a:	06 2e       	mov	r0, r22
    179c:	02 c0       	rjmp	.+4      	; 0x17a2 <uart_doNotify+0x20>
    179e:	cc 0f       	add	r28, r28
    17a0:	dd 1f       	adc	r29, r29
    17a2:	0a 94       	dec	r0
    17a4:	e2 f7       	brpl	.-8      	; 0x179e <uart_doNotify+0x1c>
    17a6:	ff 24       	eor	r15, r15
    17a8:	23 c0       	rjmp	.+70     	; 0x17f0 <uart_doNotify+0x6e>
	}
	return 0;
}

static void uart_doNotify(UART_INFO_t * uart, unsigned char event, unsigned char data) {
	for (unsigned char i=0;i<uart->notifyCount;i++) {
    17aa:	8f 2d       	mov	r24, r15
    17ac:	90 e0       	ldi	r25, 0x00	; 0
		if (uart->notifyInfo[i].notifyMask & (1 << event)) { // Diese Funktion hat Interesse an dem Event..? Dann sagen wir bescheid und die Funktion darf entscheiden ob noch weitere Interessenten die Info bekommen
    17ae:	9c 01       	movw	r18, r24
    17b0:	22 0f       	add	r18, r18
    17b2:	33 1f       	adc	r19, r19
    17b4:	28 0f       	add	r18, r24
    17b6:	39 1f       	adc	r19, r25
    17b8:	f9 01       	movw	r30, r18
    17ba:	31 96       	adiw	r30, 0x01	; 1
    17bc:	ee 0f       	add	r30, r30
    17be:	ff 1f       	adc	r31, r31
    17c0:	e0 0f       	add	r30, r16
    17c2:	f1 1f       	adc	r31, r17
    17c4:	87 85       	ldd	r24, Z+15	; 0x0f
    17c6:	90 89       	ldd	r25, Z+16	; 0x10
    17c8:	8c 23       	and	r24, r28
    17ca:	9d 23       	and	r25, r29
    17cc:	89 2b       	or	r24, r25
    17ce:	79 f0       	breq	.+30     	; 0x17ee <uart_doNotify+0x6c>
			UART_notifyFunction f = (UART_notifyFunction)uart->notifyInfo[i].f;
			if (!f(uart->notifyInfo[i].infoPtr, event, data))
    17d0:	f9 01       	movw	r30, r18
    17d2:	ee 0f       	add	r30, r30
    17d4:	ff 1f       	adc	r31, r31
    17d6:	e0 0f       	add	r30, r16
    17d8:	f1 1f       	adc	r31, r17
    17da:	27 85       	ldd	r18, Z+15	; 0x0f
    17dc:	30 89       	ldd	r19, Z+16	; 0x10
    17de:	83 89       	ldd	r24, Z+19	; 0x13
    17e0:	94 89       	ldd	r25, Z+20	; 0x14
    17e2:	6e 2d       	mov	r22, r14
    17e4:	4d 2d       	mov	r20, r13
    17e6:	f9 01       	movw	r30, r18
    17e8:	19 95       	eicall
    17ea:	88 23       	and	r24, r24
    17ec:	29 f0       	breq	.+10     	; 0x17f8 <uart_doNotify+0x76>
	}
	return 0;
}

static void uart_doNotify(UART_INFO_t * uart, unsigned char event, unsigned char data) {
	for (unsigned char i=0;i<uart->notifyCount;i++) {
    17ee:	f3 94       	inc	r15
    17f0:	f8 01       	movw	r30, r16
    17f2:	86 85       	ldd	r24, Z+14	; 0x0e
    17f4:	f8 16       	cp	r15, r24
    17f6:	c8 f2       	brcs	.-78     	; 0x17aa <uart_doNotify+0x28>
			UART_notifyFunction f = (UART_notifyFunction)uart->notifyInfo[i].f;
			if (!f(uart->notifyInfo[i].infoPtr, event, data))
				break;
		}
	}
}
    17f8:	df 91       	pop	r29
    17fa:	cf 91       	pop	r28
    17fc:	1f 91       	pop	r17
    17fe:	0f 91       	pop	r16
    1800:	ff 90       	pop	r15
    1802:	ef 90       	pop	r14
    1804:	df 90       	pop	r13
    1806:	08 95       	ret

00001808 <uart_forwardNotify>:

// Forward to following listener:
void uart_forwardNotify(UART_INFO_t * uart, unsigned char event, unsigned char data, void * afterPtr) {
    1808:	bf 92       	push	r11
    180a:	cf 92       	push	r12
    180c:	df 92       	push	r13
    180e:	ef 92       	push	r14
    1810:	ff 92       	push	r15
    1812:	0f 93       	push	r16
    1814:	1f 93       	push	r17
    1816:	cf 93       	push	r28
    1818:	df 93       	push	r29
    181a:	ec 01       	movw	r28, r24
    181c:	e6 2e       	mov	r14, r22
    181e:	b4 2e       	mov	r11, r20
    1820:	69 01       	movw	r12, r18
	unsigned char fromHere = 0;
	for (unsigned char i=0;i<uart->notifyCount;i++) {
		if (fromHere) {
			if (uart->notifyInfo[i].notifyMask & (1 << event)) { // Diese Funktion hat Interesse an dem Event..? Dann sagen wir bescheid und die Funktion darf entscheiden ob noch weitere Interessenten die Info bekommen
    1822:	01 e0       	ldi	r16, 0x01	; 1
    1824:	10 e0       	ldi	r17, 0x00	; 0
    1826:	06 2e       	mov	r0, r22
    1828:	02 c0       	rjmp	.+4      	; 0x182e <uart_forwardNotify+0x26>
    182a:	00 0f       	add	r16, r16
    182c:	11 1f       	adc	r17, r17
    182e:	0a 94       	dec	r0
    1830:	e2 f7       	brpl	.-8      	; 0x182a <uart_forwardNotify+0x22>
    1832:	20 e0       	ldi	r18, 0x00	; 0
    1834:	ff 24       	eor	r15, r15
    1836:	35 c0       	rjmp	.+106    	; 0x18a2 <uart_forwardNotify+0x9a>
    1838:	8f 2d       	mov	r24, r15
    183a:	90 e0       	ldi	r25, 0x00	; 0

// Forward to following listener:
void uart_forwardNotify(UART_INFO_t * uart, unsigned char event, unsigned char data, void * afterPtr) {
	unsigned char fromHere = 0;
	for (unsigned char i=0;i<uart->notifyCount;i++) {
		if (fromHere) {
    183c:	22 23       	and	r18, r18
    183e:	09 f1       	breq	.+66     	; 0x1882 <uart_forwardNotify+0x7a>
			if (uart->notifyInfo[i].notifyMask & (1 << event)) { // Diese Funktion hat Interesse an dem Event..? Dann sagen wir bescheid und die Funktion darf entscheiden ob noch weitere Interessenten die Info bekommen
    1840:	9c 01       	movw	r18, r24
    1842:	22 0f       	add	r18, r18
    1844:	33 1f       	adc	r19, r19
    1846:	28 0f       	add	r18, r24
    1848:	39 1f       	adc	r19, r25
    184a:	f9 01       	movw	r30, r18
    184c:	31 96       	adiw	r30, 0x01	; 1
    184e:	ee 0f       	add	r30, r30
    1850:	ff 1f       	adc	r31, r31
    1852:	ec 0f       	add	r30, r28
    1854:	fd 1f       	adc	r31, r29
    1856:	87 85       	ldd	r24, Z+15	; 0x0f
    1858:	90 89       	ldd	r25, Z+16	; 0x10
    185a:	80 23       	and	r24, r16
    185c:	91 23       	and	r25, r17
    185e:	89 2b       	or	r24, r25
    1860:	f1 f0       	breq	.+60     	; 0x189e <uart_forwardNotify+0x96>
				UART_notifyFunction f = (UART_notifyFunction)uart->notifyInfo[i].f;
				if (!f(uart->notifyInfo[i].infoPtr, event, data))
    1862:	f9 01       	movw	r30, r18
    1864:	ee 0f       	add	r30, r30
    1866:	ff 1f       	adc	r31, r31
    1868:	ec 0f       	add	r30, r28
    186a:	fd 1f       	adc	r31, r29
    186c:	27 85       	ldd	r18, Z+15	; 0x0f
    186e:	30 89       	ldd	r19, Z+16	; 0x10
    1870:	83 89       	ldd	r24, Z+19	; 0x13
    1872:	94 89       	ldd	r25, Z+20	; 0x14
    1874:	6e 2d       	mov	r22, r14
    1876:	4b 2d       	mov	r20, r11
    1878:	f9 01       	movw	r30, r18
    187a:	19 95       	eicall
    187c:	88 23       	and	r24, r24
    187e:	79 f4       	brne	.+30     	; 0x189e <uart_forwardNotify+0x96>
    1880:	13 c0       	rjmp	.+38     	; 0x18a8 <uart_forwardNotify+0xa0>
					break;
			}
		} else if (uart->notifyInfo[i].f == afterPtr) {
    1882:	fc 01       	movw	r30, r24
    1884:	ee 0f       	add	r30, r30
    1886:	ff 1f       	adc	r31, r31
    1888:	e8 0f       	add	r30, r24
    188a:	f9 1f       	adc	r31, r25
    188c:	ee 0f       	add	r30, r30
    188e:	ff 1f       	adc	r31, r31
    1890:	ec 0f       	add	r30, r28
    1892:	fd 1f       	adc	r31, r29
    1894:	87 85       	ldd	r24, Z+15	; 0x0f
    1896:	90 89       	ldd	r25, Z+16	; 0x10
    1898:	8c 15       	cp	r24, r12
    189a:	9d 05       	cpc	r25, r13
    189c:	09 f4       	brne	.+2      	; 0x18a0 <uart_forwardNotify+0x98>
    189e:	21 e0       	ldi	r18, 0x01	; 1
}

// Forward to following listener:
void uart_forwardNotify(UART_INFO_t * uart, unsigned char event, unsigned char data, void * afterPtr) {
	unsigned char fromHere = 0;
	for (unsigned char i=0;i<uart->notifyCount;i++) {
    18a0:	f3 94       	inc	r15
    18a2:	8e 85       	ldd	r24, Y+14	; 0x0e
    18a4:	f8 16       	cp	r15, r24
    18a6:	40 f2       	brcs	.-112    	; 0x1838 <uart_forwardNotify+0x30>
			}
		} else if (uart->notifyInfo[i].f == afterPtr) {
			fromHere = 1;
		}
	}
}
    18a8:	df 91       	pop	r29
    18aa:	cf 91       	pop	r28
    18ac:	1f 91       	pop	r17
    18ae:	0f 91       	pop	r16
    18b0:	ff 90       	pop	r15
    18b2:	ef 90       	pop	r14
    18b4:	df 90       	pop	r13
    18b6:	cf 90       	pop	r12
    18b8:	bf 90       	pop	r11
    18ba:	08 95       	ret

000018bc <uart_getExclusiveAccess>:
		uart->doCancelEcho = 1;
		uart->lastEchoByteTime = timer_getPreciseTimestamp_async();
	}
}

unsigned char uart_getExclusiveAccess(UART_INFO_t * uart, unsigned char ID) {
    18bc:	fc 01       	movw	r30, r24
	cli();
    18be:	f8 94       	cli
	if (!uart->exclusiveCount || (uart->exclusive == ID)) {
    18c0:	81 85       	ldd	r24, Z+9	; 0x09
    18c2:	88 23       	and	r24, r24
    18c4:	19 f0       	breq	.+6      	; 0x18cc <uart_getExclusiveAccess+0x10>
    18c6:	80 85       	ldd	r24, Z+8	; 0x08
    18c8:	86 17       	cp	r24, r22
    18ca:	39 f4       	brne	.+14     	; 0x18da <uart_getExclusiveAccess+0x1e>
		uart->exclusive = ID;
    18cc:	60 87       	std	Z+8, r22	; 0x08
		uart->exclusiveCount++;
    18ce:	81 85       	ldd	r24, Z+9	; 0x09
    18d0:	8f 5f       	subi	r24, 0xFF	; 255
    18d2:	81 87       	std	Z+9, r24	; 0x09
		sei();
    18d4:	78 94       	sei
    18d6:	81 e0       	ldi	r24, 0x01	; 1
    18d8:	08 95       	ret
		return 1;
	} else {
		sei();
    18da:	78 94       	sei
    18dc:	80 e0       	ldi	r24, 0x00	; 0
		return 0;
	}
}
    18de:	08 95       	ret

000018e0 <uart_releaseExclusiveAccess>:

void uart_releaseExclusiveAccess(UART_INFO_t * uart, unsigned char ID) {
    18e0:	fc 01       	movw	r30, r24
	cli();
    18e2:	f8 94       	cli
	if (uart->exclusive == ID) {
    18e4:	80 85       	ldd	r24, Z+8	; 0x08
    18e6:	86 17       	cp	r24, r22
    18e8:	31 f4       	brne	.+12     	; 0x18f6 <uart_releaseExclusiveAccess+0x16>
		uart->exclusiveCount--;
    18ea:	81 85       	ldd	r24, Z+9	; 0x09
    18ec:	81 50       	subi	r24, 0x01	; 1
    18ee:	81 87       	std	Z+9, r24	; 0x09
		if (!uart->exclusiveCount)
    18f0:	88 23       	and	r24, r24
    18f2:	09 f4       	brne	.+2      	; 0x18f6 <uart_releaseExclusiveAccess+0x16>
			uart->exclusive = 0;
    18f4:	10 86       	std	Z+8, r1	; 0x08
	}
	sei();
    18f6:	78 94       	sei
}
    18f8:	08 95       	ret

000018fa <uart_hasExclusiveAccess>:

unsigned char uart_hasExclusiveAccess(UART_INFO_t * uart, unsigned char ID) {
    18fa:	20 e0       	ldi	r18, 0x00	; 0
    18fc:	fc 01       	movw	r30, r24
    18fe:	80 85       	ldd	r24, Z+8	; 0x08
    1900:	86 17       	cp	r24, r22
    1902:	09 f4       	brne	.+2      	; 0x1906 <uart_hasExclusiveAccess+0xc>
    1904:	21 e0       	ldi	r18, 0x01	; 1
	return (uart->exclusive == ID) ? 1 : 0;
}
    1906:	82 2f       	mov	r24, r18
    1908:	08 95       	ret

0000190a <uart_changeSpeed>:
	uart->stateSend = UART_STATE_IDLE;
	sei();
	
}

void uart_changeSpeed(UART_INFO_t * uart, unsigned long speedBaud) {
    190a:	0f 93       	push	r16
    190c:	1f 93       	push	r17
    190e:	8c 01       	movw	r16, r24
    1910:	9a 01       	movw	r18, r20
    1912:	ab 01       	movw	r20, r22
	unsigned int speedReg;
	USART_t * usart;
	
	// Geschwindigkeit berechnen und "readAhead" zurücksetzen
	speedReg = ((F_CPU / 8) / speedBaud);
    1914:	60 e0       	ldi	r22, 0x00	; 0
    1916:	79 e0       	ldi	r23, 0x09	; 9
    1918:	8d e3       	ldi	r24, 0x3D	; 61
    191a:	90 e0       	ldi	r25, 0x00	; 0
    191c:	0e 94 91 28 	call	0x5122	; 0x5122 <__udivmodsi4>
	
	// Laut Datenblatt notwendig für die HW-Init:
	cli();
    1920:	f8 94       	cli
	usart = uart->usart;
    1922:	d8 01       	movw	r26, r16
    1924:	ed 91       	ld	r30, X+
    1926:	fc 91       	ld	r31, X
	
	// Vorsichtshalber erstmal aus stellen:
	//usart->CTRLB &= ~(USART_RXEN_bm | USART_TXEN_bm);
	
	// USART 2x-Clock AUS:
	usart->CTRLB &= ~USART_CLK2X_bm;
    1928:	84 81       	ldd	r24, Z+4	; 0x04
    192a:	8b 7f       	andi	r24, 0xFB	; 251
    192c:	84 83       	std	Z+4, r24	; 0x04
	
	// USART-Geschwindigkeit:
	if (!(usart->CTRLB & USART_CLK2X_bm)) {
    192e:	84 81       	ldd	r24, Z+4	; 0x04
    1930:	82 fd       	sbrc	r24, 2
    1932:	02 c0       	rjmp	.+4      	; 0x1938 <uart_changeSpeed+0x2e>
		speedReg >>= 1; // Nochmal durch 2 teilen wenn wir mit 8 mal lesen fahren.
    1934:	36 95       	lsr	r19
    1936:	27 95       	ror	r18
	}
	speedReg--;
    1938:	c9 01       	movw	r24, r18
    193a:	01 97       	sbiw	r24, 0x01	; 1
	
	usart->BAUDCTRLA = (unsigned char)speedReg;
    193c:	86 83       	std	Z+6, r24	; 0x06
	usart->BAUDCTRLB = (unsigned char)(speedReg >> 8);
    193e:	97 83       	std	Z+7, r25	; 0x07
	
	// RX und TX an:
	//usart->CTRLB |= USART_RXEN_bm | USART_TXEN_bm;
	
	sei();
    1940:	78 94       	sei
}
    1942:	1f 91       	pop	r17
    1944:	0f 91       	pop	r16
    1946:	08 95       	ret

00001948 <uart_disableHardware>:

void uart_disableHardware(UART_INFO_t * uart) {
    1948:	dc 01       	movw	r26, r24
	// UART de-initialisieren
	// Vorsichtshalber die globalen Interrupts deaktivieren..
	cli();
    194a:	f8 94       	cli
	// TXEN und RXEN, außerdem alle 3 möglichen USART-Interrupts (RX compl, TX compl und TX-buffer leer) _abschalten_!
	
	uart->usart->CTRLB &= ~(USART_RXEN_bm | USART_TXEN_bm);
    194c:	ed 91       	ld	r30, X+
    194e:	fc 91       	ld	r31, X
    1950:	11 97       	sbiw	r26, 0x01	; 1
    1952:	84 81       	ldd	r24, Z+4	; 0x04
    1954:	87 7e       	andi	r24, 0xE7	; 231
    1956:	84 83       	std	Z+4, r24	; 0x04
	uart->usart->CTRLA = USART_RXCINTLVL_OFF_gc | USART_TXCINTLVL_OFF_gc | USART_DREINTLVL_OFF_gc;
    1958:	ed 91       	ld	r30, X+
    195a:	fc 91       	ld	r31, X
    195c:	11 97       	sbiw	r26, 0x01	; 1
    195e:	13 82       	std	Z+3, r1	; 0x03
	
	// Merken, dass wir abgeschaltet haben:
	uart->stateSend = UART_STATE_NOINIT;
    1960:	15 96       	adiw	r26, 0x05	; 5
    1962:	1c 92       	st	X, r1
	
	// Interrupts wieder aktivieren
	sei();
    1964:	78 94       	sei
}
    1966:	08 95       	ret

00001968 <uart_isBusy>:

unsigned char uart_isBusy(UART_INFO_t * uart) {
    1968:	20 e0       	ldi	r18, 0x00	; 0
    196a:	fc 01       	movw	r30, r24
    196c:	85 81       	ldd	r24, Z+5	; 0x05
    196e:	82 30       	cpi	r24, 0x02	; 2
    1970:	08 f0       	brcs	.+2      	; 0x1974 <uart_isBusy+0xc>
    1972:	21 e0       	ldi	r18, 0x01	; 1
	return (uart->stateSend > UART_STATE_IDLE) ? 1 : 0;
}
    1974:	82 2f       	mov	r24, r18
    1976:	08 95       	ret

00001978 <uart_getTransmissionDelayMs>:

unsigned int uart_getTransmissionDelayMs(unsigned long speedBaud, unsigned int rxlen) {
    1978:	ef 92       	push	r14
    197a:	ff 92       	push	r15
    197c:	0f 93       	push	r16
    197e:	1f 93       	push	r17
    1980:	7b 01       	movw	r14, r22
    1982:	8c 01       	movw	r16, r24
    1984:	60 e0       	ldi	r22, 0x00	; 0
    1986:	70 e0       	ldi	r23, 0x00	; 0
    1988:	cb 01       	movw	r24, r22
    198a:	ba 01       	movw	r22, r20
    198c:	24 e6       	ldi	r18, 0x64	; 100
    198e:	30 e0       	ldi	r19, 0x00	; 0
    1990:	40 e0       	ldi	r20, 0x00	; 0
    1992:	50 e0       	ldi	r21, 0x00	; 0
    1994:	0e 94 5e 28 	call	0x50bc	; 0x50bc <__mulsi3>
    1998:	a8 01       	movw	r20, r16
    199a:	97 01       	movw	r18, r14
    199c:	0e 94 91 28 	call	0x5122	; 0x5122 <__udivmodsi4>
    19a0:	2b 5f       	subi	r18, 0xFB	; 251
    19a2:	3f 4f       	sbci	r19, 0xFF	; 255
    19a4:	4f 4f       	sbci	r20, 0xFF	; 255
    19a6:	5f 4f       	sbci	r21, 0xFF	; 255
    19a8:	ca 01       	movw	r24, r20
    19aa:	b9 01       	movw	r22, r18
    19ac:	2a e0       	ldi	r18, 0x0A	; 10
    19ae:	30 e0       	ldi	r19, 0x00	; 0
    19b0:	40 e0       	ldi	r20, 0x00	; 0
    19b2:	50 e0       	ldi	r21, 0x00	; 0
    19b4:	0e 94 91 28 	call	0x5122	; 0x5122 <__udivmodsi4>
    19b8:	c9 01       	movw	r24, r18
	// Wir gehen davon aus, dass wir immer 10 Bit pro Zeichen senden müssen.
	// Insgesamt ergibt sich daher für die Übertragungszeit:
	return (unsigned int)((((unsigned long int)rxlen * 100) / speedBaud + 5) / 10); // Wir runden korrekt
}
    19ba:	1f 91       	pop	r17
    19bc:	0f 91       	pop	r16
    19be:	ff 90       	pop	r15
    19c0:	ef 90       	pop	r14
    19c2:	08 95       	ret

000019c4 <uart_enableHardware>:
		ok &= uart_putc(uart, buf[i] + '0');
	// Result:
	return ok;
}

void uart_enableHardware(UART_INFO_t * uart, unsigned long speedBaud, unsigned char flags) {
    19c4:	ef 92       	push	r14
    19c6:	ff 92       	push	r15
    19c8:	0f 93       	push	r16
    19ca:	1f 93       	push	r17
    19cc:	cf 93       	push	r28
    19ce:	df 93       	push	r29
    19d0:	ec 01       	movw	r28, r24
    19d2:	7a 01       	movw	r14, r20
    19d4:	8b 01       	movw	r16, r22
	unsigned int speedReg;
	USART_t * usart;
	
	// Ausgangspuffer löschen:
	rb_delete_sync(uart->outputBuffer, 0);
    19d6:	8a 81       	ldd	r24, Y+2	; 0x02
    19d8:	9b 81       	ldd	r25, Y+3	; 0x03
    19da:	60 e0       	ldi	r22, 0x00	; 0
    19dc:	70 e0       	ldi	r23, 0x00	; 0
    19de:	0e 94 f7 0a 	call	0x15ee	; 0x15ee <rb_delete_sync>
	
	// Geschwindigkeit berechnen und "readAhead" zurücksetzen
	speedReg = ((F_CPU / 8) / speedBaud);
    19e2:	60 e0       	ldi	r22, 0x00	; 0
    19e4:	79 e0       	ldi	r23, 0x09	; 9
    19e6:	8d e3       	ldi	r24, 0x3D	; 61
    19e8:	90 e0       	ldi	r25, 0x00	; 0
    19ea:	a8 01       	movw	r20, r16
    19ec:	97 01       	movw	r18, r14
    19ee:	0e 94 91 28 	call	0x5122	; 0x5122 <__udivmodsi4>
	
	// Strukturdaten löschen:
	uart->readAhead = 0;
    19f2:	1f 82       	std	Y+7, r1	; 0x07
	uart->exclusive = 0;
    19f4:	18 86       	std	Y+8, r1	; 0x08
	uart->exclusiveCount = 0;
    19f6:	19 86       	std	Y+9, r1	; 0x09
	
	// Laut Datenblatt notwendig für die HW-Init:
	cli();
    19f8:	f8 94       	cli
	usart = uart->usart;
    19fa:	e8 81       	ld	r30, Y
    19fc:	f9 81       	ldd	r31, Y+1	; 0x01
	
	// USART initialisieren
	
	// Vorsichtshalber erstmal aus stellen:
	usart->CTRLB &= ~(USART_RXEN_bm | USART_TXEN_bm);
    19fe:	84 81       	ldd	r24, Z+4	; 0x04
    1a00:	87 7e       	andi	r24, 0xE7	; 231
    1a02:	84 83       	std	Z+4, r24	; 0x04
	
	// USART 2x-Clock AUS:
	usart->CTRLB &= ~USART_CLK2X_bm;
    1a04:	84 81       	ldd	r24, Z+4	; 0x04
    1a06:	8b 7f       	andi	r24, 0xFB	; 251
    1a08:	84 83       	std	Z+4, r24	; 0x04
	// USART auf asynchron:
	usart->CTRLC = (usart->CTRLC & ~USART_CMODE_gm) | USART_CMODE_ASYNCHRONOUS_gc;
    1a0a:	85 81       	ldd	r24, Z+5	; 0x05
    1a0c:	8f 73       	andi	r24, 0x3F	; 63
    1a0e:	85 83       	std	Z+5, r24	; 0x05
	
	// USART-Geschwindigkeit:
	if (!(usart->CTRLB & USART_CLK2X_bm)) {
    1a10:	84 81       	ldd	r24, Z+4	; 0x04
    1a12:	82 fd       	sbrc	r24, 2
    1a14:	02 c0       	rjmp	.+4      	; 0x1a1a <uart_enableHardware+0x56>
		speedReg >>= 1; // Nochmal durch 2 teilen wenn wir mit 8 mal lesen fahren.
    1a16:	36 95       	lsr	r19
    1a18:	27 95       	ror	r18
	}
	speedReg--;
    1a1a:	c9 01       	movw	r24, r18
    1a1c:	01 97       	sbiw	r24, 0x01	; 1
	usart->BAUDCTRLA = (unsigned char)speedReg;
    1a1e:	86 83       	std	Z+6, r24	; 0x06
	usart->BAUDCTRLB = (unsigned char)(speedReg >> 8);
    1a20:	97 83       	std	Z+7, r25	; 0x07
	
	// Wortgröße setzen:
	usart->CTRLC = (usart->CTRLC & ~USART_CHSIZE_gm) | USART_CHSIZE_8BIT_gc; // | (flags ? USART_PMODE_EVEN_gc : 0);
    1a22:	85 81       	ldd	r24, Z+5	; 0x05
    1a24:	88 7f       	andi	r24, 0xF8	; 248
    1a26:	83 60       	ori	r24, 0x03	; 3
    1a28:	85 83       	std	Z+5, r24	; 0x05
	
	// Interrupt-Level setzen:
	usart->CTRLA = USART_RXCINTLVL_LO_gc | USART_TXCINTLVL_LO_gc | USART_DREINTLVL_OFF_gc;
    1a2a:	84 e1       	ldi	r24, 0x14	; 20
    1a2c:	83 83       	std	Z+3, r24	; 0x03
	
	// RX und TX an:
	usart->CTRLB |= USART_RXEN_bm | USART_TXEN_bm;
    1a2e:	84 81       	ldd	r24, Z+4	; 0x04
    1a30:	88 61       	ori	r24, 0x18	; 24
    1a32:	84 83       	std	Z+4, r24	; 0x04
	
	// Okay, wir sind dann soweit:
	uart->stateSend = UART_STATE_IDLE;
    1a34:	81 e0       	ldi	r24, 0x01	; 1
    1a36:	8d 83       	std	Y+5, r24	; 0x05
	sei();
    1a38:	78 94       	sei
	
}
    1a3a:	df 91       	pop	r29
    1a3c:	cf 91       	pop	r28
    1a3e:	1f 91       	pop	r17
    1a40:	0f 91       	pop	r16
    1a42:	ff 90       	pop	r15
    1a44:	ef 90       	pop	r14
    1a46:	08 95       	ret

00001a48 <uart_puts_P>:
		res &= rb_put_sync(uart->outputBuffer, *buf++);
	uart->usart->CTRLA |= USART_DREINTLVL_LO_gc;
	return res;
}

unsigned char uart_puts_P(UART_INFO_t * uart, void * buffer, unsigned char buflen) {
    1a48:	ef 92       	push	r14
    1a4a:	ff 92       	push	r15
    1a4c:	0f 93       	push	r16
    1a4e:	1f 93       	push	r17
    1a50:	cf 93       	push	r28
    1a52:	df 93       	push	r29
    1a54:	7c 01       	movw	r14, r24
    1a56:	04 2f       	mov	r16, r20
	unsigned char res = 1;
	unsigned char * buf = (unsigned char*)buffer;
    1a58:	eb 01       	movw	r28, r22
    1a5a:	11 e0       	ldi	r17, 0x01	; 1
    1a5c:	0d c0       	rjmp	.+26     	; 0x1a78 <uart_puts_P+0x30>
	while (buflen--)
    1a5e:	fe 01       	movw	r30, r28
		res &= rb_put_sync(uart->outputBuffer, pgm_read_byte(buf++));
    1a60:	21 96       	adiw	r28, 0x01	; 1
    1a62:	e4 91       	lpm	r30, Z+
    1a64:	d7 01       	movw	r26, r14
    1a66:	12 96       	adiw	r26, 0x02	; 2
    1a68:	8d 91       	ld	r24, X+
    1a6a:	9c 91       	ld	r25, X
    1a6c:	13 97       	sbiw	r26, 0x03	; 3
    1a6e:	6e 2f       	mov	r22, r30
    1a70:	0e 94 1d 0b 	call	0x163a	; 0x163a <rb_put_sync>
    1a74:	18 23       	and	r17, r24
    1a76:	01 50       	subi	r16, 0x01	; 1
}

unsigned char uart_puts_P(UART_INFO_t * uart, void * buffer, unsigned char buflen) {
	unsigned char res = 1;
	unsigned char * buf = (unsigned char*)buffer;
	while (buflen--)
    1a78:	00 23       	and	r16, r16
    1a7a:	89 f7       	brne	.-30     	; 0x1a5e <uart_puts_P+0x16>
		res &= rb_put_sync(uart->outputBuffer, pgm_read_byte(buf++));
	uart->usart->CTRLA |= USART_DREINTLVL_LO_gc;
    1a7c:	d7 01       	movw	r26, r14
    1a7e:	ed 91       	ld	r30, X+
    1a80:	fc 91       	ld	r31, X
    1a82:	83 81       	ldd	r24, Z+3	; 0x03
    1a84:	81 60       	ori	r24, 0x01	; 1
    1a86:	83 83       	std	Z+3, r24	; 0x03
	return res;
}
    1a88:	81 2f       	mov	r24, r17
    1a8a:	df 91       	pop	r29
    1a8c:	cf 91       	pop	r28
    1a8e:	1f 91       	pop	r17
    1a90:	0f 91       	pop	r16
    1a92:	ff 90       	pop	r15
    1a94:	ef 90       	pop	r14
    1a96:	08 95       	ret

00001a98 <uart_puts>:
	unsigned char res = rb_put_sync(uart->outputBuffer, character);
	uart->usart->CTRLA |= USART_DREINTLVL_LO_gc;
	return res;
}

unsigned char uart_puts(UART_INFO_t * uart, void * buffer, unsigned char buflen) {
    1a98:	ef 92       	push	r14
    1a9a:	ff 92       	push	r15
    1a9c:	0f 93       	push	r16
    1a9e:	1f 93       	push	r17
    1aa0:	cf 93       	push	r28
    1aa2:	df 93       	push	r29
    1aa4:	7c 01       	movw	r14, r24
    1aa6:	04 2f       	mov	r16, r20
	unsigned char res = 1;
	unsigned char * buf = (unsigned char*)buffer;
    1aa8:	eb 01       	movw	r28, r22
    1aaa:	11 e0       	ldi	r17, 0x01	; 1
    1aac:	0a c0       	rjmp	.+20     	; 0x1ac2 <uart_puts+0x2a>
	while (buflen--)
		res &= rb_put_sync(uart->outputBuffer, *buf++);
    1aae:	69 91       	ld	r22, Y+
    1ab0:	d7 01       	movw	r26, r14
    1ab2:	12 96       	adiw	r26, 0x02	; 2
    1ab4:	8d 91       	ld	r24, X+
    1ab6:	9c 91       	ld	r25, X
    1ab8:	13 97       	sbiw	r26, 0x03	; 3
    1aba:	0e 94 1d 0b 	call	0x163a	; 0x163a <rb_put_sync>
    1abe:	18 23       	and	r17, r24
    1ac0:	01 50       	subi	r16, 0x01	; 1
}

unsigned char uart_puts(UART_INFO_t * uart, void * buffer, unsigned char buflen) {
	unsigned char res = 1;
	unsigned char * buf = (unsigned char*)buffer;
	while (buflen--)
    1ac2:	00 23       	and	r16, r16
    1ac4:	a1 f7       	brne	.-24     	; 0x1aae <uart_puts+0x16>
		res &= rb_put_sync(uart->outputBuffer, *buf++);
	uart->usart->CTRLA |= USART_DREINTLVL_LO_gc;
    1ac6:	d7 01       	movw	r26, r14
    1ac8:	ed 91       	ld	r30, X+
    1aca:	fc 91       	ld	r31, X
    1acc:	83 81       	ldd	r24, Z+3	; 0x03
    1ace:	81 60       	ori	r24, 0x01	; 1
    1ad0:	83 83       	std	Z+3, r24	; 0x03
	return res;
}
    1ad2:	81 2f       	mov	r24, r17
    1ad4:	df 91       	pop	r29
    1ad6:	cf 91       	pop	r28
    1ad8:	1f 91       	pop	r17
    1ada:	0f 91       	pop	r16
    1adc:	ff 90       	pop	r15
    1ade:	ef 90       	pop	r14
    1ae0:	08 95       	ret

00001ae2 <uart_putc>:
	rb_put(uart->outputBuffer, character);
	uart->usart->CTRLA |= USART_DREINTLVL_LO_gc;
	return 1;
}

unsigned char uart_putc(UART_INFO_t * uart, unsigned char character) {
    1ae2:	0f 93       	push	r16
    1ae4:	1f 93       	push	r17
    1ae6:	8c 01       	movw	r16, r24
	unsigned char res = rb_put_sync(uart->outputBuffer, character);
    1ae8:	dc 01       	movw	r26, r24
    1aea:	12 96       	adiw	r26, 0x02	; 2
    1aec:	8d 91       	ld	r24, X+
    1aee:	9c 91       	ld	r25, X
    1af0:	13 97       	sbiw	r26, 0x03	; 3
    1af2:	0e 94 1d 0b 	call	0x163a	; 0x163a <rb_put_sync>
	uart->usart->CTRLA |= USART_DREINTLVL_LO_gc;
    1af6:	d8 01       	movw	r26, r16
    1af8:	ed 91       	ld	r30, X+
    1afa:	fc 91       	ld	r31, X
    1afc:	93 81       	ldd	r25, Z+3	; 0x03
    1afe:	91 60       	ori	r25, 0x01	; 1
    1b00:	93 83       	std	Z+3, r25	; 0x03
	return res;
}
    1b02:	1f 91       	pop	r17
    1b04:	0f 91       	pop	r16
    1b06:	08 95       	ret

00001b08 <uart_performEchoTest>:
	// Wir gehen davon aus, dass wir immer 10 Bit pro Zeichen senden müssen.
	// Insgesamt ergibt sich daher für die Übertragungszeit:
	return (unsigned int)((((unsigned long int)rxlen * 100) / speedBaud + 5) / 10); // Wir runden korrekt
}

unsigned char uart_performEchoTest(UART_INFO_t * uart, unsigned char character) {
    1b08:	0f 93       	push	r16
    1b0a:	1f 93       	push	r17
    1b0c:	cf 93       	push	r28
    1b0e:	df 93       	push	r29
    1b10:	ec 01       	movw	r28, r24
    1b12:	06 2f       	mov	r16, r22
	unsigned char oldFlags;
	unsigned char timeout = 255;
	if (!uart)
    1b14:	00 97       	sbiw	r24, 0x00	; 0
    1b16:	b9 f1       	breq	.+110    	; 0x1b86 <uart_performEchoTest+0x7e>
    1b18:	1f ef       	ldi	r17, 0xFF	; 255
    1b1a:	06 c0       	rjmp	.+12     	; 0x1b28 <uart_performEchoTest+0x20>
		return 0;
	// Wait until buffer is empty:
	while (uart->outputBuffer->size) {
		if (!(--timeout))
    1b1c:	11 50       	subi	r17, 0x01	; 1
    1b1e:	99 f1       	breq	.+102    	; 0x1b86 <uart_performEchoTest+0x7e>
			return 0;
		wait(1);
    1b20:	81 e0       	ldi	r24, 0x01	; 1
    1b22:	90 e0       	ldi	r25, 0x00	; 0
    1b24:	0e 94 f5 02 	call	0x5ea	; 0x5ea <wait>
	unsigned char oldFlags;
	unsigned char timeout = 255;
	if (!uart)
		return 0;
	// Wait until buffer is empty:
	while (uart->outputBuffer->size) {
    1b28:	ea 81       	ldd	r30, Y+2	; 0x02
    1b2a:	fb 81       	ldd	r31, Y+3	; 0x03
    1b2c:	84 81       	ldd	r24, Z+4	; 0x04
    1b2e:	95 81       	ldd	r25, Z+5	; 0x05
    1b30:	89 2b       	or	r24, r25
    1b32:	a1 f7       	brne	.-24     	; 0x1b1c <uart_performEchoTest+0x14>
		if (!(--timeout))
			return 0;
		wait(1);
	}
	// Memorize old flags:
	oldFlags = uart->flags;
    1b34:	1c 81       	ldd	r17, Y+4	; 0x04
	// No echo suppression, instead perform ECHO TEST:
	uart->flags = UART_FLAG_PERFORM_ECHO_TEST;
    1b36:	88 e0       	ldi	r24, 0x08	; 8
    1b38:	8c 83       	std	Y+4, r24	; 0x04
	// Reset USART TEST status:
	uartTestState = 0;
    1b3a:	10 92 18 29 	sts	0x2918, r1
	uart->usart->CTRLA |= USART_DREINTLVL_LO_gc;
	return 1;
}

unsigned char uart_putc(UART_INFO_t * uart, unsigned char character) {
	unsigned char res = rb_put_sync(uart->outputBuffer, character);
    1b3e:	8a 81       	ldd	r24, Y+2	; 0x02
    1b40:	9b 81       	ldd	r25, Y+3	; 0x03
    1b42:	60 2f       	mov	r22, r16
    1b44:	0e 94 1d 0b 	call	0x163a	; 0x163a <rb_put_sync>
	uart->usart->CTRLA |= USART_DREINTLVL_LO_gc;
    1b48:	e8 81       	ld	r30, Y
    1b4a:	f9 81       	ldd	r31, Y+1	; 0x01
    1b4c:	83 81       	ldd	r24, Z+3	; 0x03
    1b4e:	81 60       	ori	r24, 0x01	; 1
    1b50:	83 83       	std	Z+3, r24	; 0x03
    1b52:	2a e0       	ldi	r18, 0x0A	; 10
    1b54:	40 e4       	ldi	r20, 0x40	; 64
    1b56:	5f e1       	ldi	r21, 0x1F	; 31
    1b58:	05 c0       	rjmp	.+10     	; 0x1b64 <uart_performEchoTest+0x5c>
	uart_putc(uart, character);
	// Bei 2400 Baud brauchen wir 4,5ms pro Zeichen:
	timeout = 10; // Nach 10ms muss spätestens eine Antwort da sein, sonst ist es kein Echo.
	// Wait for a short moment without letting others access the input buffer:
	while (!uartTestState) {
		if (!(--timeout))
    1b5a:	21 50       	subi	r18, 0x01	; 1
    1b5c:	39 f0       	breq	.+14     	; 0x1b6c <uart_performEchoTest+0x64>
    1b5e:	ca 01       	movw	r24, r20
    1b60:	01 97       	sbiw	r24, 0x01	; 1
    1b62:	f1 f7       	brne	.-4      	; 0x1b60 <uart_performEchoTest+0x58>
	// Send out the test character:
	uart_putc(uart, character);
	// Bei 2400 Baud brauchen wir 4,5ms pro Zeichen:
	timeout = 10; // Nach 10ms muss spätestens eine Antwort da sein, sonst ist es kein Echo.
	// Wait for a short moment without letting others access the input buffer:
	while (!uartTestState) {
    1b64:	80 91 18 29 	lds	r24, 0x2918
    1b68:	88 23       	and	r24, r24
    1b6a:	b9 f3       	breq	.-18     	; 0x1b5a <uart_performEchoTest+0x52>
		if (!(--timeout))
			break;
		_delay_ms(1);
	}
	// Restore old flags:
	uart->flags = oldFlags;
    1b6c:	1c 83       	std	Y+4, r17	; 0x04
	// Look at result, return 1 on ECHO SUCCESS.
	if (uartTestState && (character == uartTestData)) {
    1b6e:	80 91 18 29 	lds	r24, 0x2918
    1b72:	88 23       	and	r24, r24
    1b74:	41 f0       	breq	.+16     	; 0x1b86 <uart_performEchoTest+0x7e>
    1b76:	80 91 19 29 	lds	r24, 0x2919
    1b7a:	90 e0       	ldi	r25, 0x00	; 0
    1b7c:	08 13       	cpse	r16, r24
    1b7e:	91 e0       	ldi	r25, 0x01	; 1
    1b80:	81 e0       	ldi	r24, 0x01	; 1
    1b82:	98 27       	eor	r25, r24
    1b84:	01 c0       	rjmp	.+2      	; 0x1b88 <uart_performEchoTest+0x80>
    1b86:	90 e0       	ldi	r25, 0x00	; 0
		return 1;
	} else {
		return 0;
	}
}
    1b88:	89 2f       	mov	r24, r25
    1b8a:	df 91       	pop	r29
    1b8c:	cf 91       	pop	r28
    1b8e:	1f 91       	pop	r17
    1b90:	0f 91       	pop	r16
    1b92:	08 95       	ret

00001b94 <uart_outputValue>:
		res &= rb_put_sync(uart->outputBuffer, pgm_read_byte(buf++));
	uart->usart->CTRLA |= USART_DREINTLVL_LO_gc;
	return res;
}

unsigned char uart_outputValue(UART_INFO_t * uart, unsigned int value) {
    1b94:	cf 92       	push	r12
    1b96:	df 92       	push	r13
    1b98:	ef 92       	push	r14
    1b9a:	ff 92       	push	r15
    1b9c:	0f 93       	push	r16
    1b9e:	1f 93       	push	r17
    1ba0:	df 93       	push	r29
    1ba2:	cf 93       	push	r28
    1ba4:	cd b7       	in	r28, 0x3d	; 61
    1ba6:	de b7       	in	r29, 0x3e	; 62
    1ba8:	2a 97       	sbiw	r28, 0x0a	; 10
    1baa:	cd bf       	out	0x3d, r28	; 61
    1bac:	de bf       	out	0x3e, r29	; 62
    1bae:	7c 01       	movw	r14, r24
    1bb0:	9b 01       	movw	r18, r22
    1bb2:	10 e0       	ldi	r17, 0x00	; 0
	unsigned char buf[10];
	unsigned char i = 0;
	unsigned char ok = 1;
	// Assemble string into number:
	do {
		buf[i++] = value % 10;
    1bb4:	6e 01       	movw	r12, r28
    1bb6:	08 94       	sec
    1bb8:	c1 1c       	adc	r12, r1
    1bba:	d1 1c       	adc	r13, r1
    1bbc:	f6 01       	movw	r30, r12
    1bbe:	e1 0f       	add	r30, r17
    1bc0:	f1 1d       	adc	r31, r1
    1bc2:	c9 01       	movw	r24, r18
    1bc4:	6a e0       	ldi	r22, 0x0A	; 10
    1bc6:	70 e0       	ldi	r23, 0x00	; 0
    1bc8:	0e 94 7d 28 	call	0x50fa	; 0x50fa <__udivmodhi4>
    1bcc:	80 83       	st	Z, r24
    1bce:	1f 5f       	subi	r17, 0xFF	; 255
		value /= 10;
    1bd0:	c9 01       	movw	r24, r18
    1bd2:	6a e0       	ldi	r22, 0x0A	; 10
    1bd4:	70 e0       	ldi	r23, 0x00	; 0
    1bd6:	0e 94 7d 28 	call	0x50fa	; 0x50fa <__udivmodhi4>
    1bda:	9b 01       	movw	r18, r22
	} while (value);
    1bdc:	61 15       	cp	r22, r1
    1bde:	71 05       	cpc	r23, r1
    1be0:	69 f7       	brne	.-38     	; 0x1bbc <uart_outputValue+0x28>
    1be2:	01 e0       	ldi	r16, 0x01	; 1
	uart->usart->CTRLA |= USART_DREINTLVL_LO_gc;
	return 1;
}

unsigned char uart_putc(UART_INFO_t * uart, unsigned char character) {
	unsigned char res = rb_put_sync(uart->outputBuffer, character);
    1be4:	6e 01       	movw	r12, r28
    1be6:	08 94       	sec
    1be8:	c1 1c       	adc	r12, r1
    1bea:	d1 1c       	adc	r13, r1
    1bec:	14 c0       	rjmp	.+40     	; 0x1c16 <uart_outputValue+0x82>
	do {
		buf[i++] = value % 10;
		value /= 10;
	} while (value);
	// Output in reverse order:
	while (i--)
    1bee:	11 50       	subi	r17, 0x01	; 1
	uart->usart->CTRLA |= USART_DREINTLVL_LO_gc;
	return 1;
}

unsigned char uart_putc(UART_INFO_t * uart, unsigned char character) {
	unsigned char res = rb_put_sync(uart->outputBuffer, character);
    1bf0:	f6 01       	movw	r30, r12
    1bf2:	e1 0f       	add	r30, r17
    1bf4:	f1 1d       	adc	r31, r1
    1bf6:	60 81       	ld	r22, Z
    1bf8:	60 5d       	subi	r22, 0xD0	; 208
    1bfa:	d7 01       	movw	r26, r14
    1bfc:	12 96       	adiw	r26, 0x02	; 2
    1bfe:	8d 91       	ld	r24, X+
    1c00:	9c 91       	ld	r25, X
    1c02:	13 97       	sbiw	r26, 0x03	; 3
    1c04:	0e 94 1d 0b 	call	0x163a	; 0x163a <rb_put_sync>
	uart->usart->CTRLA |= USART_DREINTLVL_LO_gc;
    1c08:	d7 01       	movw	r26, r14
    1c0a:	ed 91       	ld	r30, X+
    1c0c:	fc 91       	ld	r31, X
    1c0e:	93 81       	ldd	r25, Z+3	; 0x03
    1c10:	91 60       	ori	r25, 0x01	; 1
    1c12:	93 83       	std	Z+3, r25	; 0x03
		buf[i++] = value % 10;
		value /= 10;
	} while (value);
	// Output in reverse order:
	while (i--)
		ok &= uart_putc(uart, buf[i] + '0');
    1c14:	08 23       	and	r16, r24
	do {
		buf[i++] = value % 10;
		value /= 10;
	} while (value);
	// Output in reverse order:
	while (i--)
    1c16:	11 23       	and	r17, r17
    1c18:	51 f7       	brne	.-44     	; 0x1bee <uart_outputValue+0x5a>
		ok &= uart_putc(uart, buf[i] + '0');
	// Result:
	return ok;
}
    1c1a:	80 2f       	mov	r24, r16
    1c1c:	2a 96       	adiw	r28, 0x0a	; 10
    1c1e:	cd bf       	out	0x3d, r28	; 61
    1c20:	de bf       	out	0x3e, r29	; 62
    1c22:	cf 91       	pop	r28
    1c24:	df 91       	pop	r29
    1c26:	1f 91       	pop	r17
    1c28:	0f 91       	pop	r16
    1c2a:	ff 90       	pop	r15
    1c2c:	ef 90       	pop	r14
    1c2e:	df 90       	pop	r13
    1c30:	cf 90       	pop	r12
    1c32:	08 95       	ret

00001c34 <uart_putc_async>:

unsigned char uart_hasExclusiveAccess(UART_INFO_t * uart, unsigned char ID) {
	return (uart->exclusive == ID) ? 1 : 0;
}

unsigned char uart_putc_async(UART_INFO_t * uart, unsigned char character) {
    1c34:	0f 93       	push	r16
    1c36:	1f 93       	push	r17
    1c38:	8c 01       	movw	r16, r24
	rb_put(uart->outputBuffer, character);
    1c3a:	dc 01       	movw	r26, r24
    1c3c:	12 96       	adiw	r26, 0x02	; 2
    1c3e:	8d 91       	ld	r24, X+
    1c40:	9c 91       	ld	r25, X
    1c42:	13 97       	sbiw	r26, 0x03	; 3
    1c44:	0e 94 7a 0a 	call	0x14f4	; 0x14f4 <rb_put>
	uart->usart->CTRLA |= USART_DREINTLVL_LO_gc;
    1c48:	d8 01       	movw	r26, r16
    1c4a:	ed 91       	ld	r30, X+
    1c4c:	fc 91       	ld	r31, X
    1c4e:	83 81       	ldd	r24, Z+3	; 0x03
    1c50:	81 60       	ori	r24, 0x01	; 1
    1c52:	83 83       	std	Z+3, r24	; 0x03
	return 1;
}
    1c54:	81 e0       	ldi	r24, 0x01	; 1
    1c56:	1f 91       	pop	r17
    1c58:	0f 91       	pop	r16
    1c5a:	08 95       	ret

00001c5c <uart_txCompleteInterrupt>:
		// Interrupt für DRE abschalten:
		uart->usart->CTRLA &= ~USART_DREINTLVL_gm;
	}
}

void uart_txCompleteInterrupt(UART_INFO_t * uart) {
    1c5c:	cf 93       	push	r28
    1c5e:	df 93       	push	r29
    1c60:	ec 01       	movw	r28, r24
	uart->stateSend = UART_STATE_IDLE;
    1c62:	81 e0       	ldi	r24, 0x01	; 1
    1c64:	8d 83       	std	Y+5, r24	; 0x05
	uart_doNotify(uart, UART_EVENT_SENT, 0);
    1c66:	ce 01       	movw	r24, r28
    1c68:	62 e0       	ldi	r22, 0x02	; 2
    1c6a:	40 e0       	ldi	r20, 0x00	; 0
    1c6c:	0e 94 c1 0b 	call	0x1782	; 0x1782 <uart_doNotify>
	if (uart->flags & (UART_FLAG_IGNORE_ECHO | UART_FLAG_IGNORE_ECHO_EX)) {
    1c70:	8c 81       	ldd	r24, Y+4	; 0x04
    1c72:	86 70       	andi	r24, 0x06	; 6
    1c74:	29 f0       	breq	.+10     	; 0x1c80 <uart_txCompleteInterrupt+0x24>
		// Receiver wieder einschalten:
		uart->usart->CTRLB |= USART_RXEN_bm;
    1c76:	e8 81       	ld	r30, Y
    1c78:	f9 81       	ldd	r31, Y+1	; 0x01
    1c7a:	84 81       	ldd	r24, Z+4	; 0x04
    1c7c:	80 61       	ori	r24, 0x10	; 16
    1c7e:	84 83       	std	Z+4, r24	; 0x04
	}
	if (uart->flags & UART_FLAG_IGNORE_ECHO_EX) {
    1c80:	8c 81       	ldd	r24, Y+4	; 0x04
    1c82:	82 ff       	sbrs	r24, 2
    1c84:	08 c0       	rjmp	.+16     	; 0x1c96 <uart_txCompleteInterrupt+0x3a>
		// Timeout einleiten wann wir wieder Bytes annehmen
		uart->doCancelEcho = 1;
    1c86:	81 e0       	ldi	r24, 0x01	; 1
    1c88:	8f 83       	std	Y+7, r24	; 0x07
		uart->lastEchoByteTime = timer_getPreciseTimestamp_async();
    1c8a:	0e 94 e8 05 	call	0xbd0	; 0xbd0 <timer_getPreciseTimestamp_async>
    1c8e:	6a 87       	std	Y+10, r22	; 0x0a
    1c90:	7b 87       	std	Y+11, r23	; 0x0b
    1c92:	8c 87       	std	Y+12, r24	; 0x0c
    1c94:	9d 87       	std	Y+13, r25	; 0x0d
	}
}
    1c96:	df 91       	pop	r29
    1c98:	cf 91       	pop	r28
    1c9a:	08 95       	ret

00001c9c <uart_receivedInterrupt>:
			fromHere = 1;
		}
	}
}

void uart_receivedInterrupt(UART_INFO_t * uart) {
    1c9c:	0f 93       	push	r16
    1c9e:	1f 93       	push	r17
    1ca0:	cf 93       	push	r28
    1ca2:	df 93       	push	r29
    1ca4:	ec 01       	movw	r28, r24
	unsigned char state;
	unsigned char data;
	unsigned char checkByte;
	
	state = uart->usart->STATUS; // Status der UART ZUERST abrufen (Frame error etc)
    1ca6:	e8 81       	ld	r30, Y
    1ca8:	f9 81       	ldd	r31, Y+1	; 0x01
    1caa:	01 81       	ldd	r16, Z+1	; 0x01
	data = uart->usart->DATA; // Muss IMMER abgerufen werden um Interrupt zu löschen!;
    1cac:	10 81       	ld	r17, Z
	
	// Support echo test:
	if (uart->flags & UART_FLAG_PERFORM_ECHO_TEST) {
    1cae:	8c 81       	ldd	r24, Y+4	; 0x04
    1cb0:	83 ff       	sbrs	r24, 3
    1cb2:	06 c0       	rjmp	.+12     	; 0x1cc0 <uart_receivedInterrupt+0x24>
		uartTestState = state;
    1cb4:	00 93 18 29 	sts	0x2918, r16
		uartTestData = data;
    1cb8:	10 93 19 29 	sts	0x2919, r17
		uart->flags &= ~UART_FLAG_PERFORM_ECHO_TEST;
    1cbc:	87 7f       	andi	r24, 0xF7	; 247
    1cbe:	8c 83       	std	Y+4, r24	; 0x04
	}
	
	if ((uart->flags & UART_FLAG_CANCEL_ECHO) && uart->readAhead) { // Wenn wir überhaupt eingehende Daten prüfen wollen..
    1cc0:	8c 81       	ldd	r24, Y+4	; 0x04
    1cc2:	98 2f       	mov	r25, r24
    1cc4:	80 ff       	sbrs	r24, 0
    1cc6:	14 c0       	rjmp	.+40     	; 0x1cf0 <uart_receivedInterrupt+0x54>
    1cc8:	8f 81       	ldd	r24, Y+7	; 0x07
    1cca:	88 23       	and	r24, r24
    1ccc:	89 f0       	breq	.+34     	; 0x1cf0 <uart_receivedInterrupt+0x54>
		checkByte = rb_peek(uart->outputBuffer, 0); // Byte abrufen
    1cce:	8a 81       	ldd	r24, Y+2	; 0x02
    1cd0:	9b 81       	ldd	r25, Y+3	; 0x03
    1cd2:	60 e0       	ldi	r22, 0x00	; 0
    1cd4:	70 e0       	ldi	r23, 0x00	; 0
    1cd6:	0e 94 3c 0a 	call	0x1478	; 0x1478 <rb_peek>
		uart->readAhead--;
    1cda:	9f 81       	ldd	r25, Y+7	; 0x07
    1cdc:	91 50       	subi	r25, 0x01	; 1
    1cde:	9f 83       	std	Y+7, r25	; 0x07
		if (checkByte != data) {
    1ce0:	81 17       	cp	r24, r17
    1ce2:	d9 f0       	breq	.+54     	; 0x1d1a <uart_receivedInterrupt+0x7e>
			uart_doNotify(uart, UART_EVENT_COLLISION, data);
    1ce4:	ce 01       	movw	r24, r28
    1ce6:	65 e0       	ldi	r22, 0x05	; 5
    1ce8:	41 2f       	mov	r20, r17
    1cea:	0e 94 c1 0b 	call	0x1782	; 0x1782 <uart_doNotify>
    1cee:	15 c0       	rjmp	.+42     	; 0x1d1a <uart_receivedInterrupt+0x7e>
		}
	} else if (uart->flags & UART_FLAG_IGNORE_ECHO_EX) {
    1cf0:	92 ff       	sbrs	r25, 2
    1cf2:	13 c0       	rjmp	.+38     	; 0x1d1a <uart_receivedInterrupt+0x7e>
		// Hier prüfen ob das Byte ignoriert werden muss
		if (uart->doCancelEcho) {
    1cf4:	8f 81       	ldd	r24, Y+7	; 0x07
    1cf6:	88 23       	and	r24, r24
    1cf8:	81 f0       	breq	.+32     	; 0x1d1a <uart_receivedInterrupt+0x7e>
			if ((timer_getPreciseTimestamp_async() - uart->lastEchoByteTime) > SUPPRESS_ECHO_DELAY) {
    1cfa:	0e 94 e8 05 	call	0xbd0	; 0xbd0 <timer_getPreciseTimestamp_async>
    1cfe:	2a 85       	ldd	r18, Y+10	; 0x0a
    1d00:	3b 85       	ldd	r19, Y+11	; 0x0b
    1d02:	4c 85       	ldd	r20, Y+12	; 0x0c
    1d04:	5d 85       	ldd	r21, Y+13	; 0x0d
    1d06:	62 1b       	sub	r22, r18
    1d08:	73 0b       	sbc	r23, r19
    1d0a:	84 0b       	sbc	r24, r20
    1d0c:	95 0b       	sbc	r25, r21
    1d0e:	6f 31       	cpi	r22, 0x1F	; 31
    1d10:	71 05       	cpc	r23, r1
    1d12:	81 05       	cpc	r24, r1
    1d14:	91 05       	cpc	r25, r1
    1d16:	58 f0       	brcs	.+22     	; 0x1d2e <uart_receivedInterrupt+0x92>
				uart->doCancelEcho = 0; // Okay, ab hier wieder Normalmodus. Wir lassen das Zeichen durch.
    1d18:	1f 82       	std	Y+7, r1	; 0x07
			} else {
				return; // Dieses Zeichen muss ignoriert werden.
			}
		}
	}
	if (state & (1 << 4)) { // Wenn wir einen frame error haben, haben wir kein normales Zeichen empfangen sondern einen frame error.
    1d1a:	04 ff       	sbrs	r16, 4
    1d1c:	03 c0       	rjmp	.+6      	; 0x1d24 <uart_receivedInterrupt+0x88>
		uart_doNotify(uart, UART_EVENT_FRAME_ERROR, data);
    1d1e:	ce 01       	movw	r24, r28
    1d20:	66 e0       	ldi	r22, 0x06	; 6
    1d22:	02 c0       	rjmp	.+4      	; 0x1d28 <uart_receivedInterrupt+0x8c>
	} else {
		// Alle Unterfunktionen die von dieser UART empfangen benachrichtigen. Puffer werden jeweils nur für die Eingabe-Funktionen bereit gehalten.
		uart_doNotify(uart, UART_EVENT_RECEIVED, data);
    1d24:	ce 01       	movw	r24, r28
    1d26:	61 e0       	ldi	r22, 0x01	; 1
    1d28:	41 2f       	mov	r20, r17
    1d2a:	0e 94 c1 0b 	call	0x1782	; 0x1782 <uart_doNotify>
	}
}
    1d2e:	df 91       	pop	r29
    1d30:	cf 91       	pop	r28
    1d32:	1f 91       	pop	r17
    1d34:	0f 91       	pop	r16
    1d36:	08 95       	ret

00001d38 <uart_dataEmptyInterrupt>:

void uart_dataEmptyInterrupt(UART_INFO_t * uart) {
    1d38:	cf 93       	push	r28
    1d3a:	df 93       	push	r29
    1d3c:	ec 01       	movw	r28, r24
	unsigned char data;
	if (uart->outputBuffer->size) {
    1d3e:	ea 81       	ldd	r30, Y+2	; 0x02
    1d40:	fb 81       	ldd	r31, Y+3	; 0x03
    1d42:	84 81       	ldd	r24, Z+4	; 0x04
    1d44:	95 81       	ldd	r25, Z+5	; 0x05
    1d46:	89 2b       	or	r24, r25
    1d48:	21 f1       	breq	.+72     	; 0x1d92 <uart_dataEmptyInterrupt+0x5a>
		// Zustand: Wir senden
		uart->stateSend = UART_STATE_SENDING;
    1d4a:	82 e0       	ldi	r24, 0x02	; 2
    1d4c:	8d 83       	std	Y+5, r24	; 0x05
		// Daten aus dem Puffer lesen aber drin lassen (gelöscht werden sie, wenn wir den Eingang der Daten geprüft haben und das gleiche rein gekommen ist wie raus gegangen):
		if (uart->flags & UART_FLAG_CANCEL_ECHO) {
    1d4e:	8c 81       	ldd	r24, Y+4	; 0x04
    1d50:	90 e0       	ldi	r25, 0x00	; 0
    1d52:	80 ff       	sbrs	r24, 0
    1d54:	0a c0       	rjmp	.+20     	; 0x1d6a <uart_dataEmptyInterrupt+0x32>
			data = rb_peek(uart->outputBuffer, uart->readAhead);
    1d56:	6f 81       	ldd	r22, Y+7	; 0x07
    1d58:	cf 01       	movw	r24, r30
    1d5a:	70 e0       	ldi	r23, 0x00	; 0
    1d5c:	0e 94 3c 0a 	call	0x1478	; 0x1478 <rb_peek>
    1d60:	98 2f       	mov	r25, r24
			uart->readAhead++;
    1d62:	8f 81       	ldd	r24, Y+7	; 0x07
    1d64:	8f 5f       	subi	r24, 0xFF	; 255
    1d66:	8f 83       	std	Y+7, r24	; 0x07
    1d68:	10 c0       	rjmp	.+32     	; 0x1d8a <uart_dataEmptyInterrupt+0x52>
		} else if (uart->flags & (UART_FLAG_IGNORE_ECHO | UART_FLAG_IGNORE_ECHO_EX)) {
    1d6a:	86 70       	andi	r24, 0x06	; 6
    1d6c:	90 70       	andi	r25, 0x00	; 0
    1d6e:	89 2b       	or	r24, r25
    1d70:	41 f0       	breq	.+16     	; 0x1d82 <uart_dataEmptyInterrupt+0x4a>
			// Receiver so lange abschalten:
			uart->usart->CTRLB &= ~USART_RXEN_bm;
    1d72:	e8 81       	ld	r30, Y
    1d74:	f9 81       	ldd	r31, Y+1	; 0x01
    1d76:	84 81       	ldd	r24, Z+4	; 0x04
    1d78:	8f 7e       	andi	r24, 0xEF	; 239
    1d7a:	84 83       	std	Z+4, r24	; 0x04
			// Daten senden:
			data = rb_get(uart->outputBuffer);
    1d7c:	8a 81       	ldd	r24, Y+2	; 0x02
    1d7e:	9b 81       	ldd	r25, Y+3	; 0x03
    1d80:	01 c0       	rjmp	.+2      	; 0x1d84 <uart_dataEmptyInterrupt+0x4c>
		} else {
			data = rb_get(uart->outputBuffer);
    1d82:	cf 01       	movw	r24, r30
    1d84:	0e 94 b1 0a 	call	0x1562	; 0x1562 <rb_get>
    1d88:	98 2f       	mov	r25, r24
		}
		// Anfangen, die Daten zu senden:
		uart->usart->DATA = data;
    1d8a:	e8 81       	ld	r30, Y
    1d8c:	f9 81       	ldd	r31, Y+1	; 0x01
    1d8e:	90 83       	st	Z, r25
    1d90:	0a c0       	rjmp	.+20     	; 0x1da6 <uart_dataEmptyInterrupt+0x6e>
	} else {
		if (uart->stateSend == UART_STATE_SENDING)
    1d92:	8d 81       	ldd	r24, Y+5	; 0x05
    1d94:	82 30       	cpi	r24, 0x02	; 2
    1d96:	11 f4       	brne	.+4      	; 0x1d9c <uart_dataEmptyInterrupt+0x64>
			uart->stateSend = UART_STATE_WAITING;
    1d98:	83 e0       	ldi	r24, 0x03	; 3
    1d9a:	8d 83       	std	Y+5, r24	; 0x05
		// Interrupt für DRE abschalten:
		uart->usart->CTRLA &= ~USART_DREINTLVL_gm;
    1d9c:	e8 81       	ld	r30, Y
    1d9e:	f9 81       	ldd	r31, Y+1	; 0x01
    1da0:	83 81       	ldd	r24, Z+3	; 0x03
    1da2:	8c 7f       	andi	r24, 0xFC	; 252
    1da4:	83 83       	std	Z+3, r24	; 0x03
	}
}
    1da6:	df 91       	pop	r29
    1da8:	cf 91       	pop	r28
    1daa:	08 95       	ret

00001dac <uart_createUART>:
*/

static volatile unsigned char uartTestState;
static volatile unsigned char uartTestData;

UART_INFO_t * uart_createUART(USART_t * usart, unsigned char flags, void * UARTStructBuffer, unsigned char uartStructSize, void * bufferSpace, unsigned short int bufferSize) {
    1dac:	9f 92       	push	r9
    1dae:	af 92       	push	r10
    1db0:	bf 92       	push	r11
    1db2:	cf 92       	push	r12
    1db4:	df 92       	push	r13
    1db6:	ef 92       	push	r14
    1db8:	ff 92       	push	r15
    1dba:	0f 93       	push	r16
    1dbc:	1f 93       	push	r17
    1dbe:	cf 93       	push	r28
    1dc0:	df 93       	push	r29
    1dc2:	6c 01       	movw	r12, r24
    1dc4:	96 2e       	mov	r9, r22
    1dc6:	b4 2e       	mov	r11, r20
    1dc8:	a5 2e       	mov	r10, r21
	UART_INFO_t * uart = (UART_INFO_t*)UARTStructBuffer;
	RB_BUFFER_t * buf;
	
	// Wenn wir zu wenig Platz haben -> doof
	if ((sizeof(UART_INFO_t) + sizeof(UART_NotifyInfo_t)) > uartStructSize)
    1dca:	25 31       	cpi	r18, 0x15	; 21
    1dcc:	68 f1       	brcs	.+90     	; 0x1e28 <uart_createUART+0x7c>
		return (UART_INFO_t*)0;
	
	{
		unsigned int len = uartStructSize;
    1dce:	c2 2f       	mov	r28, r18
    1dd0:	d0 e0       	ldi	r29, 0x00	; 0
		unsigned char * ptr = (unsigned char*)UARTStructBuffer;
    1dd2:	84 2f       	mov	r24, r20
    1dd4:	95 2f       	mov	r25, r21
    1dd6:	9c 01       	movw	r18, r24
    1dd8:	f9 01       	movw	r30, r18
    1dda:	ce 01       	movw	r24, r28
		while (len--)
			*ptr++ = 0;
    1ddc:	11 92       	st	Z+, r1
    1dde:	01 97       	sbiw	r24, 0x01	; 1
		return (UART_INFO_t*)0;
	
	{
		unsigned int len = uartStructSize;
		unsigned char * ptr = (unsigned char*)UARTStructBuffer;
		while (len--)
    1de0:	e9 f7       	brne	.-6      	; 0x1ddc <uart_createUART+0x30>
			*ptr++ = 0;
	}
	{
		unsigned int len = bufferSize;
		unsigned char * ptr = (unsigned char*)bufferSpace;
    1de2:	f8 01       	movw	r30, r16
    1de4:	c7 01       	movw	r24, r14
    1de6:	02 c0       	rjmp	.+4      	; 0x1dec <uart_createUART+0x40>
		while (len--)
			*ptr++ = 0;
    1de8:	11 92       	st	Z+, r1
    1dea:	01 97       	sbiw	r24, 0x01	; 1
			*ptr++ = 0;
	}
	{
		unsigned int len = bufferSize;
		unsigned char * ptr = (unsigned char*)bufferSpace;
		while (len--)
    1dec:	00 97       	sbiw	r24, 0x00	; 0
    1dee:	e1 f7       	brne	.-8      	; 0x1de8 <uart_createUART+0x3c>
			*ptr++ = 0;
	}
	
	buf = rb_createBuffer(bufferSpace, bufferSize);
    1df0:	c8 01       	movw	r24, r16
    1df2:	b7 01       	movw	r22, r14
    1df4:	0e 94 26 0a 	call	0x144c	; 0x144c <rb_createBuffer>
    1df8:	ac 01       	movw	r20, r24
	if (!buf)
    1dfa:	00 97       	sbiw	r24, 0x00	; 0
    1dfc:	a9 f0       	breq	.+42     	; 0x1e28 <uart_createUART+0x7c>

static volatile unsigned char uartTestState;
static volatile unsigned char uartTestData;

UART_INFO_t * uart_createUART(USART_t * usart, unsigned char flags, void * UARTStructBuffer, unsigned char uartStructSize, void * bufferSpace, unsigned short int bufferSize) {
	UART_INFO_t * uart = (UART_INFO_t*)UARTStructBuffer;
    1dfe:	2b 2d       	mov	r18, r11
    1e00:	3a 2d       	mov	r19, r10
    1e02:	c9 01       	movw	r24, r18
    1e04:	fc 01       	movw	r30, r24
	
	buf = rb_createBuffer(bufferSpace, bufferSize);
	if (!buf)
		return (UART_INFO_t*)0;
	
	uart->usart = usart;
    1e06:	c0 82       	st	Z, r12
    1e08:	d1 82       	std	Z+1, r13	; 0x01
	uart->outputBuffer = buf;
    1e0a:	42 83       	std	Z+2, r20	; 0x02
    1e0c:	53 83       	std	Z+3, r21	; 0x03
	uart->exclusive = 0;
    1e0e:	10 86       	std	Z+8, r1	; 0x08
	uart->exclusiveCount = 0;
    1e10:	11 86       	std	Z+9, r1	; 0x09
	uart->flags = flags;
    1e12:	94 82       	std	Z+4, r9	; 0x04
	uart->notifyCount = (uartStructSize - sizeof(UART_INFO_t)) / sizeof(UART_NotifyInfo_t);
    1e14:	ce 01       	movw	r24, r28
    1e16:	0f 97       	sbiw	r24, 0x0f	; 15
    1e18:	66 e0       	ldi	r22, 0x06	; 6
    1e1a:	70 e0       	ldi	r23, 0x00	; 0
    1e1c:	0e 94 7d 28 	call	0x50fa	; 0x50fa <__udivmodhi4>
    1e20:	66 87       	std	Z+14, r22	; 0x0e
	uart->stateReceive = UART_STATE_NOINIT;
    1e22:	16 82       	std	Z+6, r1	; 0x06
	uart->stateSend = UART_STATE_NOINIT;
    1e24:	15 82       	std	Z+5, r1	; 0x05
    1e26:	02 c0       	rjmp	.+4      	; 0x1e2c <uart_createUART+0x80>
	
	return uart;
    1e28:	e0 e0       	ldi	r30, 0x00	; 0
    1e2a:	f0 e0       	ldi	r31, 0x00	; 0
}
    1e2c:	cf 01       	movw	r24, r30
    1e2e:	df 91       	pop	r29
    1e30:	cf 91       	pop	r28
    1e32:	1f 91       	pop	r17
    1e34:	0f 91       	pop	r16
    1e36:	ff 90       	pop	r15
    1e38:	ef 90       	pop	r14
    1e3a:	df 90       	pop	r13
    1e3c:	cf 90       	pop	r12
    1e3e:	bf 90       	pop	r11
    1e40:	af 90       	pop	r10
    1e42:	9f 90       	pop	r9
    1e44:	08 95       	ret

00001e46 <__vector_25>:
	USART_t * usart = &USARTC0;
	if (hwDef.usartPC == usart)
		uart_dataEmptyInterrupt(uartPC);
}

ISR (USARTC0_RXC_vect) {
    1e46:	1f 92       	push	r1
    1e48:	0f 92       	push	r0
    1e4a:	0f b6       	in	r0, 0x3f	; 63
    1e4c:	0f 92       	push	r0
    1e4e:	08 b6       	in	r0, 0x38	; 56
    1e50:	0f 92       	push	r0
    1e52:	09 b6       	in	r0, 0x39	; 57
    1e54:	0f 92       	push	r0
    1e56:	0b b6       	in	r0, 0x3b	; 59
    1e58:	0f 92       	push	r0
    1e5a:	11 24       	eor	r1, r1
    1e5c:	18 be       	out	0x38, r1	; 56
    1e5e:	19 be       	out	0x39, r1	; 57
    1e60:	1b be       	out	0x3b, r1	; 59
    1e62:	2f 93       	push	r18
    1e64:	3f 93       	push	r19
    1e66:	4f 93       	push	r20
    1e68:	5f 93       	push	r21
    1e6a:	6f 93       	push	r22
    1e6c:	7f 93       	push	r23
    1e6e:	8f 93       	push	r24
    1e70:	9f 93       	push	r25
    1e72:	af 93       	push	r26
    1e74:	bf 93       	push	r27
    1e76:	ef 93       	push	r30
    1e78:	ff 93       	push	r31
	USART_t * usart = &USARTC0;
	if (hwDef.usartPC == usart)
    1e7a:	80 91 0a 2a 	lds	r24, 0x2A0A
    1e7e:	90 91 0b 2a 	lds	r25, 0x2A0B
    1e82:	80 5a       	subi	r24, 0xA0	; 160
    1e84:	98 40       	sbci	r25, 0x08	; 8
    1e86:	31 f4       	brne	.+12     	; 0x1e94 <__vector_25+0x4e>
		uart_receivedInterrupt(uartPC);
    1e88:	80 91 0c 2a 	lds	r24, 0x2A0C
    1e8c:	90 91 0d 2a 	lds	r25, 0x2A0D
    1e90:	0e 94 4e 0e 	call	0x1c9c	; 0x1c9c <uart_receivedInterrupt>
}
    1e94:	ff 91       	pop	r31
    1e96:	ef 91       	pop	r30
    1e98:	bf 91       	pop	r27
    1e9a:	af 91       	pop	r26
    1e9c:	9f 91       	pop	r25
    1e9e:	8f 91       	pop	r24
    1ea0:	7f 91       	pop	r23
    1ea2:	6f 91       	pop	r22
    1ea4:	5f 91       	pop	r21
    1ea6:	4f 91       	pop	r20
    1ea8:	3f 91       	pop	r19
    1eaa:	2f 91       	pop	r18
    1eac:	0f 90       	pop	r0
    1eae:	0b be       	out	0x3b, r0	; 59
    1eb0:	0f 90       	pop	r0
    1eb2:	09 be       	out	0x39, r0	; 57
    1eb4:	0f 90       	pop	r0
    1eb6:	08 be       	out	0x38, r0	; 56
    1eb8:	0f 90       	pop	r0
    1eba:	0f be       	out	0x3f, r0	; 63
    1ebc:	0f 90       	pop	r0
    1ebe:	1f 90       	pop	r1
    1ec0:	18 95       	reti

00001ec2 <__vector_26>:
	USART_t * usart = &USARTC0;
	if (hwDef.usartPC == usart)
		uart_txCompleteInterrupt(uartPC);
}

ISR (USARTC0_DRE_vect) {
    1ec2:	1f 92       	push	r1
    1ec4:	0f 92       	push	r0
    1ec6:	0f b6       	in	r0, 0x3f	; 63
    1ec8:	0f 92       	push	r0
    1eca:	08 b6       	in	r0, 0x38	; 56
    1ecc:	0f 92       	push	r0
    1ece:	09 b6       	in	r0, 0x39	; 57
    1ed0:	0f 92       	push	r0
    1ed2:	0b b6       	in	r0, 0x3b	; 59
    1ed4:	0f 92       	push	r0
    1ed6:	11 24       	eor	r1, r1
    1ed8:	18 be       	out	0x38, r1	; 56
    1eda:	19 be       	out	0x39, r1	; 57
    1edc:	1b be       	out	0x3b, r1	; 59
    1ede:	2f 93       	push	r18
    1ee0:	3f 93       	push	r19
    1ee2:	4f 93       	push	r20
    1ee4:	5f 93       	push	r21
    1ee6:	6f 93       	push	r22
    1ee8:	7f 93       	push	r23
    1eea:	8f 93       	push	r24
    1eec:	9f 93       	push	r25
    1eee:	af 93       	push	r26
    1ef0:	bf 93       	push	r27
    1ef2:	ef 93       	push	r30
    1ef4:	ff 93       	push	r31
	USART_t * usart = &USARTC0;
	if (hwDef.usartPC == usart)
    1ef6:	80 91 0a 2a 	lds	r24, 0x2A0A
    1efa:	90 91 0b 2a 	lds	r25, 0x2A0B
    1efe:	80 5a       	subi	r24, 0xA0	; 160
    1f00:	98 40       	sbci	r25, 0x08	; 8
    1f02:	31 f4       	brne	.+12     	; 0x1f10 <__vector_26+0x4e>
		uart_dataEmptyInterrupt(uartPC);
    1f04:	80 91 0c 2a 	lds	r24, 0x2A0C
    1f08:	90 91 0d 2a 	lds	r25, 0x2A0D
    1f0c:	0e 94 9c 0e 	call	0x1d38	; 0x1d38 <uart_dataEmptyInterrupt>
}
    1f10:	ff 91       	pop	r31
    1f12:	ef 91       	pop	r30
    1f14:	bf 91       	pop	r27
    1f16:	af 91       	pop	r26
    1f18:	9f 91       	pop	r25
    1f1a:	8f 91       	pop	r24
    1f1c:	7f 91       	pop	r23
    1f1e:	6f 91       	pop	r22
    1f20:	5f 91       	pop	r21
    1f22:	4f 91       	pop	r20
    1f24:	3f 91       	pop	r19
    1f26:	2f 91       	pop	r18
    1f28:	0f 90       	pop	r0
    1f2a:	0b be       	out	0x3b, r0	; 59
    1f2c:	0f 90       	pop	r0
    1f2e:	09 be       	out	0x39, r0	; 57
    1f30:	0f 90       	pop	r0
    1f32:	08 be       	out	0x38, r0	; 56
    1f34:	0f 90       	pop	r0
    1f36:	0f be       	out	0x3f, r0	; 63
    1f38:	0f 90       	pop	r0
    1f3a:	1f 90       	pop	r1
    1f3c:	18 95       	reti

00001f3e <__vector_27>:
	// Make connections of UARTs:
	uartPC = uart_createUART(pcUSART, 0, &uart1_mgmt[0], sizeof(uart1_mgmt), &uart1_buffer[0], sizeof(uart1_buffer));
	uart_enableHardware(uartPC, 57600, 0);
}

ISR (USARTC0_TXC_vect) {
    1f3e:	1f 92       	push	r1
    1f40:	0f 92       	push	r0
    1f42:	0f b6       	in	r0, 0x3f	; 63
    1f44:	0f 92       	push	r0
    1f46:	08 b6       	in	r0, 0x38	; 56
    1f48:	0f 92       	push	r0
    1f4a:	09 b6       	in	r0, 0x39	; 57
    1f4c:	0f 92       	push	r0
    1f4e:	0b b6       	in	r0, 0x3b	; 59
    1f50:	0f 92       	push	r0
    1f52:	11 24       	eor	r1, r1
    1f54:	18 be       	out	0x38, r1	; 56
    1f56:	19 be       	out	0x39, r1	; 57
    1f58:	1b be       	out	0x3b, r1	; 59
    1f5a:	2f 93       	push	r18
    1f5c:	3f 93       	push	r19
    1f5e:	4f 93       	push	r20
    1f60:	5f 93       	push	r21
    1f62:	6f 93       	push	r22
    1f64:	7f 93       	push	r23
    1f66:	8f 93       	push	r24
    1f68:	9f 93       	push	r25
    1f6a:	af 93       	push	r26
    1f6c:	bf 93       	push	r27
    1f6e:	ef 93       	push	r30
    1f70:	ff 93       	push	r31
	USART_t * usart = &USARTC0;
	if (hwDef.usartPC == usart)
    1f72:	80 91 0a 2a 	lds	r24, 0x2A0A
    1f76:	90 91 0b 2a 	lds	r25, 0x2A0B
    1f7a:	80 5a       	subi	r24, 0xA0	; 160
    1f7c:	98 40       	sbci	r25, 0x08	; 8
    1f7e:	31 f4       	brne	.+12     	; 0x1f8c <__vector_27+0x4e>
		uart_txCompleteInterrupt(uartPC);
    1f80:	80 91 0c 2a 	lds	r24, 0x2A0C
    1f84:	90 91 0d 2a 	lds	r25, 0x2A0D
    1f88:	0e 94 2e 0e 	call	0x1c5c	; 0x1c5c <uart_txCompleteInterrupt>
}
    1f8c:	ff 91       	pop	r31
    1f8e:	ef 91       	pop	r30
    1f90:	bf 91       	pop	r27
    1f92:	af 91       	pop	r26
    1f94:	9f 91       	pop	r25
    1f96:	8f 91       	pop	r24
    1f98:	7f 91       	pop	r23
    1f9a:	6f 91       	pop	r22
    1f9c:	5f 91       	pop	r21
    1f9e:	4f 91       	pop	r20
    1fa0:	3f 91       	pop	r19
    1fa2:	2f 91       	pop	r18
    1fa4:	0f 90       	pop	r0
    1fa6:	0b be       	out	0x3b, r0	; 59
    1fa8:	0f 90       	pop	r0
    1faa:	09 be       	out	0x39, r0	; 57
    1fac:	0f 90       	pop	r0
    1fae:	08 be       	out	0x38, r0	; 56
    1fb0:	0f 90       	pop	r0
    1fb2:	0f be       	out	0x3f, r0	; 63
    1fb4:	0f 90       	pop	r0
    1fb6:	1f 90       	pop	r1
    1fb8:	18 95       	reti

00001fba <uartmgmt_setupUARTs>:
UART_INFO_t * uartPC;

static unsigned char uart1_mgmt[UART_INFO_T_SIZE(5) + 1] EXTRAM; // 4 Callbacks max
static unsigned char uart1_buffer[2000] EXTRAM;

void uartmgmt_setupUARTs(USART_t * pcUSART) {
    1fba:	ef 92       	push	r14
    1fbc:	ff 92       	push	r15
    1fbe:	0f 93       	push	r16
    1fc0:	1f 93       	push	r17
	// Make connections of UARTs:
	uartPC = uart_createUART(pcUSART, 0, &uart1_mgmt[0], sizeof(uart1_mgmt), &uart1_buffer[0], sizeof(uart1_buffer));
    1fc2:	60 e0       	ldi	r22, 0x00	; 0
    1fc4:	40 e8       	ldi	r20, 0x80	; 128
    1fc6:	50 e4       	ldi	r21, 0x40	; 64
    1fc8:	2e e2       	ldi	r18, 0x2E	; 46
    1fca:	0e ea       	ldi	r16, 0xAE	; 174
    1fcc:	10 e4       	ldi	r17, 0x40	; 64
    1fce:	30 ed       	ldi	r19, 0xD0	; 208
    1fd0:	e3 2e       	mov	r14, r19
    1fd2:	37 e0       	ldi	r19, 0x07	; 7
    1fd4:	f3 2e       	mov	r15, r19
    1fd6:	0e 94 d6 0e 	call	0x1dac	; 0x1dac <uart_createUART>
    1fda:	80 93 0c 2a 	sts	0x2A0C, r24
    1fde:	90 93 0d 2a 	sts	0x2A0D, r25
	uart_enableHardware(uartPC, 57600, 0);
    1fe2:	40 e0       	ldi	r20, 0x00	; 0
    1fe4:	51 ee       	ldi	r21, 0xE1	; 225
    1fe6:	60 e0       	ldi	r22, 0x00	; 0
    1fe8:	70 e0       	ldi	r23, 0x00	; 0
    1fea:	20 e0       	ldi	r18, 0x00	; 0
    1fec:	0e 94 e2 0c 	call	0x19c4	; 0x19c4 <uart_enableHardware>
}
    1ff0:	1f 91       	pop	r17
    1ff2:	0f 91       	pop	r16
    1ff4:	ff 90       	pop	r15
    1ff6:	ef 90       	pop	r14
    1ff8:	08 95       	ret

00001ffa <increaseSequenceNumber>:
	uart_putc(uart, (unsigned char)crc);
	
	// Fertig! Die Verwaltung der Sequenznummer kommt später
}

void increaseSequenceNumber(unsigned char * seqNum) {
    1ffa:	fc 01       	movw	r30, r24
    1ffc:	90 e0       	ldi	r25, 0x00	; 0
	unsigned char i = 6;
	for (i=0;i<6;i++) {
		if (++seqNum[i]) // Rolling counter. Overflow => value 0 => NO break => Increase next index
    1ffe:	80 81       	ld	r24, Z
    2000:	8f 5f       	subi	r24, 0xFF	; 255
    2002:	80 83       	st	Z, r24
    2004:	88 23       	and	r24, r24
    2006:	21 f4       	brne	.+8      	; 0x2010 <increaseSequenceNumber+0x16>
	// Fertig! Die Verwaltung der Sequenznummer kommt später
}

void increaseSequenceNumber(unsigned char * seqNum) {
	unsigned char i = 6;
	for (i=0;i<6;i++) {
    2008:	9f 5f       	subi	r25, 0xFF	; 255
    200a:	31 96       	adiw	r30, 0x01	; 1
    200c:	96 30       	cpi	r25, 0x06	; 6
    200e:	b9 f7       	brne	.-18     	; 0x1ffe <increaseSequenceNumber+0x4>
    2010:	08 95       	ret

00002012 <com_sendProtocolMessage>:
}


void increaseSequenceNumber(unsigned char * seqNum);

void com_sendProtocolMessage(UART_INFO_t * uart, MESSAGE_t * msg) {
    2012:	2f 92       	push	r2
    2014:	3f 92       	push	r3
    2016:	4f 92       	push	r4
    2018:	5f 92       	push	r5
    201a:	6f 92       	push	r6
    201c:	7f 92       	push	r7
    201e:	8f 92       	push	r8
    2020:	9f 92       	push	r9
    2022:	af 92       	push	r10
    2024:	bf 92       	push	r11
    2026:	cf 92       	push	r12
    2028:	df 92       	push	r13
    202a:	ef 92       	push	r14
    202c:	ff 92       	push	r15
    202e:	0f 93       	push	r16
    2030:	1f 93       	push	r17
    2032:	df 93       	push	r29
    2034:	cf 93       	push	r28
    2036:	cd b7       	in	r28, 0x3d	; 61
    2038:	de b7       	in	r29, 0x3e	; 62
    203a:	6a 97       	sbiw	r28, 0x1a	; 26
    203c:	cd bf       	out	0x3d, r28	; 61
    203e:	de bf       	out	0x3e, r29	; 62
    2040:	2c 01       	movw	r4, r24
    2042:	fb 01       	movw	r30, r22
	// Prüfsumme fehlt noch:
	uart_putc(uart, (unsigned char)(crc >> 8));
	uart_putc(uart, (unsigned char)crc);
	
	// Fertig! Die Verwaltung der Sequenznummer kommt später
}
    2044:	2d b7       	in	r18, 0x3d	; 61
    2046:	3e b7       	in	r19, 0x3e	; 62
    2048:	2f 8b       	std	Y+23, r18	; 0x17
    204a:	38 8f       	std	Y+24, r19	; 0x18

void increaseSequenceNumber(unsigned char * seqNum);

void com_sendProtocolMessage(UART_INFO_t * uart, MESSAGE_t * msg) {
	// Pointer auf die Nachrichtendaten:
	unsigned char * toSend = msg->content;
    204c:	30 89       	ldd	r19, Z+16	; 0x10
    204e:	39 8f       	std	Y+25, r19	; 0x19
    2050:	81 89       	ldd	r24, Z+17	; 0x11
    2052:	8a 8f       	std	Y+26, r24	; 0x1a
	unsigned short int len = msg->len;
    2054:	a2 88       	ldd	r10, Z+18	; 0x12
    2056:	b3 88       	ldd	r11, Z+19	; 0x13
	
	// Eventuell verschlüsseln wir. Dafür brauchen wir genug Platz im Puffer:
	unsigned char data[sizeof(MESSAGE_t)+len+2/*Extra CRC*/+6/* SeqNum */]; // Platz für den Worst Case (Verschlüsselt mit Unterprotokoll). Startbyte und Länge senden wir fix
    2058:	c5 01       	movw	r24, r10
    205a:	4c 96       	adiw	r24, 0x1c	; 28
    205c:	ad b7       	in	r26, 0x3d	; 61
    205e:	be b7       	in	r27, 0x3e	; 62
    2060:	a8 1b       	sub	r26, r24
    2062:	b9 0b       	sbc	r27, r25
    2064:	ad bf       	out	0x3d, r26	; 61
    2066:	be bf       	out	0x3e, r27	; 62
    2068:	2d b7       	in	r18, 0x3d	; 61
    206a:	3e b7       	in	r19, 0x3e	; 62
    206c:	2f 5f       	subi	r18, 0xFF	; 255
    206e:	3f 4f       	sbci	r19, 0xFF	; 255
    2070:	2d 8b       	std	Y+21, r18	; 0x15
    2072:	3e 8b       	std	Y+22, r19	; 0x16
	unsigned char * ptr1 = &data[2]; // Wir lassen die Bytes 0 und 1 aus, da kommt später noch die Länge der Nachricht rein
    2074:	ed b6       	in	r14, 0x3d	; 61
    2076:	fe b6       	in	r15, 0x3e	; 62
    2078:	83 e0       	ldi	r24, 0x03	; 3
    207a:	90 e0       	ldi	r25, 0x00	; 0
    207c:	e8 0e       	add	r14, r24
    207e:	f9 1e       	adc	r15, r25
	unsigned char * ptr2 = &msg->sequence[0];
	unsigned short int i;
	unsigned short int crc = 0xffff;
	MESSAGE_t msgNew = *msg;
    2080:	de 01       	movw	r26, r28
    2082:	11 96       	adiw	r26, 0x01	; 1
    2084:	84 e1       	ldi	r24, 0x14	; 20
    2086:	01 90       	ld	r0, Z+
    2088:	0d 92       	st	X+, r0
    208a:	81 50       	subi	r24, 0x01	; 1
    208c:	e1 f7       	brne	.-8      	; 0x2086 <com_sendProtocolMessage+0x74>
	
	// Nachrichten gehen immer von uns aus:
	msgNew.msgSrc = settings.networkAddress;
    208e:	80 91 12 2a 	lds	r24, 0x2A12
    2092:	90 91 13 2a 	lds	r25, 0x2A13
    2096:	a0 91 14 2a 	lds	r26, 0x2A14
    209a:	b0 91 15 2a 	lds	r27, 0x2A15
    209e:	8d 83       	std	Y+5, r24	; 0x05
    20a0:	9e 83       	std	Y+6, r25	; 0x06
    20a2:	af 83       	std	Y+7, r26	; 0x07
    20a4:	b8 87       	std	Y+8, r27	; 0x08
	
	// Korrekte Endiannes bei Quelle/Ziel und Ports herstellen:
	reverseByteOrder(&msgNew.msgSrc, 4);
    20a6:	8e 01       	movw	r16, r28
    20a8:	0b 5f       	subi	r16, 0xFB	; 251
    20aa:	1f 4f       	sbci	r17, 0xFF	; 255
    20ac:	c8 01       	movw	r24, r16
    20ae:	64 e0       	ldi	r22, 0x04	; 4
    20b0:	0e 94 77 02 	call	0x4ee	; 0x4ee <reverseByteOrder>
	reverseByteOrder(&msgNew.msgDest, 4);
    20b4:	1e 01       	movw	r2, r28
    20b6:	08 94       	sec
    20b8:	21 1c       	adc	r2, r1
    20ba:	31 1c       	adc	r3, r1
    20bc:	c1 01       	movw	r24, r2
    20be:	64 e0       	ldi	r22, 0x04	; 4
    20c0:	0e 94 77 02 	call	0x4ee	; 0x4ee <reverseByteOrder>
	reverseByteOrder(&msgNew.srcPort, 2);
    20c4:	ce 01       	movw	r24, r28
    20c6:	09 96       	adiw	r24, 0x09	; 9
    20c8:	62 e0       	ldi	r22, 0x02	; 2
    20ca:	0e 94 77 02 	call	0x4ee	; 0x4ee <reverseByteOrder>
	reverseByteOrder(&msgNew.dstPort, 2);
    20ce:	ce 01       	movw	r24, r28
    20d0:	0b 96       	adiw	r24, 0x0b	; 11
    20d2:	62 e0       	ldi	r22, 0x02	; 2
    20d4:	0e 94 77 02 	call	0x4ee	; 0x4ee <reverseByteOrder>
	
	// Destination address
	i = 4;
	ptr2 = (unsigned char*)&msgNew.msgDest;
    20d8:	f7 01       	movw	r30, r14
    20da:	41 01       	movw	r8, r2
}


void increaseSequenceNumber(unsigned char * seqNum);

void com_sendProtocolMessage(UART_INFO_t * uart, MESSAGE_t * msg) {
    20dc:	91 01       	movw	r18, r2
    20de:	04 c0       	rjmp	.+8      	; 0x20e8 <com_sendProtocolMessage+0xd6>
	
	// Destination address
	i = 4;
	ptr2 = (unsigned char*)&msgNew.msgDest;
	while (i--)
		*ptr1++ = *ptr2++;
    20e0:	d4 01       	movw	r26, r8
    20e2:	8d 91       	ld	r24, X+
    20e4:	4d 01       	movw	r8, r26
    20e6:	81 93       	st	Z+, r24
	reverseByteOrder(&msgNew.dstPort, 2);
	
	// Destination address
	i = 4;
	ptr2 = (unsigned char*)&msgNew.msgDest;
	while (i--)
    20e8:	80 16       	cp	r8, r16
    20ea:	91 06       	cpc	r9, r17
    20ec:	c9 f7       	brne	.-14     	; 0x20e0 <com_sendProtocolMessage+0xce>
    20ee:	94 e0       	ldi	r25, 0x04	; 4
    20f0:	c9 2e       	mov	r12, r25
    20f2:	d1 2c       	mov	r13, r1
    20f4:	ce 0c       	add	r12, r14
    20f6:	df 1c       	adc	r13, r15
		*ptr1++ = *ptr2++;
	
	// Source address
	i = 4;
	ptr2 = (unsigned char*)&msgNew.msgSrc;
    20f8:	d7 01       	movw	r26, r14
    20fa:	f4 01       	movw	r30, r8
	while (i--)
    20fc:	28 5f       	subi	r18, 0xF8	; 248
    20fe:	3f 4f       	sbci	r19, 0xFF	; 255
    2100:	04 c0       	rjmp	.+8      	; 0x210a <com_sendProtocolMessage+0xf8>
		*ptr1++ = *ptr2++;
    2102:	81 91       	ld	r24, Z+
    2104:	13 96       	adiw	r26, 0x03	; 3
    2106:	8c 93       	st	X, r24
    2108:	13 97       	sbiw	r26, 0x03	; 3
    210a:	11 96       	adiw	r26, 0x01	; 1
		*ptr1++ = *ptr2++;
	
	// Source address
	i = 4;
	ptr2 = (unsigned char*)&msgNew.msgSrc;
	while (i--)
    210c:	e2 17       	cp	r30, r18
    210e:	f3 07       	cpc	r31, r19
    2110:	c1 f7       	brne	.-16     	; 0x2102 <com_sendProtocolMessage+0xf0>
    2112:	86 01       	movw	r16, r12
    2114:	0c 5f       	subi	r16, 0xFC	; 252
    2116:	1f 4f       	sbci	r17, 0xFF	; 255
	while (i--)
		*ptr1++ = *ptr2++;
#endif
	
	// Wenn wir verschlüsseln sollen brauchen wir dafür eine Sequenznummer!
	if ((msgNew.flags & MSG_FLAG_ENCRYPTED) && (!msgNew.sequence)) {
    2118:	8d 85       	ldd	r24, Y+13	; 0x0d
    211a:	81 ff       	sbrs	r24, 1
    211c:	0a c0       	rjmp	.+20     	; 0x2132 <com_sendProtocolMessage+0x120>
    211e:	8e 85       	ldd	r24, Y+14	; 0x0e
    2120:	9f 85       	ldd	r25, Y+15	; 0x0f
    2122:	89 2b       	or	r24, r25
    2124:	31 f4       	brne	.+12     	; 0x2132 <com_sendProtocolMessage+0x120>
		ON(LED1);
    2126:	82 e0       	ldi	r24, 0x02	; 2
    2128:	0e 94 a4 07 	call	0xf48	; 0xf48 <hw_setOn>
		msgNew.flags &= ~MSG_FLAG_ENCRYPTED;
    212c:	8d 85       	ldd	r24, Y+13	; 0x0d
    212e:	8d 7f       	andi	r24, 0xFD	; 253
    2130:	8d 87       	std	Y+13, r24	; 0x0d
	}
	
	// Flag-Byte:
	*ptr1++ = msgNew.flags;
    2132:	8d 85       	ldd	r24, Y+13	; 0x0d
    2134:	f6 01       	movw	r30, r12
    2136:	84 83       	std	Z+4, r24	; 0x04
    2138:	d8 01       	movw	r26, r16
    213a:	11 96       	adiw	r26, 0x01	; 1
	
	if (msgNew.flags & MSG_FLAG_SUBPROTOCOL)
    213c:	98 2f       	mov	r25, r24
    213e:	80 ff       	sbrs	r24, 0
    2140:	04 c0       	rjmp	.+8      	; 0x214a <com_sendProtocolMessage+0x138>
		*ptr1++ = msgNew.subProtocol;
    2142:	88 89       	ldd	r24, Y+16	; 0x10
    2144:	f8 01       	movw	r30, r16
    2146:	81 83       	std	Z+1, r24	; 0x01
    2148:	11 96       	adiw	r26, 0x01	; 1
	
	// Bei Verschlüsselung müssen wir die Daten erst verschlüsseln und dann in der Nachricht austauschen:
	if (msgNew.flags & MSG_FLAG_ENCRYPTED) {
    214a:	91 fd       	sbrc	r25, 1
    214c:	07 c0       	rjmp	.+14     	; 0x215c <com_sendProtocolMessage+0x14a>
    214e:	ad 01       	movw	r20, r26
    2150:	89 8d       	ldd	r24, Y+25	; 0x19
    2152:	9a 8d       	ldd	r25, Y+26	; 0x1a
    2154:	9c 01       	movw	r18, r24
    2156:	b9 01       	movw	r22, r18
    2158:	95 01       	movw	r18, r10
    215a:	58 c0       	rjmp	.+176    	; 0x220c <com_sendProtocolMessage+0x1fa>
		// Sequenznummer einbauen:
		ptr2 = &msgNew.sequence[0];
    215c:	4e 85       	ldd	r20, Y+14	; 0x0e
    215e:	5f 85       	ldd	r21, Y+15	; 0x0f
    2160:	bd 01       	movw	r22, r26
    2162:	26 e0       	ldi	r18, 0x06	; 6
    2164:	30 e0       	ldi	r19, 0x00	; 0
    2166:	06 c0       	rjmp	.+12     	; 0x2174 <com_sendProtocolMessage+0x162>
		i = 6;
		while (i--)
			*ptr1++ = *ptr2++;
    2168:	fa 01       	movw	r30, r20
    216a:	81 91       	ld	r24, Z+
    216c:	af 01       	movw	r20, r30
    216e:	fb 01       	movw	r30, r22
    2170:	81 93       	st	Z+, r24
    2172:	bf 01       	movw	r22, r30
	// Bei Verschlüsselung müssen wir die Daten erst verschlüsseln und dann in der Nachricht austauschen:
	if (msgNew.flags & MSG_FLAG_ENCRYPTED) {
		// Sequenznummer einbauen:
		ptr2 = &msgNew.sequence[0];
		i = 6;
		while (i--)
    2174:	21 50       	subi	r18, 0x01	; 1
    2176:	30 40       	sbci	r19, 0x00	; 0
    2178:	ff ef       	ldi	r31, 0xFF	; 255
    217a:	2f 3f       	cpi	r18, 0xFF	; 255
    217c:	3f 07       	cpc	r19, r31
    217e:	a1 f7       	brne	.-24     	; 0x2168 <com_sendProtocolMessage+0x156>
    2180:	86 e0       	ldi	r24, 0x06	; 6
    2182:	68 2e       	mov	r6, r24
    2184:	71 2c       	mov	r7, r1
    2186:	6a 0e       	add	r6, r26
    2188:	7b 1e       	adc	r7, r27
    218a:	6d 01       	movw	r12, r26
    218c:	89 8d       	ldd	r24, Y+25	; 0x19
    218e:	9a 8d       	ldd	r25, Y+26	; 0x1a
    2190:	9c 01       	movw	r18, r24
    2192:	79 01       	movw	r14, r18
    2194:	85 01       	movw	r16, r10
    2196:	2f ef       	ldi	r18, 0xFF	; 255
    2198:	3f ef       	ldi	r19, 0xFF	; 255
    219a:	0f c0       	rjmp	.+30     	; 0x21ba <com_sendProtocolMessage+0x1a8>
		startOfEncryption = ptr1;
		// Daten kopieren und CRC berechnen:
		ptr2 = toSend;
		i = len;
		while (i--) {
			crc = crc_calcCRC16r(crc, *ptr2);
    219c:	d7 01       	movw	r26, r14
    219e:	6c 91       	ld	r22, X
    21a0:	c9 01       	movw	r24, r18
    21a2:	70 e0       	ldi	r23, 0x00	; 0
    21a4:	0e 94 83 13 	call	0x2706	; 0x2706 <crc_calcCRC16r>
    21a8:	9c 01       	movw	r18, r24
			*ptr1++ = *ptr2++;
    21aa:	f7 01       	movw	r30, r14
    21ac:	81 91       	ld	r24, Z+
    21ae:	7f 01       	movw	r14, r30
    21b0:	d6 01       	movw	r26, r12
    21b2:	15 96       	adiw	r26, 0x05	; 5
    21b4:	8c 93       	st	X, r24
    21b6:	01 50       	subi	r16, 0x01	; 1
    21b8:	10 40       	sbci	r17, 0x00	; 0
    21ba:	08 94       	sec
    21bc:	c1 1c       	adc	r12, r1
    21be:	d1 1c       	adc	r13, r1
		unsigned char * startOfEncryption;
		startOfEncryption = ptr1;
		// Daten kopieren und CRC berechnen:
		ptr2 = toSend;
		i = len;
		while (i--) {
    21c0:	01 15       	cp	r16, r1
    21c2:	11 05       	cpc	r17, r1
    21c4:	59 f7       	brne	.-42     	; 0x219c <com_sendProtocolMessage+0x18a>
    21c6:	f3 01       	movw	r30, r6
    21c8:	ea 0d       	add	r30, r10
    21ca:	fb 1d       	adc	r31, r11
			crc = crc_calcCRC16r(crc, *ptr2);
			*ptr1++ = *ptr2++;
		}
		// Was kommt durch die Verschlüsselung hinzu? Die Sequenznummer und am Ende nochmal eine 16 Bit-CRC
		// CRC anhängen:
		*ptr1++ = (unsigned char)(crc >> 8);
    21cc:	df 01       	movw	r26, r30
    21ce:	3d 93       	st	X+, r19
		*ptr1++ = (unsigned char)crc;
    21d0:	21 83       	std	Z+1, r18	; 0x01
    21d2:	7d 01       	movw	r14, r26
    21d4:	08 94       	sec
    21d6:	e1 1c       	adc	r14, r1
    21d8:	f1 1c       	adc	r15, r1
		// Inhalt verschlüsseln:
		aes_encryptDecryptData(startOfEncryption, len + 2, (unsigned char*)&msgNew.msgSrc, (unsigned char*)&msgNew.msgDest, &msgNew.sequence[0]);
    21da:	e2 e0       	ldi	r30, 0x02	; 2
    21dc:	f0 e0       	ldi	r31, 0x00	; 0
    21de:	ae 0e       	add	r10, r30
    21e0:	bf 1e       	adc	r11, r31
    21e2:	0e 85       	ldd	r16, Y+14	; 0x0e
    21e4:	1f 85       	ldd	r17, Y+15	; 0x0f
    21e6:	c3 01       	movw	r24, r6
    21e8:	b5 01       	movw	r22, r10
    21ea:	a4 01       	movw	r20, r8
    21ec:	91 01       	movw	r18, r2
    21ee:	0e 94 98 13 	call	0x2730	; 0x2730 <aes_encryptDecryptData>
		// Okay, wir senden statt der ursprünglichen Daten die verschlüsselte Version:
		toSend = &data[0];
		len+=8;
		// Im Anschluss müssen wir die Sequenznummer erhöhen damit wir nächstes mal entweder mit der neuen Sequenznummer verschlüsseln aber auch nichts kleineres mehr akzeptieren:
		increaseSequenceNumber(msgNew.sequence);
    21f2:	8e 85       	ldd	r24, Y+14	; 0x0e
    21f4:	9f 85       	ldd	r25, Y+15	; 0x0f
    21f6:	0e 94 fd 0f 	call	0x1ffa	; 0x1ffa <increaseSequenceNumber>
    21fa:	0e c0       	rjmp	.+28     	; 0x2218 <com_sendProtocolMessage+0x206>
	} else {
		ptr2 = toSend;
		i = len;
		while (i--)
			*ptr1++ = *ptr2++;
    21fc:	fb 01       	movw	r30, r22
    21fe:	81 91       	ld	r24, Z+
    2200:	bf 01       	movw	r22, r30
    2202:	fa 01       	movw	r30, r20
    2204:	81 93       	st	Z+, r24
    2206:	af 01       	movw	r20, r30
    2208:	21 50       	subi	r18, 0x01	; 1
    220a:	30 40       	sbci	r19, 0x00	; 0
		// Im Anschluss müssen wir die Sequenznummer erhöhen damit wir nächstes mal entweder mit der neuen Sequenznummer verschlüsseln aber auch nichts kleineres mehr akzeptieren:
		increaseSequenceNumber(msgNew.sequence);
	} else {
		ptr2 = toSend;
		i = len;
		while (i--)
    220c:	21 15       	cp	r18, r1
    220e:	31 05       	cpc	r19, r1
    2210:	a9 f7       	brne	.-22     	; 0x21fc <com_sendProtocolMessage+0x1ea>
    2212:	7d 01       	movw	r14, r26
    2214:	ea 0c       	add	r14, r10
    2216:	fb 1c       	adc	r15, r11
			*ptr1++ = *ptr2++;
	}
	
	// Das war ursprünglich nur die Länge der eigentlichen Daten. Korrigieren:
	len = ((unsigned int)ptr1 - (unsigned int)&data[0]);
    2218:	cd 88       	ldd	r12, Y+21	; 0x15
    221a:	de 88       	ldd	r13, Y+22	; 0x16
    221c:	87 01       	movw	r16, r14
    221e:	0c 19       	sub	r16, r12
    2220:	1d 09       	sbc	r17, r13
	
	data[0] = (unsigned char)((len-2) >> 8); // 2 abziehen, die Längen-Bytes dürfen wir im fertigen Frame für die Nachrichtenlänge nicht mit angeben
    2222:	02 50       	subi	r16, 0x02	; 2
    2224:	10 40       	sbci	r17, 0x00	; 0
    2226:	d6 01       	movw	r26, r12
    2228:	1c 93       	st	X, r17
    222a:	0e 5f       	subi	r16, 0xFE	; 254
    222c:	1f 4f       	sbci	r17, 0xFF	; 255
	data[1] = (unsigned char)(len-2);
    222e:	80 2f       	mov	r24, r16
    2230:	82 50       	subi	r24, 0x02	; 2
    2232:	11 96       	adiw	r26, 0x01	; 1
    2234:	8c 93       	st	X, r24
	
	// Nachricht senden und in einem Rutsch die Prüfsumme berechnen. AB HIER muss das portiert werden so dass die Bytes die per "uart_putc" raus
	// geschickt werden auf der UART landen.
	uart_putc(uart, SYNCBYTE);
    2236:	c2 01       	movw	r24, r4
    2238:	63 ef       	ldi	r22, 0xF3	; 243
    223a:	0e 94 71 0d 	call	0x1ae2	; 0x1ae2 <uart_putc>
    223e:	ee 24       	eor	r14, r14
    2240:	ea 94       	dec	r14
    2242:	fe 2c       	mov	r15, r14
    2244:	aa 24       	eor	r10, r10
    2246:	bb 24       	eor	r11, r11
    2248:	10 c0       	rjmp	.+32     	; 0x226a <com_sendProtocolMessage+0x258>
	
	crc = 0xffff;
	for (i=0;i<len;i++) {
		crc = crc_calcCRC16r(crc, data[i]);
    224a:	f6 01       	movw	r30, r12
    224c:	60 81       	ld	r22, Z
    224e:	c7 01       	movw	r24, r14
    2250:	70 e0       	ldi	r23, 0x00	; 0
    2252:	0e 94 83 13 	call	0x2706	; 0x2706 <crc_calcCRC16r>
    2256:	7c 01       	movw	r14, r24
		uart_putc(uart, data[i]);
    2258:	c2 01       	movw	r24, r4
    225a:	d6 01       	movw	r26, r12
    225c:	6d 91       	ld	r22, X+
    225e:	6d 01       	movw	r12, r26
    2260:	0e 94 71 0d 	call	0x1ae2	; 0x1ae2 <uart_putc>
	// Nachricht senden und in einem Rutsch die Prüfsumme berechnen. AB HIER muss das portiert werden so dass die Bytes die per "uart_putc" raus
	// geschickt werden auf der UART landen.
	uart_putc(uart, SYNCBYTE);
	
	crc = 0xffff;
	for (i=0;i<len;i++) {
    2264:	08 94       	sec
    2266:	a1 1c       	adc	r10, r1
    2268:	b1 1c       	adc	r11, r1
    226a:	a0 16       	cp	r10, r16
    226c:	b1 06       	cpc	r11, r17
    226e:	68 f3       	brcs	.-38     	; 0x224a <com_sendProtocolMessage+0x238>
		crc = crc_calcCRC16r(crc, data[i]);
		uart_putc(uart, data[i]);
	}
	// Prüfsumme fehlt noch:
	uart_putc(uart, (unsigned char)(crc >> 8));
    2270:	c2 01       	movw	r24, r4
    2272:	6f 2d       	mov	r22, r15
    2274:	0e 94 71 0d 	call	0x1ae2	; 0x1ae2 <uart_putc>
	uart_putc(uart, (unsigned char)crc);
    2278:	c2 01       	movw	r24, r4
    227a:	6e 2d       	mov	r22, r14
    227c:	0e 94 71 0d 	call	0x1ae2	; 0x1ae2 <uart_putc>
	
	// Fertig! Die Verwaltung der Sequenznummer kommt später
}
    2280:	ef 89       	ldd	r30, Y+23	; 0x17
    2282:	f8 8d       	ldd	r31, Y+24	; 0x18
    2284:	ed bf       	out	0x3d, r30	; 61
    2286:	fe bf       	out	0x3e, r31	; 62
    2288:	6a 96       	adiw	r28, 0x1a	; 26
    228a:	cd bf       	out	0x3d, r28	; 61
    228c:	de bf       	out	0x3e, r29	; 62
    228e:	cf 91       	pop	r28
    2290:	df 91       	pop	r29
    2292:	1f 91       	pop	r17
    2294:	0f 91       	pop	r16
    2296:	ff 90       	pop	r15
    2298:	ef 90       	pop	r14
    229a:	df 90       	pop	r13
    229c:	cf 90       	pop	r12
    229e:	bf 90       	pop	r11
    22a0:	af 90       	pop	r10
    22a2:	9f 90       	pop	r9
    22a4:	8f 90       	pop	r8
    22a6:	7f 90       	pop	r7
    22a8:	6f 90       	pop	r6
    22aa:	5f 90       	pop	r5
    22ac:	4f 90       	pop	r4
    22ae:	3f 90       	pop	r3
    22b0:	2f 90       	pop	r2
    22b2:	08 95       	ret

000022b4 <com_protocolMessage>:
			}
		}
	}
}

void com_protocolMessage(MESSAGE_t * msg) {
    22b4:	fc 01       	movw	r30, r24
	
	
	// Ein komplettes Paket wurde empfangen. An CoAP oder sonst wen weiter geben (abhängig vom Sub-Protokoll)
	if (msg->subProtocol == 0) {
    22b6:	87 85       	ldd	r24, Z+15	; 0x0f
    22b8:	88 23       	and	r24, r24
    22ba:	19 f4       	brne	.+6      	; 0x22c2 <com_protocolMessage+0xe>
		// An CoAP-Stack weiter geben, Quell- und Zieladresse stehen in msg. Portnummern gibts nicht, die sollten wir "hart" auf irgendeinen Wert setzen um CoAP das vorzugaukeln..
		ce_processIncomingMessage(msg);
    22bc:	cf 01       	movw	r24, r30
    22be:	0e 94 77 1c 	call	0x38ee	; 0x38ee <ce_processIncomingMessage>
    22c2:	08 95       	ret

000022c4 <com_messageReceived>:
	}
	
	running = 0;
}

void com_messageReceived(unsigned char * bytes, unsigned short int len) {
    22c4:	af 92       	push	r10
    22c6:	bf 92       	push	r11
    22c8:	cf 92       	push	r12
    22ca:	df 92       	push	r13
    22cc:	ef 92       	push	r14
    22ce:	ff 92       	push	r15
    22d0:	0f 93       	push	r16
    22d2:	1f 93       	push	r17
    22d4:	df 93       	push	r29
    22d6:	cf 93       	push	r28
    22d8:	cd b7       	in	r28, 0x3d	; 61
    22da:	de b7       	in	r29, 0x3e	; 62
    22dc:	a8 97       	sbiw	r28, 0x28	; 40
    22de:	cd bf       	out	0x3d, r28	; 61
    22e0:	de bf       	out	0x3e, r29	; 62
    22e2:	8c 01       	movw	r16, r24
    22e4:	6b 01       	movw	r12, r22
	unsigned char * ptr = bytes;
	
	if (len > 12) {
    22e6:	6d 30       	cpi	r22, 0x0D	; 13
    22e8:	71 05       	cpc	r23, r1
    22ea:	08 f4       	brcc	.+2      	; 0x22ee <com_messageReceived+0x2a>
    22ec:	e5 c0       	rjmp	.+458    	; 0x24b8 <com_messageReceived+0x1f4>
		// msg[4] - Source
		// msg[8] - Flags
		// msg[9] - Subprotocol
		// msg[10..15] - Sequence
		MESSAGE_t msg;
		msg.msgDest = *((unsigned long int*)&bytes[0]);
    22ee:	f8 01       	movw	r30, r16
    22f0:	80 81       	ld	r24, Z
    22f2:	91 81       	ldd	r25, Z+1	; 0x01
    22f4:	a2 81       	ldd	r26, Z+2	; 0x02
    22f6:	b3 81       	ldd	r27, Z+3	; 0x03
    22f8:	89 83       	std	Y+1, r24	; 0x01
    22fa:	9a 83       	std	Y+2, r25	; 0x02
    22fc:	ab 83       	std	Y+3, r26	; 0x03
    22fe:	bc 83       	std	Y+4, r27	; 0x04
		// Convert to LE:
		reverseByteOrder(&msg.msgDest, 4);
    2300:	ce 01       	movw	r24, r28
    2302:	01 96       	adiw	r24, 0x01	; 1
    2304:	64 e0       	ldi	r22, 0x04	; 4
    2306:	0e 94 77 02 	call	0x4ee	; 0x4ee <reverseByteOrder>
		if (settings.networkAddress == msg.msgDest) {
    230a:	20 91 12 2a 	lds	r18, 0x2A12
    230e:	30 91 13 2a 	lds	r19, 0x2A13
    2312:	40 91 14 2a 	lds	r20, 0x2A14
    2316:	50 91 15 2a 	lds	r21, 0x2A15
    231a:	89 81       	ldd	r24, Y+1	; 0x01
    231c:	9a 81       	ldd	r25, Y+2	; 0x02
    231e:	ab 81       	ldd	r26, Y+3	; 0x03
    2320:	bc 81       	ldd	r27, Y+4	; 0x04
    2322:	28 17       	cp	r18, r24
    2324:	39 07       	cpc	r19, r25
    2326:	4a 07       	cpc	r20, r26
    2328:	5b 07       	cpc	r21, r27
    232a:	09 f0       	breq	.+2      	; 0x232e <com_messageReceived+0x6a>
    232c:	c5 c0       	rjmp	.+394    	; 0x24b8 <com_messageReceived+0x1f4>
			// Extract source:
			msg.msgSrc = *((unsigned long int*)&bytes[4]);
    232e:	f8 01       	movw	r30, r16
    2330:	84 81       	ldd	r24, Z+4	; 0x04
    2332:	95 81       	ldd	r25, Z+5	; 0x05
    2334:	a6 81       	ldd	r26, Z+6	; 0x06
    2336:	b7 81       	ldd	r27, Z+7	; 0x07
    2338:	8d 83       	std	Y+5, r24	; 0x05
    233a:	9e 83       	std	Y+6, r25	; 0x06
    233c:	af 83       	std	Y+7, r26	; 0x07
    233e:	b8 87       	std	Y+8, r27	; 0x08
			// Convert to LE:
			reverseByteOrder(&msg.msgSrc, 4);
    2340:	ce 01       	movw	r24, r28
    2342:	05 96       	adiw	r24, 0x05	; 5
    2344:	64 e0       	ldi	r22, 0x04	; 4
    2346:	0e 94 77 02 	call	0x4ee	; 0x4ee <reverseByteOrder>
			
			// Offset for optional fields:
			ptr = &bytes[13];
			len -= 13;
#else
			msg.flags = bytes[8];
    234a:	f8 01       	movw	r30, r16
    234c:	90 85       	ldd	r25, Z+8	; 0x08
    234e:	9d 87       	std	Y+13, r25	; 0x0d
			ptr = &bytes[9];
    2350:	59 e0       	ldi	r21, 0x09	; 9
    2352:	e5 2e       	mov	r14, r21
    2354:	f1 2c       	mov	r15, r1
    2356:	e0 0e       	add	r14, r16
    2358:	f1 1e       	adc	r15, r17
			len -= 9;
    235a:	b6 01       	movw	r22, r12
    235c:	69 50       	subi	r22, 0x09	; 9
    235e:	70 40       	sbci	r23, 0x00	; 0
#endif			
			if (len && (msg.flags & MSG_FLAG_SUBPROTOCOL)) {
    2360:	69 f0       	breq	.+26     	; 0x237c <com_messageReceived+0xb8>
    2362:	90 ff       	sbrs	r25, 0
    2364:	0b c0       	rjmp	.+22     	; 0x237c <com_messageReceived+0xb8>
				msg.subProtocol = *ptr++;
    2366:	81 85       	ldd	r24, Z+9	; 0x09
    2368:	88 8b       	std	Y+16, r24	; 0x10
    236a:	4a e0       	ldi	r20, 0x0A	; 10
    236c:	e4 2e       	mov	r14, r20
    236e:	f1 2c       	mov	r15, r1
    2370:	e0 0e       	add	r14, r16
    2372:	f1 1e       	adc	r15, r17
				len--;
    2374:	b6 01       	movw	r22, r12
    2376:	6a 50       	subi	r22, 0x0A	; 10
    2378:	70 40       	sbci	r23, 0x00	; 0
    237a:	01 c0       	rjmp	.+2      	; 0x237e <com_messageReceived+0xba>
			} else {
				msg.subProtocol = 0;
    237c:	18 8a       	std	Y+16, r1	; 0x10
			}
			if (msg.flags & MSG_FLAG_ENCRYPTED) {
    237e:	91 ff       	sbrs	r25, 1
    2380:	93 c0       	rjmp	.+294    	; 0x24a8 <com_messageReceived+0x1e4>
				if (len > 6) {
    2382:	67 30       	cpi	r22, 0x07	; 7
    2384:	71 05       	cpc	r23, r1
    2386:	08 f4       	brcc	.+2      	; 0x238a <com_messageReceived+0xc6>
    2388:	97 c0       	rjmp	.+302    	; 0x24b8 <com_messageReceived+0x1f4>
					// Diese Sequenznummer wurde gesendet:
					msg.sequence = ptr;
    238a:	ee 86       	std	Y+14, r14	; 0x0e
    238c:	ff 86       	std	Y+15, r15	; 0x0f
					
					aes_encryptDecryptData(&ptr[6], len - 6, &bytes[0], &bytes[4], &ptr[0]); // len - 6 da auch die abschließenden CRC-Bytes verschlüsselt sind!
    238e:	36 e0       	ldi	r19, 0x06	; 6
    2390:	a3 2e       	mov	r10, r19
    2392:	b1 2c       	mov	r11, r1
    2394:	ae 0c       	add	r10, r14
    2396:	bf 1c       	adc	r11, r15
    2398:	2a ef       	ldi	r18, 0xFA	; 250
    239a:	c2 2e       	mov	r12, r18
    239c:	2f ef       	ldi	r18, 0xFF	; 255
    239e:	d2 2e       	mov	r13, r18
    23a0:	c6 0e       	add	r12, r22
    23a2:	d7 1e       	adc	r13, r23
    23a4:	c5 01       	movw	r24, r10
    23a6:	b6 01       	movw	r22, r12
    23a8:	a8 01       	movw	r20, r16
    23aa:	0c 5f       	subi	r16, 0xFC	; 252
    23ac:	1f 4f       	sbci	r17, 0xFF	; 255
    23ae:	98 01       	movw	r18, r16
    23b0:	87 01       	movw	r16, r14
    23b2:	0e 94 98 13 	call	0x2730	; 0x2730 <aes_encryptDecryptData>
    23b6:	4f ef       	ldi	r20, 0xFF	; 255
    23b8:	5f ef       	ldi	r21, 0xFF	; 255
    23ba:	00 e0       	ldi	r16, 0x00	; 0
    23bc:	10 e0       	ldi	r17, 0x00	; 0
    23be:	09 c0       	rjmp	.+18     	; 0x23d2 <com_messageReceived+0x10e>
					// An ursprünglich verschlüsselten Daten ist eine neue CRC angefügt um zu
					// testen ob die Entschlüsselung korrekt war. Das machen wir jetzt:
					unsigned short int crc = 0xffff;
					unsigned short int pos;
					for (pos=0;pos<len;pos++)
						crc = crc_calcCRC16r(crc, ptr[pos]);
    23c0:	f7 01       	movw	r30, r14
    23c2:	65 81       	ldd	r22, Z+5	; 0x05
    23c4:	ca 01       	movw	r24, r20
    23c6:	70 e0       	ldi	r23, 0x00	; 0
    23c8:	0e 94 83 13 	call	0x2706	; 0x2706 <crc_calcCRC16r>
    23cc:	ac 01       	movw	r20, r24
					len -= 6;
					// An ursprünglich verschlüsselten Daten ist eine neue CRC angefügt um zu
					// testen ob die Entschlüsselung korrekt war. Das machen wir jetzt:
					unsigned short int crc = 0xffff;
					unsigned short int pos;
					for (pos=0;pos<len;pos++)
    23ce:	0f 5f       	subi	r16, 0xFF	; 255
    23d0:	1f 4f       	sbci	r17, 0xFF	; 255
    23d2:	08 94       	sec
    23d4:	e1 1c       	adc	r14, r1
    23d6:	f1 1c       	adc	r15, r1
    23d8:	0c 15       	cp	r16, r12
    23da:	1d 05       	cpc	r17, r13
    23dc:	88 f3       	brcs	.-30     	; 0x23c0 <com_messageReceived+0xfc>
						crc = crc_calcCRC16r(crc, ptr[pos]);
					if (crc == ((ptr[len-2] << 8) | (ptr[len-1]))) {
    23de:	f5 01       	movw	r30, r10
    23e0:	ec 0d       	add	r30, r12
    23e2:	fd 1d       	adc	r31, r13
    23e4:	32 97       	sbiw	r30, 0x02	; 2
    23e6:	31 91       	ld	r19, Z+
    23e8:	20 e0       	ldi	r18, 0x00	; 0
    23ea:	80 81       	ld	r24, Z
    23ec:	90 e0       	ldi	r25, 0x00	; 0
    23ee:	28 2b       	or	r18, r24
    23f0:	39 2b       	or	r19, r25
    23f2:	42 17       	cp	r20, r18
    23f4:	53 07       	cpc	r21, r19
    23f6:	09 f0       	breq	.+2      	; 0x23fa <com_messageReceived+0x136>
    23f8:	5f c0       	rjmp	.+190    	; 0x24b8 <com_messageReceived+0x1f4>
						msg.content = &ptr[0];
    23fa:	a9 8a       	std	Y+17, r10	; 0x11
    23fc:	ba 8a       	std	Y+18, r11	; 0x12
						msg.len = len - 2;
    23fe:	8e ef       	ldi	r24, 0xFE	; 254
    2400:	9f ef       	ldi	r25, 0xFF	; 255
    2402:	c8 0e       	add	r12, r24
    2404:	d9 1e       	adc	r13, r25
    2406:	cb 8a       	std	Y+19, r12	; 0x13
    2408:	dc 8a       	std	Y+20, r13	; 0x14
						
						// Eine Nachricht wurde empfangen. Falls sie verschlüsselt war, müssen wir testen ob die Nachricht nicht zu alt ist (Sequenznummer darf nicht "verbraucht" sein):
						pos = 6;
						while (pos--) {
							if (msg.sequence[pos] < settings.maxKnownSequence[pos]) {
    240a:	4e 85       	ldd	r20, Y+14	; 0x0e
    240c:	5f 85       	ldd	r21, Y+15	; 0x0f
    240e:	ca 01       	movw	r24, r20
    2410:	dc 01       	movw	r26, r24
    2412:	e1 e3       	ldi	r30, 0x31	; 49
    2414:	fa e2       	ldi	r31, 0x2A	; 42
    2416:	3b c0       	rjmp	.+118    	; 0x248e <com_messageReceived+0x1ca>
						msg.content = &ptr[0];
						msg.len = len - 2;
						
						// Eine Nachricht wurde empfangen. Falls sie verschlüsselt war, müssen wir testen ob die Nachricht nicht zu alt ist (Sequenznummer darf nicht "verbraucht" sein):
						pos = 6;
						while (pos--) {
    2418:	15 96       	adiw	r26, 0x05	; 5
    241a:	9c 91       	ld	r25, X
    241c:	15 97       	sbiw	r26, 0x05	; 5
							if (msg.sequence[pos] < settings.maxKnownSequence[pos]) {
    241e:	80 81       	ld	r24, Z
    2420:	98 17       	cp	r25, r24
    2422:	68 f5       	brcc	.+90     	; 0x247e <com_messageReceived+0x1ba>
								// Notify the sender of the low sequence number:
								MESSAGE_t reply;
								reply.msgDest = msg.msgSrc;
    2424:	8d 81       	ldd	r24, Y+5	; 0x05
    2426:	9e 81       	ldd	r25, Y+6	; 0x06
    2428:	af 81       	ldd	r26, Y+7	; 0x07
    242a:	b8 85       	ldd	r27, Y+8	; 0x08
    242c:	8d 8b       	std	Y+21, r24	; 0x15
    242e:	9e 8b       	std	Y+22, r25	; 0x16
    2430:	af 8b       	std	Y+23, r26	; 0x17
    2432:	b8 8f       	std	Y+24, r27	; 0x18
								reply.srcPort = msg.dstPort;
    2434:	8b 85       	ldd	r24, Y+11	; 0x0b
    2436:	9c 85       	ldd	r25, Y+12	; 0x0c
    2438:	8d 8f       	std	Y+29, r24	; 0x1d
    243a:	9e 8f       	std	Y+30, r25	; 0x1e
								reply.dstPort = msg.srcPort;
    243c:	89 85       	ldd	r24, Y+9	; 0x09
    243e:	9a 85       	ldd	r25, Y+10	; 0x0a
    2440:	8f 8f       	std	Y+31, r24	; 0x1f
    2442:	98 a3       	std	Y+32, r25	; 0x20
								reply.flags = MSG_FLAG_ENCRYPTED | MSG_FLAG_SUBPROTOCOL;
    2444:	83 e0       	ldi	r24, 0x03	; 3
    2446:	89 a3       	std	Y+33, r24	; 0x21
								reply.sequence = &settings.maxKnownSequence[0];
    2448:	8c e2       	ldi	r24, 0x2C	; 44
    244a:	9a e2       	ldi	r25, 0x2A	; 42
    244c:	8a a3       	std	Y+34, r24	; 0x22
    244e:	9b a3       	std	Y+35, r25	; 0x23
								reply.subProtocol = 0xff; // "Marker-Protokoll" das die Sequenznummer zu niedrig war
    2450:	8f ef       	ldi	r24, 0xFF	; 255
    2452:	8c a3       	std	Y+36, r24	; 0x24
								reply.content = (unsigned char*)"SEQNUM"; // Content muss vom Empfänger überprüft werden! Sonst könnte jemand die Sequenznummer illegal erhöhen.
    2454:	80 e0       	ldi	r24, 0x00	; 0
    2456:	90 e2       	ldi	r25, 0x20	; 32
    2458:	8d a3       	std	Y+37, r24	; 0x25
    245a:	9e a3       	std	Y+38, r25	; 0x26
								reply.len = 6;
    245c:	86 e0       	ldi	r24, 0x06	; 6
    245e:	90 e0       	ldi	r25, 0x00	; 0
    2460:	8f a3       	std	Y+39, r24	; 0x27
    2462:	98 a7       	std	Y+40, r25	; 0x28
								com_sendProtocolMessage(uartPC, &reply);
    2464:	80 91 0c 2a 	lds	r24, 0x2A0C
    2468:	90 91 0d 2a 	lds	r25, 0x2A0D
    246c:	be 01       	movw	r22, r28
    246e:	6b 5e       	subi	r22, 0xEB	; 235
    2470:	7f 4f       	sbci	r23, 0xFF	; 255
    2472:	0e 94 09 10 	call	0x2012	; 0x2012 <com_sendProtocolMessage>
								settings.modified = 1;
    2476:	81 e0       	ldi	r24, 0x01	; 1
    2478:	80 93 1b 2a 	sts	0x2A1B, r24
    247c:	1d c0       	rjmp	.+58     	; 0x24b8 <com_messageReceived+0x1f4>
								return;
    247e:	11 97       	sbiw	r26, 0x01	; 1
    2480:	31 97       	sbiw	r30, 0x01	; 1
							}
							// Wenn wir beim letzten Durchlauf 
							if (msg.sequence[pos] > settings.maxKnownSequence[pos]) {
    2482:	89 17       	cp	r24, r25
    2484:	20 f4       	brcc	.+8      	; 0x248e <com_messageReceived+0x1ca>
								// Die gesendete Sequenznummer ist größer als die letzte gespeicherte. Damit müssen wir das EEPROM gleich updaten.
								// Im Fallthrough-Case müssen wir das nicht unbedingt (wenn wir antworten erhöhen wir die SeqNum und setzen da dann
								// modified-Marker sowieso).
								settings.modified = 1;
    2486:	81 e0       	ldi	r24, 0x01	; 1
    2488:	80 93 1b 2a 	sts	0x2A1B, r24
    248c:	04 c0       	rjmp	.+8      	; 0x2496 <com_messageReceived+0x1d2>
						msg.content = &ptr[0];
						msg.len = len - 2;
						
						// Eine Nachricht wurde empfangen. Falls sie verschlüsselt war, müssen wir testen ob die Nachricht nicht zu alt ist (Sequenznummer darf nicht "verbraucht" sein):
						pos = 6;
						while (pos--) {
    248e:	9a e2       	ldi	r25, 0x2A	; 42
    2490:	eb 32       	cpi	r30, 0x2B	; 43
    2492:	f9 07       	cpc	r31, r25
    2494:	09 f6       	brne	.-126    	; 0x2418 <com_messageReceived+0x154>
								settings.modified = 1;
								break;
							}
						}
						// Okay, wir sind mindestens bei der gleichen Sequenznummer
						memcpy(&settings.maxKnownSequence[0], msg.sequence, sizeof(settings.maxKnownSequence));
    2496:	ac e2       	ldi	r26, 0x2C	; 44
    2498:	ba e2       	ldi	r27, 0x2A	; 42
    249a:	fa 01       	movw	r30, r20
    249c:	86 e0       	ldi	r24, 0x06	; 6
    249e:	01 90       	ld	r0, Z+
    24a0:	0d 92       	st	X+, r0
    24a2:	81 50       	subi	r24, 0x01	; 1
    24a4:	e1 f7       	brne	.-8      	; 0x249e <com_messageReceived+0x1da>
    24a6:	04 c0       	rjmp	.+8      	; 0x24b0 <com_messageReceived+0x1ec>
						// Paket wurde offenbar korrekt dekodiert und gilt damit als empfangen. Weiter reichen an den Protokollstack der sich darum kümmert:
						com_protocolMessage(&msg);
					}
				}
			} else {
				msg.content = &ptr[0];
    24a8:	e9 8a       	std	Y+17, r14	; 0x11
    24aa:	fa 8a       	std	Y+18, r15	; 0x12
				msg.len = len;
    24ac:	6b 8b       	std	Y+19, r22	; 0x13
    24ae:	7c 8b       	std	Y+20, r23	; 0x14
				com_protocolMessage(&msg);
    24b0:	ce 01       	movw	r24, r28
    24b2:	01 96       	adiw	r24, 0x01	; 1
    24b4:	0e 94 5a 11 	call	0x22b4	; 0x22b4 <com_protocolMessage>
			}
		}
	}
}
    24b8:	a8 96       	adiw	r28, 0x28	; 40
    24ba:	cd bf       	out	0x3d, r28	; 61
    24bc:	de bf       	out	0x3e, r29	; 62
    24be:	cf 91       	pop	r28
    24c0:	df 91       	pop	r29
    24c2:	1f 91       	pop	r17
    24c4:	0f 91       	pop	r16
    24c6:	ff 90       	pop	r15
    24c8:	ef 90       	pop	r14
    24ca:	df 90       	pop	r13
    24cc:	cf 90       	pop	r12
    24ce:	bf 90       	pop	r11
    24d0:	af 90       	pop	r10
    24d2:	08 95       	ret

000024d4 <com_checkMessageBuffer>:
// Funktion wird regelmäßig aufgerufen (1ms) und prüft ob im Ringpuffer eine korrekte Nachricht enthalten ist.
// Bei einer Portierung auf x86 muss die Zeitbehandlung (letzte 15 Zeilen) geändert werden. Die Funktion
// soll, so lange keine gültige Nachricht vorliegt und mindestens 15ms kein Zeichen rein gekommen ist (Timeout
// muss man auf dem PC eventuell anpassen) das falsch erkannte Startbyte was am Anfang im Ringpuffer steckt
// wegwerfen.
void com_checkMessageBuffer(void * p) {
    24d4:	4f 92       	push	r4
    24d6:	5f 92       	push	r5
    24d8:	6f 92       	push	r6
    24da:	7f 92       	push	r7
    24dc:	8f 92       	push	r8
    24de:	9f 92       	push	r9
    24e0:	af 92       	push	r10
    24e2:	bf 92       	push	r11
    24e4:	cf 92       	push	r12
    24e6:	df 92       	push	r13
    24e8:	ef 92       	push	r14
    24ea:	ff 92       	push	r15
    24ec:	0f 93       	push	r16
    24ee:	1f 93       	push	r17
    24f0:	df 93       	push	r29
    24f2:	cf 93       	push	r28
    24f4:	cd b7       	in	r28, 0x3d	; 61
    24f6:	de b7       	in	r29, 0x3e	; 62
			rb_delete_sync(inBuffer, 1);
		}
	}
	
	running = 0;
}
    24f8:	4d b6       	in	r4, 0x3d	; 61
    24fa:	5e b6       	in	r5, 0x3e	; 62
	unsigned short int i;
	static unsigned char running;
	
	// Timer-Funktionen sind eigentlich reentrant. Das müssen wir hier verhindern. Da
	// wir kein Multithreading haben reicht diese Konstruktion vollkommen aus:
	if (running)
    24fc:	80 91 1a 29 	lds	r24, 0x291A
    2500:	88 23       	and	r24, r24
    2502:	09 f0       	breq	.+2      	; 0x2506 <com_checkMessageBuffer+0x32>
    2504:	be c0       	rjmp	.+380    	; 0x2682 <com_checkMessageBuffer+0x1ae>
		return;
	running = 1;
    2506:	81 e0       	ldi	r24, 0x01	; 1
    2508:	80 93 1a 29 	sts	0x291A, r24
    250c:	ae c0       	rjmp	.+348    	; 0x266a <com_checkMessageBuffer+0x196>
	
	// So lange der Puffer nicht leer ist..
	while ((rxc = rb_getCount_sync(inBuffer))) {
		// .. gucken wir ob wir ein SYNC empfangen haben:
		if (SYNCBYTE == rb_peek_sync(inBuffer, 0)) {
    250e:	80 91 0e 2a 	lds	r24, 0x2A0E
    2512:	90 91 0f 2a 	lds	r25, 0x2A0F
    2516:	60 e0       	ldi	r22, 0x00	; 0
    2518:	70 e0       	ldi	r23, 0x00	; 0
    251a:	0e 94 da 0a 	call	0x15b4	; 0x15b4 <rb_peek_sync>
    251e:	83 3f       	cpi	r24, 0xF3	; 243
    2520:	09 f0       	breq	.+2      	; 0x2524 <com_checkMessageBuffer+0x50>
    2522:	9b c0       	rjmp	.+310    	; 0x265a <com_checkMessageBuffer+0x186>
			// Danach kommt die Länge der Information, diese ist begrenzt auf 0x40-Bytes (64 Bytes). Bei längeren Sequenzen besteht
			// bei einer Fehlerkennung des Sync-Bytes sonst die Gefahr, das das Modul relativ lange darauf wartet, weitere
			// Informationen zu bekommen und daher wichtige Befehle verpasst..
			if (rxc > 4) { // 5 Zeichen sind das Minimum für einen echten Befehl (SYNC, Länge x 2, Content, Checksumme x 2)
    2524:	25 e0       	ldi	r18, 0x05	; 5
    2526:	c2 16       	cp	r12, r18
    2528:	d1 04       	cpc	r13, r1
    252a:	08 f4       	brcc	.+2      	; 0x252e <com_checkMessageBuffer+0x5a>
    252c:	8e c0       	rjmp	.+284    	; 0x264a <com_checkMessageBuffer+0x176>
				msglen = ((unsigned short int)rb_peek_sync(inBuffer, 1) << 8) | rb_peek_sync(inBuffer, 2);
    252e:	80 91 0e 2a 	lds	r24, 0x2A0E
    2532:	90 91 0f 2a 	lds	r25, 0x2A0F
    2536:	61 e0       	ldi	r22, 0x01	; 1
    2538:	70 e0       	ldi	r23, 0x00	; 0
    253a:	0e 94 da 0a 	call	0x15b4	; 0x15b4 <rb_peek_sync>
    253e:	18 2f       	mov	r17, r24
    2540:	80 91 0e 2a 	lds	r24, 0x2A0E
    2544:	90 91 0f 2a 	lds	r25, 0x2A0F
    2548:	62 e0       	ldi	r22, 0x02	; 2
    254a:	70 e0       	ldi	r23, 0x00	; 0
    254c:	0e 94 da 0a 	call	0x15b4	; 0x15b4 <rb_peek_sync>
    2550:	71 2e       	mov	r7, r17
    2552:	66 24       	eor	r6, r6
    2554:	e8 2e       	mov	r14, r24
    2556:	ff 24       	eor	r15, r15
    2558:	e6 28       	or	r14, r6
    255a:	f7 28       	or	r15, r7
				if (msglen > 0 && (msglen <= MAXMESSAGELENGTH)) {
    255c:	c7 01       	movw	r24, r14
    255e:	01 97       	sbiw	r24, 0x01	; 1
    2560:	8e 5e       	subi	r24, 0xEE	; 238
    2562:	95 40       	sbci	r25, 0x05	; 5
    2564:	08 f0       	brcs	.+2      	; 0x2568 <com_checkMessageBuffer+0x94>
    2566:	79 c0       	rjmp	.+242    	; 0x265a <com_checkMessageBuffer+0x186>
					if ((unsigned char)(msglen + 5) <= rxc) { // Die 5 Bytes SYNCBYTE, LÄNGE x 2, CRC x 2 noch einrechnen
    2568:	8e 2d       	mov	r24, r14
    256a:	8b 5f       	subi	r24, 0xFB	; 251
    256c:	90 e0       	ldi	r25, 0x00	; 0
    256e:	c8 16       	cp	r12, r24
    2570:	d9 06       	cpc	r13, r25
    2572:	08 f4       	brcc	.+2      	; 0x2576 <com_checkMessageBuffer+0xa2>
    2574:	6a c0       	rjmp	.+212    	; 0x264a <com_checkMessageBuffer+0x176>
    2576:	cc 24       	eor	r12, r12
    2578:	ca 94       	dec	r12
    257a:	dc 2c       	mov	r13, r12
    257c:	01 e0       	ldi	r16, 0x01	; 1
    257e:	10 e0       	ldi	r17, 0x00	; 0
						// weggeworfen werden. Auf diese Art kann der dahinter kommende, "echte" Befehl
						// noch ausgewertet werden:
						// Beispiel für Nachricht mit Länge 2: 0) START, 1) LEN_H, 2) LEN_L, 3) Data1, 4) Data2, 5) CRC_H, 6) CRC_L
						// -> msglen ist dann 2, letztes i soll 4 sein
						mycrc = 0xffff;
						for (i=1;i<(msglen+3);i++) //+3, da SYNC und LEN_H/LEN_L nie zur Länge addiert wurden sondern nur in der IF-Abfrage oben mit +2 (+1) berücksichtigt sind..
    2580:	63 e0       	ldi	r22, 0x03	; 3
    2582:	a6 2e       	mov	r10, r22
    2584:	b1 2c       	mov	r11, r1
    2586:	ae 0c       	add	r10, r14
    2588:	bf 1c       	adc	r11, r15
    258a:	0b c0       	rjmp	.+22     	; 0x25a2 <com_checkMessageBuffer+0xce>
							mycrc = crc_calcCRC16r(mycrc, rb_peek_sync(inBuffer, i));
    258c:	b8 01       	movw	r22, r16
    258e:	0e 94 da 0a 	call	0x15b4	; 0x15b4 <rb_peek_sync>
    2592:	68 2f       	mov	r22, r24
    2594:	c6 01       	movw	r24, r12
    2596:	70 e0       	ldi	r23, 0x00	; 0
    2598:	0e 94 83 13 	call	0x2706	; 0x2706 <crc_calcCRC16r>
    259c:	6c 01       	movw	r12, r24
						// weggeworfen werden. Auf diese Art kann der dahinter kommende, "echte" Befehl
						// noch ausgewertet werden:
						// Beispiel für Nachricht mit Länge 2: 0) START, 1) LEN_H, 2) LEN_L, 3) Data1, 4) Data2, 5) CRC_H, 6) CRC_L
						// -> msglen ist dann 2, letztes i soll 4 sein
						mycrc = 0xffff;
						for (i=1;i<(msglen+3);i++) //+3, da SYNC und LEN_H/LEN_L nie zur Länge addiert wurden sondern nur in der IF-Abfrage oben mit +2 (+1) berücksichtigt sind..
    259e:	0f 5f       	subi	r16, 0xFF	; 255
    25a0:	1f 4f       	sbci	r17, 0xFF	; 255
    25a2:	80 91 0e 2a 	lds	r24, 0x2A0E
    25a6:	90 91 0f 2a 	lds	r25, 0x2A0F
    25aa:	0a 15       	cp	r16, r10
    25ac:	1b 05       	cpc	r17, r11
    25ae:	70 f3       	brcs	.-36     	; 0x258c <com_checkMessageBuffer+0xb8>
							mycrc = crc_calcCRC16r(mycrc, rb_peek_sync(inBuffer, i));
						
						// Empfangene CRC:
						recvd_crc = ((unsigned short int)rb_peek_sync(inBuffer, msglen + 3) << 8) | rb_peek_sync(inBuffer, msglen + 4);
    25b0:	b5 01       	movw	r22, r10
    25b2:	0e 94 da 0a 	call	0x15b4	; 0x15b4 <rb_peek_sync>
    25b6:	18 2f       	mov	r17, r24
    25b8:	b7 01       	movw	r22, r14
    25ba:	6c 5f       	subi	r22, 0xFC	; 252
    25bc:	7f 4f       	sbci	r23, 0xFF	; 255
    25be:	80 91 0e 2a 	lds	r24, 0x2A0E
    25c2:	90 91 0f 2a 	lds	r25, 0x2A0F
    25c6:	0e 94 da 0a 	call	0x15b4	; 0x15b4 <rb_peek_sync>
						
						// Prüfen auf Übereinstimmung:
						if (mycrc == recvd_crc) {
    25ca:	91 2e       	mov	r9, r17
    25cc:	88 24       	eor	r8, r8
    25ce:	90 e0       	ldi	r25, 0x00	; 0
    25d0:	88 29       	or	r24, r8
    25d2:	99 29       	or	r25, r9
    25d4:	c8 16       	cp	r12, r24
    25d6:	d9 06       	cpc	r13, r25
    25d8:	09 f0       	breq	.+2      	; 0x25dc <com_checkMessageBuffer+0x108>
    25da:	3f c0       	rjmp	.+126    	; 0x265a <com_checkMessageBuffer+0x186>
    25dc:	bd b6       	in	r11, 0x3d	; 61
    25de:	ae b6       	in	r10, 0x3e	; 62
							// TODO: Sollten wir an dieser Stelle schon prüfen ob wir die Nachricht wegen der Zieladresse auswerten wollen..?
							// Das würde eigentlich Sinn machen, es spart uns das umkopieren der Nachricht in den linearen Puffer.
							
							// Nachricht in linearen Puffer kopieren (macht die Sache für die auswertenden Funktionen einfacher):
							unsigned char databytes[msglen];
    25e0:	8d b7       	in	r24, 0x3d	; 61
    25e2:	9e b7       	in	r25, 0x3e	; 62
    25e4:	8e 19       	sub	r24, r14
    25e6:	9f 09       	sbc	r25, r15
    25e8:	8d bf       	out	0x3d, r24	; 61
    25ea:	9e bf       	out	0x3e, r25	; 62
    25ec:	cd b6       	in	r12, 0x3d	; 61
    25ee:	de b6       	in	r13, 0x3e	; 62
    25f0:	08 94       	sec
    25f2:	c1 1c       	adc	r12, r1
    25f4:	d1 1c       	adc	r13, r1
    25f6:	00 e0       	ldi	r16, 0x00	; 0
    25f8:	10 e0       	ldi	r17, 0x00	; 0
    25fa:	0f c0       	rjmp	.+30     	; 0x261a <com_checkMessageBuffer+0x146>
							for (i=0;i<msglen;i++)
								databytes[i] = rb_peek_sync(inBuffer, 3 + i);
    25fc:	b8 01       	movw	r22, r16
    25fe:	6d 5f       	subi	r22, 0xFD	; 253
    2600:	7f 4f       	sbci	r23, 0xFF	; 255
    2602:	80 91 0e 2a 	lds	r24, 0x2A0E
    2606:	90 91 0f 2a 	lds	r25, 0x2A0F
    260a:	0e 94 da 0a 	call	0x15b4	; 0x15b4 <rb_peek_sync>
    260e:	f6 01       	movw	r30, r12
    2610:	e0 0f       	add	r30, r16
    2612:	f1 1f       	adc	r31, r17
    2614:	80 83       	st	Z, r24
							// TODO: Sollten wir an dieser Stelle schon prüfen ob wir die Nachricht wegen der Zieladresse auswerten wollen..?
							// Das würde eigentlich Sinn machen, es spart uns das umkopieren der Nachricht in den linearen Puffer.
							
							// Nachricht in linearen Puffer kopieren (macht die Sache für die auswertenden Funktionen einfacher):
							unsigned char databytes[msglen];
							for (i=0;i<msglen;i++)
    2616:	0f 5f       	subi	r16, 0xFF	; 255
    2618:	1f 4f       	sbci	r17, 0xFF	; 255
    261a:	0e 15       	cp	r16, r14
    261c:	1f 05       	cpc	r17, r15
    261e:	70 f3       	brcs	.-36     	; 0x25fc <com_checkMessageBuffer+0x128>
								databytes[i] = rb_peek_sync(inBuffer, 3 + i);
							
							com_messageReceived(&databytes[0], msglen);
    2620:	c6 01       	movw	r24, r12
    2622:	b7 01       	movw	r22, r14
    2624:	0e 94 62 11 	call	0x22c4	; 0x22c4 <com_messageReceived>
							
							// Die Nachricht aus dem Puffer entsorgen:
							rb_delete_sync(inBuffer, msglen + 5);
    2628:	85 e0       	ldi	r24, 0x05	; 5
    262a:	90 e0       	ldi	r25, 0x00	; 0
    262c:	e8 0e       	add	r14, r24
    262e:	f9 1e       	adc	r15, r25
    2630:	80 91 0e 2a 	lds	r24, 0x2A0E
    2634:	90 91 0f 2a 	lds	r25, 0x2A0F
    2638:	b7 01       	movw	r22, r14
    263a:	0e 94 f7 0a 	call	0x15ee	; 0x15ee <rb_delete_sync>
    263e:	8b 2d       	mov	r24, r11
    2640:	9a 2d       	mov	r25, r10
    2642:	9c 01       	movw	r18, r24
    2644:	2d bf       	out	0x3d, r18	; 61
    2646:	3e bf       	out	0x3e, r19	; 62
    2648:	10 c0       	rjmp	.+32     	; 0x266a <com_checkMessageBuffer+0x196>
			}
			// Der Befehl ist noch nicht vollständig. Wenn aber die einzelnen Zeichen einer Nachricht mehr als (X)ms auseinander liegen,
			// wird sie abgebrochen da wir evtl ein nicht-sync-Zeichen als SYNC interpretiert haben weil wir
			// den Anfang der echten Nachricht nicht mitbekommen haben. In dem Fall übergehen wir das SYNC-Zeichen und laufen direkt zum
			// nächsten SYNC-Byte.
			if (!in_timeout_ms) {
    264a:	80 91 1b 29 	lds	r24, 0x291B
    264e:	88 23       	and	r24, r24
    2650:	21 f0       	breq	.+8      	; 0x265a <com_checkMessageBuffer+0x186>
				// SYNC wegwerfen:
				rb_delete_sync(inBuffer, 1);
				continue; // Und gleich beim nächsten Byte gucken ob das ein SYNC-Byte sein könnte..
			} else {
				// Wir laufen einmal pro Millisekunde. Perfekt also um den Zähler runter zu zählen wenn das nötig ist.
				in_timeout_ms--; // Tick, tick..
    2652:	81 50       	subi	r24, 0x01	; 1
    2654:	80 93 1b 29 	sts	0x291B, r24
    2658:	12 c0       	rjmp	.+36     	; 0x267e <com_checkMessageBuffer+0x1aa>
				break;
			}
		} else {
			// Zeichen wird verworfen:
			rb_delete_sync(inBuffer, 1);
    265a:	80 91 0e 2a 	lds	r24, 0x2A0E
    265e:	90 91 0f 2a 	lds	r25, 0x2A0F
    2662:	61 e0       	ldi	r22, 0x01	; 1
    2664:	70 e0       	ldi	r23, 0x00	; 0
    2666:	0e 94 f7 0a 	call	0x15ee	; 0x15ee <rb_delete_sync>
	if (running)
		return;
	running = 1;
	
	// So lange der Puffer nicht leer ist..
	while ((rxc = rb_getCount_sync(inBuffer))) {
    266a:	80 91 0e 2a 	lds	r24, 0x2A0E
    266e:	90 91 0f 2a 	lds	r25, 0x2A0F
    2672:	0e 94 68 0b 	call	0x16d0	; 0x16d0 <rb_getCount_sync>
    2676:	6c 01       	movw	r12, r24
    2678:	00 97       	sbiw	r24, 0x00	; 0
    267a:	09 f0       	breq	.+2      	; 0x267e <com_checkMessageBuffer+0x1aa>
    267c:	48 cf       	rjmp	.-368    	; 0x250e <com_checkMessageBuffer+0x3a>
			// Zeichen wird verworfen:
			rb_delete_sync(inBuffer, 1);
		}
	}
	
	running = 0;
    267e:	10 92 1a 29 	sts	0x291A, r1
}
    2682:	4d be       	out	0x3d, r4	; 61
    2684:	5e be       	out	0x3e, r5	; 62
    2686:	cf 91       	pop	r28
    2688:	df 91       	pop	r29
    268a:	1f 91       	pop	r17
    268c:	0f 91       	pop	r16
    268e:	ff 90       	pop	r15
    2690:	ef 90       	pop	r14
    2692:	df 90       	pop	r13
    2694:	cf 90       	pop	r12
    2696:	bf 90       	pop	r11
    2698:	af 90       	pop	r10
    269a:	9f 90       	pop	r9
    269c:	8f 90       	pop	r8
    269e:	7f 90       	pop	r7
    26a0:	6f 90       	pop	r6
    26a2:	5f 90       	pop	r5
    26a4:	4f 90       	pop	r4
    26a6:	08 95       	ret

000026a8 <com_init>:
		in_timeout_ms = COM_UART_IN_TIMEOUT_MS;
	//}
	return 1;
}

void com_init(UART_INFO_t * uart) {
    26a8:	cf 93       	push	r28
    26aa:	df 93       	push	r29
    26ac:	ec 01       	movw	r28, r24
	// Puffer erstellen für eingehende Nachrichten:
	inBuffer = rb_createBuffer(&ringBufferBuffer[0], sizeof(ringBufferBuffer));
    26ae:	8e e7       	ldi	r24, 0x7E	; 126
    26b0:	98 e4       	ldi	r25, 0x48	; 72
    26b2:	60 ed       	ldi	r22, 0xD0	; 208
    26b4:	77 e0       	ldi	r23, 0x07	; 7
    26b6:	0e 94 26 0a 	call	0x144c	; 0x144c <rb_createBuffer>
    26ba:	bc 01       	movw	r22, r24
    26bc:	80 93 0e 2a 	sts	0x2A0E, r24
    26c0:	90 93 0f 2a 	sts	0x2A0F, r25
	
	if (inBuffer) {
    26c4:	00 97       	sbiw	r24, 0x00	; 0
    26c6:	81 f0       	breq	.+32     	; 0x26e8 <com_init+0x40>
		// Callback für UART registrieren, uns interessieren nur empfangene Bytes:
		uart_addModifyNotifyFunction(uart, inBuffer, com_uartEvent, UART_NOTIFY_RECEIVED);
    26c8:	ce 01       	movw	r24, r28
    26ca:	47 e7       	ldi	r20, 0x77	; 119
    26cc:	53 e1       	ldi	r21, 0x13	; 19
    26ce:	22 e0       	ldi	r18, 0x02	; 2
    26d0:	30 e0       	ldi	r19, 0x00	; 0
    26d2:	0e 94 6e 0b 	call	0x16dc	; 0x16dc <uart_addModifyNotifyFunction>

		// Periodisch überprüfen ob wir neue Nachrichten empfangen haben:
		timer_addCallback(1, 1, com_checkMessageBuffer, 0);
    26d6:	81 e0       	ldi	r24, 0x01	; 1
    26d8:	90 e0       	ldi	r25, 0x00	; 0
    26da:	61 e0       	ldi	r22, 0x01	; 1
    26dc:	4a e6       	ldi	r20, 0x6A	; 106
    26de:	52 e1       	ldi	r21, 0x12	; 18
    26e0:	20 e0       	ldi	r18, 0x00	; 0
    26e2:	30 e0       	ldi	r19, 0x00	; 0
    26e4:	0e 94 e9 04 	call	0x9d2	; 0x9d2 <timer_addCallback>
	}
}
    26e8:	df 91       	pop	r29
    26ea:	cf 91       	pop	r28
    26ec:	08 95       	ret

000026ee <com_uartEvent>:

unsigned char com_uartEvent(void * infoPtr, unsigned char event, unsigned char data) {
	// So lange wie EVENT_RECEIVED das einzige ist wofür wir registriert sind ist das unnötig:
	//if (event == UART_EVENT_RECEIVED) {
		// Zeichen in Ringpuffer aufnehmen:
		rb_put(inBuffer, data);
    26ee:	80 91 0e 2a 	lds	r24, 0x2A0E
    26f2:	90 91 0f 2a 	lds	r25, 0x2A0F
    26f6:	64 2f       	mov	r22, r20
    26f8:	0e 94 7a 0a 	call	0x14f4	; 0x14f4 <rb_put>
		// Timeout zurücksetzen:
		in_timeout_ms = COM_UART_IN_TIMEOUT_MS;
    26fc:	8f e0       	ldi	r24, 0x0F	; 15
    26fe:	80 93 1b 29 	sts	0x291B, r24
	//}
	return 1;
}
    2702:	81 e0       	ldi	r24, 0x01	; 1
    2704:	08 95       	ret

00002706 <crc_calcCRC16r>:
#include "crc.h"

#define CRC16MASK	0x8811	// CRC-CCITT-16

unsigned short crc_calcCRC16r(unsigned short crc, unsigned short c) {
    2706:	9c 01       	movw	r18, r24
    2708:	40 e0       	ldi	r20, 0x00	; 0
  unsigned char i;
  for(i=0;i<8;i++) {
    if ((crc ^ c) & 1) {
      crc = (crc >> 1) ^ CRC16MASK;
    270a:	e1 e1       	ldi	r30, 0x11	; 17
    270c:	f8 e8       	ldi	r31, 0x88	; 136
#define CRC16MASK	0x8811	// CRC-CCITT-16

unsigned short crc_calcCRC16r(unsigned short crc, unsigned short c) {
  unsigned char i;
  for(i=0;i<8;i++) {
    if ((crc ^ c) & 1) {
    270e:	cb 01       	movw	r24, r22
    2710:	82 27       	eor	r24, r18
    2712:	93 27       	eor	r25, r19
    2714:	36 95       	lsr	r19
    2716:	27 95       	ror	r18
    2718:	80 ff       	sbrs	r24, 0
    271a:	02 c0       	rjmp	.+4      	; 0x2720 <crc_calcCRC16r+0x1a>
      crc = (crc >> 1) ^ CRC16MASK;
    271c:	2e 27       	eor	r18, r30
    271e:	3f 27       	eor	r19, r31

#define CRC16MASK	0x8811	// CRC-CCITT-16

unsigned short crc_calcCRC16r(unsigned short crc, unsigned short c) {
  unsigned char i;
  for(i=0;i<8;i++) {
    2720:	4f 5f       	subi	r20, 0xFF	; 255
    2722:	48 30       	cpi	r20, 0x08	; 8
    2724:	19 f0       	breq	.+6      	; 0x272c <crc_calcCRC16r+0x26>
    if ((crc ^ c) & 1) {
      crc = (crc >> 1) ^ CRC16MASK;
    } else {
      crc >>= 1;
    }
    c >>= 1;
    2726:	76 95       	lsr	r23
    2728:	67 95       	ror	r22
    272a:	f1 cf       	rjmp	.-30     	; 0x270e <crc_calcCRC16r+0x8>
  }
  return crc;
}
    272c:	c9 01       	movw	r24, r18
    272e:	08 95       	ret

00002730 <aes_encryptDecryptData>:
#include "aes.h"
#include "common.h"
#include "settings.h"
#include "console.h"

void aes_encryptDecryptData(unsigned char * data, unsigned int len, unsigned char * msgSrc, unsigned char * msgDest, unsigned char * sequence) {
    2730:	4f 92       	push	r4
    2732:	5f 92       	push	r5
    2734:	6f 92       	push	r6
    2736:	7f 92       	push	r7
    2738:	8f 92       	push	r8
    273a:	9f 92       	push	r9
    273c:	af 92       	push	r10
    273e:	bf 92       	push	r11
    2740:	cf 92       	push	r12
    2742:	df 92       	push	r13
    2744:	ef 92       	push	r14
    2746:	ff 92       	push	r15
    2748:	0f 93       	push	r16
    274a:	1f 93       	push	r17
    274c:	cf 93       	push	r28
    274e:	df 93       	push	r29
    2750:	3c 01       	movw	r6, r24
    2752:	4b 01       	movw	r8, r22
    2754:	5a 01       	movw	r10, r20
    2756:	69 01       	movw	r12, r18
    2758:	ee 24       	eor	r14, r14
    275a:	ff 24       	eor	r15, r15
	
	while (len--) {
		// AES_BUFFER_SIZE muss eine 2er-Potenz sein. Dann sind nämlich durch -1 alle niedrigeren Bits gesetzt und wir führen die Schleife bei allen Vielfachen von AES_BUFFER_SIZE aus.
		if (!(s & (AES_BUFFER_SIZE-1))) {
			// AES-Engine zurücksetzen:
			AES.CTRL = AES_RESET_bm;
    275c:	c0 ec       	ldi	r28, 0xC0	; 192
    275e:	d0 e0       	ldi	r29, 0x00	; 0
    2760:	90 e2       	ldi	r25, 0x20	; 32
    2762:	49 2e       	mov	r4, r25
			AES.STATE = (unsigned char)s;
			// Pre Shared Key als eigentlicher Schlüssel:
			for (i=0;i<AES_BUFFER_SIZE;i++)
				AES.KEY = settings.preSharedKey[i];
			// Verschlüsseln:
			AES.CTRL = AES_START_bm;
    2764:	80 e8       	ldi	r24, 0x80	; 128
    2766:	58 2e       	mov	r5, r24
    2768:	49 c0       	rjmp	.+146    	; 0x27fc <aes_encryptDecryptData+0xcc>
	unsigned char i = 0;
	//uart_printf_P(PSTR("Encrypting %.2x%.2x%.2x.."), data[0], data[1], data[2]);
	
	while (len--) {
		// AES_BUFFER_SIZE muss eine 2er-Potenz sein. Dann sind nämlich durch -1 alle niedrigeren Bits gesetzt und wir führen die Schleife bei allen Vielfachen von AES_BUFFER_SIZE aus.
		if (!(s & (AES_BUFFER_SIZE-1))) {
    276a:	c7 01       	movw	r24, r14
    276c:	8f 70       	andi	r24, 0x0F	; 15
    276e:	90 70       	andi	r25, 0x00	; 0
    2770:	89 2b       	or	r24, r25
    2772:	b9 f5       	brne	.+110    	; 0x27e2 <aes_encryptDecryptData+0xb2>
			// AES-Engine zurücksetzen:
			AES.CTRL = AES_RESET_bm;
    2774:	40 92 c0 00 	sts	0x00C0, r4
			
			// AES.STATE ist der Datenblock, siehe Datenblatt.
			AES.STATE = msgSrc[0]; // Daten liegen zu diesem Zeitpunkt im Speicher in Big Endian (Network Byte Order) vor. Also alles korrekt, nichts umdrehen.
    2778:	f5 01       	movw	r30, r10
    277a:	80 81       	ld	r24, Z
    277c:	8a 83       	std	Y+2, r24	; 0x02
			AES.STATE = msgSrc[1];
    277e:	81 81       	ldd	r24, Z+1	; 0x01
    2780:	8a 83       	std	Y+2, r24	; 0x02
			AES.STATE = msgSrc[2];
    2782:	82 81       	ldd	r24, Z+2	; 0x02
    2784:	8a 83       	std	Y+2, r24	; 0x02
			AES.STATE = msgSrc[3];
    2786:	83 81       	ldd	r24, Z+3	; 0x03
    2788:	8a 83       	std	Y+2, r24	; 0x02
			AES.STATE = msgDest[0];
    278a:	f6 01       	movw	r30, r12
    278c:	80 81       	ld	r24, Z
    278e:	8a 83       	std	Y+2, r24	; 0x02
			AES.STATE = msgDest[1];
    2790:	81 81       	ldd	r24, Z+1	; 0x01
    2792:	8a 83       	std	Y+2, r24	; 0x02
			AES.STATE = msgDest[2];
    2794:	82 81       	ldd	r24, Z+2	; 0x02
    2796:	8a 83       	std	Y+2, r24	; 0x02
			AES.STATE = msgDest[3];
    2798:	83 81       	ldd	r24, Z+3	; 0x03
    279a:	8a 83       	std	Y+2, r24	; 0x02
			AES.STATE = sequence[0];
    279c:	f8 01       	movw	r30, r16
    279e:	80 81       	ld	r24, Z
    27a0:	8a 83       	std	Y+2, r24	; 0x02
			AES.STATE = sequence[1];
    27a2:	81 81       	ldd	r24, Z+1	; 0x01
    27a4:	8a 83       	std	Y+2, r24	; 0x02
			AES.STATE = sequence[2];
    27a6:	82 81       	ldd	r24, Z+2	; 0x02
    27a8:	8a 83       	std	Y+2, r24	; 0x02
			AES.STATE = sequence[3];
    27aa:	83 81       	ldd	r24, Z+3	; 0x03
    27ac:	8a 83       	std	Y+2, r24	; 0x02
			AES.STATE = sequence[4];
    27ae:	84 81       	ldd	r24, Z+4	; 0x04
    27b0:	8a 83       	std	Y+2, r24	; 0x02
			AES.STATE = sequence[5];
    27b2:	85 81       	ldd	r24, Z+5	; 0x05
    27b4:	8a 83       	std	Y+2, r24	; 0x02
			// Als letztes den Byte-Offset des Blocks in den Daten ("Counter Mode" für die Verschlüsselung - der lässt sich hinterher wunderbar parallelisieren)
			AES.STATE = (unsigned char)(s >> 8);
    27b6:	fa 82       	std	Y+2, r15	; 0x02
			AES.STATE = (unsigned char)s;
    27b8:	ea 82       	std	Y+2, r14	; 0x02
    27ba:	ec e1       	ldi	r30, 0x1C	; 28
    27bc:	fa e2       	ldi	r31, 0x2A	; 42
			// Pre Shared Key als eigentlicher Schlüssel:
			for (i=0;i<AES_BUFFER_SIZE;i++)
				AES.KEY = settings.preSharedKey[i];
    27be:	81 91       	ld	r24, Z+
    27c0:	8b 83       	std	Y+3, r24	; 0x03
			AES.STATE = sequence[5];
			// Als letztes den Byte-Offset des Blocks in den Daten ("Counter Mode" für die Verschlüsselung - der lässt sich hinterher wunderbar parallelisieren)
			AES.STATE = (unsigned char)(s >> 8);
			AES.STATE = (unsigned char)s;
			// Pre Shared Key als eigentlicher Schlüssel:
			for (i=0;i<AES_BUFFER_SIZE;i++)
    27c2:	8a e2       	ldi	r24, 0x2A	; 42
    27c4:	ec 32       	cpi	r30, 0x2C	; 44
    27c6:	f8 07       	cpc	r31, r24
    27c8:	d1 f7       	brne	.-12     	; 0x27be <aes_encryptDecryptData+0x8e>
				AES.KEY = settings.preSharedKey[i];
			// Verschlüsseln:
			AES.CTRL = AES_START_bm;
    27ca:	50 92 c0 00 	sts	0x00C0, r5
    27ce:	01 c0       	rjmp	.+2      	; 0x27d2 <aes_encryptDecryptData+0xa2>
			// Warten bis die AES-Engine fertig ist (dauert 375 Zyklen, bei 32 MHz sind das 11,7µs pro Block - darauf warten wir und erledigen keine anderen Aufgaben dazwischen):
			while (!(AES.STATUS & AES_SRIF_bm))
				asm volatile ("nop");
    27d0:	00 00       	nop
			for (i=0;i<AES_BUFFER_SIZE;i++)
				AES.KEY = settings.preSharedKey[i];
			// Verschlüsseln:
			AES.CTRL = AES_START_bm;
			// Warten bis die AES-Engine fertig ist (dauert 375 Zyklen, bei 32 MHz sind das 11,7µs pro Block - darauf warten wir und erledigen keine anderen Aufgaben dazwischen):
			while (!(AES.STATUS & AES_SRIF_bm))
    27d2:	80 91 c1 00 	lds	r24, 0x00C1
    27d6:	80 ff       	sbrs	r24, 0
    27d8:	fb cf       	rjmp	.-10     	; 0x27d0 <aes_encryptDecryptData+0xa0>
				asm volatile ("nop");
			wait(100);
    27da:	84 e6       	ldi	r24, 0x64	; 100
    27dc:	90 e0       	ldi	r25, 0x00	; 0
    27de:	0e 94 f5 02 	call	0x5ea	; 0x5ea <wait>
		}
		
		// Abrufen des Streamsciphers:
		x = AES.STATE;
    27e2:	90 91 c2 00 	lds	r25, 0x00C2
		//uart_printf_P(PSTR("%.2x "), x);
		*data++ ^= x;
    27e6:	f3 01       	movw	r30, r6
    27e8:	80 81       	ld	r24, Z
    27ea:	89 27       	eor	r24, r25
    27ec:	81 93       	st	Z+, r24
    27ee:	3f 01       	movw	r6, r30
		
		// Byte-Zähler weiter:
		s++;
    27f0:	08 94       	sec
    27f2:	e1 1c       	adc	r14, r1
    27f4:	f1 1c       	adc	r15, r1
    27f6:	08 94       	sec
    27f8:	81 08       	sbc	r8, r1
    27fa:	91 08       	sbc	r9, r1
	unsigned short int s = 0;
	unsigned char x;
	unsigned char i = 0;
	//uart_printf_P(PSTR("Encrypting %.2x%.2x%.2x.."), data[0], data[1], data[2]);
	
	while (len--) {
    27fc:	81 14       	cp	r8, r1
    27fe:	91 04       	cpc	r9, r1
    2800:	09 f0       	breq	.+2      	; 0x2804 <aes_encryptDecryptData+0xd4>
    2802:	b3 cf       	rjmp	.-154    	; 0x276a <aes_encryptDecryptData+0x3a>
		*data++ ^= x;
		
		// Byte-Zähler weiter:
		s++;
	}
}
    2804:	df 91       	pop	r29
    2806:	cf 91       	pop	r28
    2808:	1f 91       	pop	r17
    280a:	0f 91       	pop	r16
    280c:	ff 90       	pop	r15
    280e:	ef 90       	pop	r14
    2810:	df 90       	pop	r13
    2812:	cf 90       	pop	r12
    2814:	bf 90       	pop	r11
    2816:	af 90       	pop	r10
    2818:	9f 90       	pop	r9
    281a:	8f 90       	pop	r8
    281c:	7f 90       	pop	r7
    281e:	6f 90       	pop	r6
    2820:	5f 90       	pop	r5
    2822:	4f 90       	pop	r4
    2824:	08 95       	ret

00002826 <coap_parseHeader>:
    }
}
#endif

int coap_parseHeader(coap_header_t *hdr, const uint8_t *buf, size_t buflen)
{
    2826:	dc 01       	movw	r26, r24
    2828:	fb 01       	movw	r30, r22
    if (buflen < 4)
    282a:	44 30       	cpi	r20, 0x04	; 4
    282c:	51 05       	cpc	r21, r1
    282e:	18 f4       	brcc	.+6      	; 0x2836 <coap_parseHeader+0x10>
    2830:	21 e0       	ldi	r18, 0x01	; 1
    2832:	30 e0       	ldi	r19, 0x00	; 0
    2834:	29 c0       	rjmp	.+82     	; 0x2888 <coap_parseHeader+0x62>
        return COAP_ERR_HEADER_TOO_SHORT;
    hdr->ver = (buf[0] & 0xC0) >> 6;
    2836:	80 81       	ld	r24, Z
    2838:	82 95       	swap	r24
    283a:	86 95       	lsr	r24
    283c:	86 95       	lsr	r24
    283e:	83 70       	andi	r24, 0x03	; 3
    2840:	8c 93       	st	X, r24
    if (hdr->ver != 1)
    2842:	81 30       	cpi	r24, 0x01	; 1
    2844:	19 f0       	breq	.+6      	; 0x284c <coap_parseHeader+0x26>
    2846:	22 e0       	ldi	r18, 0x02	; 2
    2848:	30 e0       	ldi	r19, 0x00	; 0
    284a:	1e c0       	rjmp	.+60     	; 0x2888 <coap_parseHeader+0x62>
        return COAP_ERR_VERSION_NOT_1;
    hdr->t = (buf[0] & 0x30) >> 4;
    284c:	80 81       	ld	r24, Z
    284e:	90 e0       	ldi	r25, 0x00	; 0
    2850:	80 73       	andi	r24, 0x30	; 48
    2852:	90 70       	andi	r25, 0x00	; 0
    2854:	24 e0       	ldi	r18, 0x04	; 4
    2856:	95 95       	asr	r25
    2858:	87 95       	ror	r24
    285a:	2a 95       	dec	r18
    285c:	e1 f7       	brne	.-8      	; 0x2856 <coap_parseHeader+0x30>
    285e:	11 96       	adiw	r26, 0x01	; 1
    2860:	8c 93       	st	X, r24
    2862:	11 97       	sbiw	r26, 0x01	; 1
    hdr->tkl = buf[0] & 0x0F;
    2864:	80 81       	ld	r24, Z
    2866:	8f 70       	andi	r24, 0x0F	; 15
    2868:	12 96       	adiw	r26, 0x02	; 2
    286a:	8c 93       	st	X, r24
    286c:	12 97       	sbiw	r26, 0x02	; 2
    hdr->code = buf[1];
    286e:	81 81       	ldd	r24, Z+1	; 0x01
    2870:	13 96       	adiw	r26, 0x03	; 3
    2872:	8c 93       	st	X, r24
    2874:	13 97       	sbiw	r26, 0x03	; 3
    hdr->id[0] = buf[2];
    2876:	82 81       	ldd	r24, Z+2	; 0x02
    2878:	14 96       	adiw	r26, 0x04	; 4
    287a:	8c 93       	st	X, r24
    287c:	14 97       	sbiw	r26, 0x04	; 4
    hdr->id[1] = buf[3];
    287e:	83 81       	ldd	r24, Z+3	; 0x03
    2880:	15 96       	adiw	r26, 0x05	; 5
    2882:	8c 93       	st	X, r24
    2884:	20 e0       	ldi	r18, 0x00	; 0
    2886:	30 e0       	ldi	r19, 0x00	; 0
    return 0;
}
    2888:	c9 01       	movw	r24, r18
    288a:	08 95       	ret

0000288c <coap_parseToken>:

int coap_parseToken(coap_buffer_t *tokbuf, const coap_header_t *hdr, const uint8_t *buf, size_t buflen)
{
    288c:	fc 01       	movw	r30, r24
    288e:	db 01       	movw	r26, r22
    if (hdr->tkl == 0)
    2890:	12 96       	adiw	r26, 0x02	; 2
    2892:	8c 91       	ld	r24, X
    2894:	12 97       	sbiw	r26, 0x02	; 2
    2896:	88 23       	and	r24, r24
    2898:	29 f4       	brne	.+10     	; 0x28a4 <coap_parseToken+0x18>
    {
        tokbuf->p = NULL;
    289a:	10 82       	st	Z, r1
    289c:	11 82       	std	Z+1, r1	; 0x01
        tokbuf->len = 0;
    289e:	12 82       	std	Z+2, r1	; 0x02
    28a0:	13 82       	std	Z+3, r1	; 0x03
    28a2:	0f c0       	rjmp	.+30     	; 0x28c2 <coap_parseToken+0x36>
        return 0;
    }
    else
    if (hdr->tkl <= 8)
    28a4:	89 30       	cpi	r24, 0x09	; 9
    28a6:	80 f4       	brcc	.+32     	; 0x28c8 <coap_parseToken+0x3c>
    {
        if (4U + hdr->tkl > buflen)
    28a8:	90 e0       	ldi	r25, 0x00	; 0
    28aa:	04 96       	adiw	r24, 0x04	; 4
    28ac:	28 17       	cp	r18, r24
    28ae:	39 07       	cpc	r19, r25
    28b0:	58 f0       	brcs	.+22     	; 0x28c8 <coap_parseToken+0x3c>
            return COAP_ERR_TOKEN_TOO_SHORT;   // tok bigger than packet
        tokbuf->p = buf+4;  // past header
    28b2:	4c 5f       	subi	r20, 0xFC	; 252
    28b4:	5f 4f       	sbci	r21, 0xFF	; 255
    28b6:	40 83       	st	Z, r20
    28b8:	51 83       	std	Z+1, r21	; 0x01
        tokbuf->len = hdr->tkl;
    28ba:	12 96       	adiw	r26, 0x02	; 2
    28bc:	8c 91       	ld	r24, X
    28be:	82 83       	std	Z+2, r24	; 0x02
    28c0:	13 82       	std	Z+3, r1	; 0x03
    28c2:	20 e0       	ldi	r18, 0x00	; 0
    28c4:	30 e0       	ldi	r19, 0x00	; 0
    28c6:	02 c0       	rjmp	.+4      	; 0x28cc <coap_parseToken+0x40>
        return 0;
    28c8:	23 e0       	ldi	r18, 0x03	; 3
    28ca:	30 e0       	ldi	r19, 0x00	; 0
    else
    {
        // invalid size
        return COAP_ERR_TOKEN_TOO_SHORT;
    }
}
    28cc:	c9 01       	movw	r24, r18
    28ce:	08 95       	ret

000028d0 <coap_parseOption>:

// advances p
int coap_parseOption(coap_option_t *option, uint16_t *running_delta, const uint8_t **buf, size_t buflen)
{
    28d0:	cf 92       	push	r12
    28d2:	df 92       	push	r13
    28d4:	ef 92       	push	r14
    28d6:	ff 92       	push	r15
    28d8:	0f 93       	push	r16
    28da:	1f 93       	push	r17
    28dc:	cf 93       	push	r28
    28de:	df 93       	push	r29
    28e0:	8c 01       	movw	r16, r24
    28e2:	7b 01       	movw	r14, r22
    28e4:	6a 01       	movw	r12, r20
    28e6:	e9 01       	movw	r28, r18
    const uint8_t *p = *buf;
    28e8:	fa 01       	movw	r30, r20
    28ea:	a0 81       	ld	r26, Z
    28ec:	b1 81       	ldd	r27, Z+1	; 0x01
    uint8_t headlen = 1;
    uint16_t len, delta;

    if (buflen < headlen) // too small
    28ee:	21 15       	cp	r18, r1
    28f0:	31 05       	cpc	r19, r1
    28f2:	09 f4       	brne	.+2      	; 0x28f6 <coap_parseOption+0x26>
    28f4:	90 c0       	rjmp	.+288    	; 0x2a16 <coap_parseOption+0x146>
        return COAP_ERR_OPTION_TOO_SHORT_FOR_HEADER;

    delta = (p[0] & 0xF0) >> 4;
    28f6:	3c 91       	ld	r19, X
    28f8:	83 2f       	mov	r24, r19
    28fa:	82 95       	swap	r24
    28fc:	8f 70       	andi	r24, 0x0F	; 15
    28fe:	68 2f       	mov	r22, r24
    2900:	70 e0       	ldi	r23, 0x00	; 0
    len = p[0] & 0x0F;

    // These are untested and may be buggy
    if (delta == 13)
    2902:	6d 30       	cpi	r22, 0x0D	; 13
    2904:	71 05       	cpc	r23, r1
    2906:	79 f4       	brne	.+30     	; 0x2926 <coap_parseOption+0x56>
    {
        headlen++;
        if (buflen < headlen)
    2908:	c2 30       	cpi	r28, 0x02	; 2
    290a:	d1 05       	cpc	r29, r1
    290c:	08 f4       	brcc	.+2      	; 0x2910 <coap_parseOption+0x40>
    290e:	83 c0       	rjmp	.+262    	; 0x2a16 <coap_parseOption+0x146>
            return COAP_ERR_OPTION_TOO_SHORT_FOR_HEADER;
        delta = p[1] + 13;
    2910:	fd 01       	movw	r30, r26
    2912:	31 96       	adiw	r30, 0x01	; 1
    2914:	11 96       	adiw	r26, 0x01	; 1
    2916:	8c 91       	ld	r24, X
    2918:	11 97       	sbiw	r26, 0x01	; 1
    291a:	68 2f       	mov	r22, r24
    291c:	70 e0       	ldi	r23, 0x00	; 0
    291e:	63 5f       	subi	r22, 0xF3	; 243
    2920:	7f 4f       	sbci	r23, 0xFF	; 255
    2922:	82 e0       	ldi	r24, 0x02	; 2
    2924:	20 c0       	rjmp	.+64     	; 0x2966 <coap_parseOption+0x96>
        p++;
    }
    else
    if (delta == 14)
    2926:	6e 30       	cpi	r22, 0x0E	; 14
    2928:	71 05       	cpc	r23, r1
    292a:	a9 f4       	brne	.+42     	; 0x2956 <coap_parseOption+0x86>
    {
        headlen += 2;
        if (buflen < headlen)
    292c:	c3 30       	cpi	r28, 0x03	; 3
    292e:	d1 05       	cpc	r29, r1
    2930:	08 f4       	brcc	.+2      	; 0x2934 <coap_parseOption+0x64>
    2932:	71 c0       	rjmp	.+226    	; 0x2a16 <coap_parseOption+0x146>
            return COAP_ERR_OPTION_TOO_SHORT_FOR_HEADER;
        delta = ((p[1] << 8) | p[2]) + 269;
    2934:	fd 01       	movw	r30, r26
    2936:	32 96       	adiw	r30, 0x02	; 2
    2938:	11 96       	adiw	r26, 0x01	; 1
    293a:	9c 91       	ld	r25, X
    293c:	11 97       	sbiw	r26, 0x01	; 1
    293e:	80 e0       	ldi	r24, 0x00	; 0
    2940:	12 96       	adiw	r26, 0x02	; 2
    2942:	2c 91       	ld	r18, X
    2944:	12 97       	sbiw	r26, 0x02	; 2
    2946:	62 2f       	mov	r22, r18
    2948:	70 e0       	ldi	r23, 0x00	; 0
    294a:	68 2b       	or	r22, r24
    294c:	79 2b       	or	r23, r25
    294e:	63 5f       	subi	r22, 0xF3	; 243
    2950:	7e 4f       	sbci	r23, 0xFE	; 254
    2952:	83 e0       	ldi	r24, 0x03	; 3
    2954:	08 c0       	rjmp	.+16     	; 0x2966 <coap_parseOption+0x96>
        p+=2;
    }
    else
    if (delta == 15)
    2956:	6f 30       	cpi	r22, 0x0F	; 15
    2958:	71 05       	cpc	r23, r1
    295a:	19 f4       	brne	.+6      	; 0x2962 <coap_parseOption+0x92>
    295c:	2b e0       	ldi	r18, 0x0B	; 11
    295e:	30 e0       	ldi	r19, 0x00	; 0
    2960:	5c c0       	rjmp	.+184    	; 0x2a1a <coap_parseOption+0x14a>
    2962:	fd 01       	movw	r30, r26
    2964:	81 e0       	ldi	r24, 0x01	; 1

    if (buflen < headlen) // too small
        return COAP_ERR_OPTION_TOO_SHORT_FOR_HEADER;

    delta = (p[0] & 0xF0) >> 4;
    len = p[0] & 0x0F;
    2966:	43 2f       	mov	r20, r19
    2968:	50 e0       	ldi	r21, 0x00	; 0
    296a:	4f 70       	andi	r20, 0x0F	; 15
    296c:	50 70       	andi	r21, 0x00	; 0
    }
    else
    if (delta == 15)
        return COAP_ERR_OPTION_DELTA_INVALID;

    if (len == 13)
    296e:	4d 30       	cpi	r20, 0x0D	; 13
    2970:	51 05       	cpc	r21, r1
    2972:	69 f4       	brne	.+26     	; 0x298e <coap_parseOption+0xbe>
    {
        headlen++;
        if (buflen < headlen)
    2974:	8f 5f       	subi	r24, 0xFF	; 255
    2976:	90 e0       	ldi	r25, 0x00	; 0
    2978:	c8 17       	cp	r28, r24
    297a:	d9 07       	cpc	r29, r25
    297c:	08 f4       	brcc	.+2      	; 0x2980 <coap_parseOption+0xb0>
    297e:	4b c0       	rjmp	.+150    	; 0x2a16 <coap_parseOption+0x146>
            return COAP_ERR_OPTION_TOO_SHORT_FOR_HEADER;
        len = p[1] + 13;
    2980:	31 96       	adiw	r30, 0x01	; 1
    2982:	80 81       	ld	r24, Z
    2984:	48 2f       	mov	r20, r24
    2986:	50 e0       	ldi	r21, 0x00	; 0
    2988:	43 5f       	subi	r20, 0xF3	; 243
    298a:	5f 4f       	sbci	r21, 0xFF	; 255
    298c:	19 c0       	rjmp	.+50     	; 0x29c0 <coap_parseOption+0xf0>
        p++;
    }
    else
    if (len == 14)
    298e:	4e 30       	cpi	r20, 0x0E	; 14
    2990:	51 05       	cpc	r21, r1
    2992:	81 f4       	brne	.+32     	; 0x29b4 <coap_parseOption+0xe4>
    {
        headlen += 2;
        if (buflen < headlen)
    2994:	8e 5f       	subi	r24, 0xFE	; 254
    2996:	90 e0       	ldi	r25, 0x00	; 0
    2998:	c8 17       	cp	r28, r24
    299a:	d9 07       	cpc	r29, r25
    299c:	e0 f1       	brcs	.+120    	; 0x2a16 <coap_parseOption+0x146>
            return COAP_ERR_OPTION_TOO_SHORT_FOR_HEADER;
        len = ((p[1] << 8) | p[2]) + 269;
    299e:	91 81       	ldd	r25, Z+1	; 0x01
    29a0:	80 e0       	ldi	r24, 0x00	; 0
    29a2:	32 96       	adiw	r30, 0x02	; 2
    29a4:	20 81       	ld	r18, Z
    29a6:	42 2f       	mov	r20, r18
    29a8:	50 e0       	ldi	r21, 0x00	; 0
    29aa:	48 2b       	or	r20, r24
    29ac:	59 2b       	or	r21, r25
    29ae:	43 5f       	subi	r20, 0xF3	; 243
    29b0:	5e 4f       	sbci	r21, 0xFE	; 254
    29b2:	06 c0       	rjmp	.+12     	; 0x29c0 <coap_parseOption+0xf0>
        p+=2;
    }
    else
    if (len == 15)
    29b4:	4f 30       	cpi	r20, 0x0F	; 15
    29b6:	51 05       	cpc	r21, r1
    29b8:	19 f4       	brne	.+6      	; 0x29c0 <coap_parseOption+0xf0>
    29ba:	28 e0       	ldi	r18, 0x08	; 8
    29bc:	30 e0       	ldi	r19, 0x00	; 0
    29be:	2d c0       	rjmp	.+90     	; 0x2a1a <coap_parseOption+0x14a>
        return COAP_ERR_OPTION_LEN_INVALID;

    if ((p + 1 + len) > (*buf + buflen))
    29c0:	4f 5f       	subi	r20, 0xFF	; 255
    29c2:	5f 4f       	sbci	r21, 0xFF	; 255
    29c4:	9f 01       	movw	r18, r30
    29c6:	24 0f       	add	r18, r20
    29c8:	35 1f       	adc	r19, r21
    29ca:	41 50       	subi	r20, 0x01	; 1
    29cc:	50 40       	sbci	r21, 0x00	; 0
    29ce:	ac 0f       	add	r26, r28
    29d0:	bd 1f       	adc	r27, r29
    29d2:	a2 17       	cp	r26, r18
    29d4:	b3 07       	cpc	r27, r19
    29d6:	18 f4       	brcc	.+6      	; 0x29de <coap_parseOption+0x10e>
    29d8:	27 e0       	ldi	r18, 0x07	; 7
    29da:	30 e0       	ldi	r19, 0x00	; 0
    29dc:	1e c0       	rjmp	.+60     	; 0x2a1a <coap_parseOption+0x14a>
        return COAP_ERR_OPTION_TOO_BIG;
	
    //printf("option num=%d\n", delta + *running_delta);
    option->num = delta + *running_delta;
    29de:	d7 01       	movw	r26, r14
    29e0:	8c 91       	ld	r24, X
    29e2:	86 0f       	add	r24, r22
    29e4:	d8 01       	movw	r26, r16
    29e6:	8c 93       	st	X, r24
	option->buf.p = p+1;
    29e8:	31 96       	adiw	r30, 0x01	; 1
    29ea:	11 96       	adiw	r26, 0x01	; 1
    29ec:	ed 93       	st	X+, r30
    29ee:	fc 93       	st	X, r31
    29f0:	12 97       	sbiw	r26, 0x02	; 2
	option->buf.len = len;
    29f2:	13 96       	adiw	r26, 0x03	; 3
    29f4:	4d 93       	st	X+, r20
    29f6:	5c 93       	st	X, r21
    29f8:	14 97       	sbiw	r26, 0x04	; 4
    //coap_dump(p+1, len, false);
	
    // advance buf
    *buf = p + 1 + len;
    29fa:	f6 01       	movw	r30, r12
    29fc:	20 83       	st	Z, r18
    29fe:	31 83       	std	Z+1, r19	; 0x01
    *running_delta += delta;
    2a00:	d7 01       	movw	r26, r14
    2a02:	8d 91       	ld	r24, X+
    2a04:	9c 91       	ld	r25, X
    2a06:	11 97       	sbiw	r26, 0x01	; 1
    2a08:	86 0f       	add	r24, r22
    2a0a:	97 1f       	adc	r25, r23
    2a0c:	8d 93       	st	X+, r24
    2a0e:	9c 93       	st	X, r25
    2a10:	20 e0       	ldi	r18, 0x00	; 0
    2a12:	30 e0       	ldi	r19, 0x00	; 0
    2a14:	02 c0       	rjmp	.+4      	; 0x2a1a <coap_parseOption+0x14a>

    return 0;
    2a16:	24 e0       	ldi	r18, 0x04	; 4
    2a18:	30 e0       	ldi	r19, 0x00	; 0
}
    2a1a:	c9 01       	movw	r24, r18
    2a1c:	df 91       	pop	r29
    2a1e:	cf 91       	pop	r28
    2a20:	1f 91       	pop	r17
    2a22:	0f 91       	pop	r16
    2a24:	ff 90       	pop	r15
    2a26:	ef 90       	pop	r14
    2a28:	df 90       	pop	r13
    2a2a:	cf 90       	pop	r12
    2a2c:	08 95       	ret

00002a2e <coap_parseOptionsAndPayload>:

// http://tools.ietf.org/html/rfc7252#section-3.1
int coap_parseOptionsAndPayload(coap_option_t *options, uint8_t *numOptions, coap_buffer_t *payload, const coap_header_t *hdr, const uint8_t *buf, size_t buflen)
{
    2a2e:	4f 92       	push	r4
    2a30:	5f 92       	push	r5
    2a32:	6f 92       	push	r6
    2a34:	7f 92       	push	r7
    2a36:	8f 92       	push	r8
    2a38:	9f 92       	push	r9
    2a3a:	af 92       	push	r10
    2a3c:	bf 92       	push	r11
    2a3e:	cf 92       	push	r12
    2a40:	df 92       	push	r13
    2a42:	ef 92       	push	r14
    2a44:	ff 92       	push	r15
    2a46:	0f 93       	push	r16
    2a48:	1f 93       	push	r17
    2a4a:	df 93       	push	r29
    2a4c:	cf 93       	push	r28
    2a4e:	00 d0       	rcall	.+0      	; 0x2a50 <coap_parseOptionsAndPayload+0x22>
    2a50:	0f 92       	push	r0
    2a52:	cd b7       	in	r28, 0x3d	; 61
    2a54:	de b7       	in	r29, 0x3e	; 62
    2a56:	dc 01       	movw	r26, r24
    2a58:	4b 01       	movw	r8, r22
    2a5a:	5a 01       	movw	r10, r20
    2a5c:	f9 01       	movw	r30, r18
    size_t optionIndex = 0;
    uint16_t delta = 0;
    const uint8_t *p = buf + 4 + hdr->tkl;
    2a5e:	82 81       	ldd	r24, Z+2	; 0x02
    2a60:	90 e0       	ldi	r25, 0x00	; 0
    2a62:	04 96       	adiw	r24, 0x04	; 4
    2a64:	80 0f       	add	r24, r16
    2a66:	91 1f       	adc	r25, r17
    const uint8_t *end = buf + buflen;
    2a68:	e0 0e       	add	r14, r16
    2a6a:	f1 1e       	adc	r15, r17
    int rc;
    if (p > end)
    2a6c:	e8 16       	cp	r14, r24
    2a6e:	f9 06       	cpc	r15, r25
    2a70:	18 f4       	brcc	.+6      	; 0x2a78 <coap_parseOptionsAndPayload+0x4a>
    2a72:	26 e0       	ldi	r18, 0x06	; 6
    2a74:	30 e0       	ldi	r19, 0x00	; 0
    2a76:	4d c0       	rjmp	.+154    	; 0x2b12 <coap_parseOptionsAndPayload+0xe4>

// http://tools.ietf.org/html/rfc7252#section-3.1
int coap_parseOptionsAndPayload(coap_option_t *options, uint8_t *numOptions, coap_buffer_t *payload, const coap_header_t *hdr, const uint8_t *buf, size_t buflen)
{
    size_t optionIndex = 0;
    uint16_t delta = 0;
    2a78:	19 82       	std	Y+1, r1	; 0x01
    2a7a:	1a 82       	std	Y+2, r1	; 0x02
    const uint8_t *p = buf + 4 + hdr->tkl;
    2a7c:	8b 83       	std	Y+3, r24	; 0x03
    2a7e:	9c 83       	std	Y+4, r25	; 0x04
    2a80:	6d 01       	movw	r12, r26
    2a82:	00 e0       	ldi	r16, 0x00	; 0
    2a84:	10 e0       	ldi	r17, 0x00	; 0
    //coap_dump(p, end - p);
	
    // 0xFF is payload marker
    while((optionIndex < *numOptions) && (p < end) && (*p != 0xFF))
    {
        if (0 != (rc = coap_parseOption(&options[optionIndex], &delta, &p, end-p))) {
    2a86:	33 e0       	ldi	r19, 0x03	; 3
    2a88:	43 2e       	mov	r4, r19
    2a8a:	51 2c       	mov	r5, r1
    2a8c:	4c 0e       	add	r4, r28
    2a8e:	5d 1e       	adc	r5, r29
    2a90:	3e 01       	movw	r6, r28
    2a92:	08 94       	sec
    2a94:	61 1c       	adc	r6, r1
    2a96:	71 1c       	adc	r7, r1
    2a98:	12 c0       	rjmp	.+36     	; 0x2abe <coap_parseOptionsAndPayload+0x90>
    2a9a:	97 01       	movw	r18, r14
    2a9c:	2e 1b       	sub	r18, r30
    2a9e:	3f 0b       	sbc	r19, r31
    2aa0:	c6 01       	movw	r24, r12
    2aa2:	b3 01       	movw	r22, r6
    2aa4:	a2 01       	movw	r20, r4
    2aa6:	0e 94 68 14 	call	0x28d0	; 0x28d0 <coap_parseOption>
    2aaa:	9c 01       	movw	r18, r24
    2aac:	85 e0       	ldi	r24, 0x05	; 5
    2aae:	90 e0       	ldi	r25, 0x00	; 0
    2ab0:	c8 0e       	add	r12, r24
    2ab2:	d9 1e       	adc	r13, r25
    2ab4:	21 15       	cp	r18, r1
    2ab6:	31 05       	cpc	r19, r1
    2ab8:	61 f5       	brne	.+88     	; 0x2b12 <coap_parseOptionsAndPayload+0xe4>
			return rc;
		}
        optionIndex++;
    2aba:	0f 5f       	subi	r16, 0xFF	; 255
    2abc:	1f 4f       	sbci	r17, 0xFF	; 255
    if (p > end)
		return COAP_ERR_OPTION_OVERRUNS_PACKET;   // out of bounds
    //coap_dump(p, end - p);
	
    // 0xFF is payload marker
    while((optionIndex < *numOptions) && (p < end) && (*p != 0xFF))
    2abe:	f4 01       	movw	r30, r8
    2ac0:	80 81       	ld	r24, Z
    2ac2:	90 e0       	ldi	r25, 0x00	; 0
    2ac4:	08 17       	cp	r16, r24
    2ac6:	19 07       	cpc	r17, r25
    2ac8:	40 f4       	brcc	.+16     	; 0x2ada <coap_parseOptionsAndPayload+0xac>
    2aca:	eb 81       	ldd	r30, Y+3	; 0x03
    2acc:	fc 81       	ldd	r31, Y+4	; 0x04
    2ace:	ee 15       	cp	r30, r14
    2ad0:	ff 05       	cpc	r31, r15
    2ad2:	18 f4       	brcc	.+6      	; 0x2ada <coap_parseOptionsAndPayload+0xac>
    2ad4:	80 81       	ld	r24, Z
    2ad6:	8f 3f       	cpi	r24, 0xFF	; 255
    2ad8:	01 f7       	brne	.-64     	; 0x2a9a <coap_parseOptionsAndPayload+0x6c>
        if (0 != (rc = coap_parseOption(&options[optionIndex], &delta, &p, end-p))) {
			return rc;
		}
        optionIndex++;
    }
    *numOptions = optionIndex;
    2ada:	f4 01       	movw	r30, r8
    2adc:	00 83       	st	Z, r16
	
    if (p+1 < end && *p == 0xFF)  // payload marker
    2ade:	eb 81       	ldd	r30, Y+3	; 0x03
    2ae0:	fc 81       	ldd	r31, Y+4	; 0x04
    2ae2:	9f 01       	movw	r18, r30
    2ae4:	2f 5f       	subi	r18, 0xFF	; 255
    2ae6:	3f 4f       	sbci	r19, 0xFF	; 255
    2ae8:	2e 15       	cp	r18, r14
    2aea:	3f 05       	cpc	r19, r15
    2aec:	58 f4       	brcc	.+22     	; 0x2b04 <coap_parseOptionsAndPayload+0xd6>
    2aee:	80 81       	ld	r24, Z
    2af0:	8f 3f       	cpi	r24, 0xFF	; 255
    2af2:	41 f4       	brne	.+16     	; 0x2b04 <coap_parseOptionsAndPayload+0xd6>
    {
        payload->p = p+1;
    2af4:	f5 01       	movw	r30, r10
    2af6:	20 83       	st	Z, r18
    2af8:	31 83       	std	Z+1, r19	; 0x01
        payload->len = end-(p+1);
    2afa:	e2 1a       	sub	r14, r18
    2afc:	f3 0a       	sbc	r15, r19
    2afe:	e2 82       	std	Z+2, r14	; 0x02
    2b00:	f3 82       	std	Z+3, r15	; 0x03
    2b02:	05 c0       	rjmp	.+10     	; 0x2b0e <coap_parseOptionsAndPayload+0xe0>
    }
    else
    {
        payload->p = NULL;
    2b04:	f5 01       	movw	r30, r10
    2b06:	10 82       	st	Z, r1
    2b08:	11 82       	std	Z+1, r1	; 0x01
        payload->len = 0;
    2b0a:	12 82       	std	Z+2, r1	; 0x02
    2b0c:	13 82       	std	Z+3, r1	; 0x03
    2b0e:	20 e0       	ldi	r18, 0x00	; 0
    2b10:	30 e0       	ldi	r19, 0x00	; 0
    }

    return 0;
}
    2b12:	c9 01       	movw	r24, r18
    2b14:	24 96       	adiw	r28, 0x04	; 4
    2b16:	cd bf       	out	0x3d, r28	; 61
    2b18:	de bf       	out	0x3e, r29	; 62
    2b1a:	cf 91       	pop	r28
    2b1c:	df 91       	pop	r29
    2b1e:	1f 91       	pop	r17
    2b20:	0f 91       	pop	r16
    2b22:	ff 90       	pop	r15
    2b24:	ef 90       	pop	r14
    2b26:	df 90       	pop	r13
    2b28:	cf 90       	pop	r12
    2b2a:	bf 90       	pop	r11
    2b2c:	af 90       	pop	r10
    2b2e:	9f 90       	pop	r9
    2b30:	8f 90       	pop	r8
    2b32:	7f 90       	pop	r7
    2b34:	6f 90       	pop	r6
    2b36:	5f 90       	pop	r5
    2b38:	4f 90       	pop	r4
    2b3a:	08 95       	ret

00002b3c <coap_parse>:
    printf("\n");
}
#endif

int coap_parse(coap_packet_t *pkt, const uint8_t *buf, size_t buflen)
{
    2b3c:	ef 92       	push	r14
    2b3e:	ff 92       	push	r15
    2b40:	0f 93       	push	r16
    2b42:	1f 93       	push	r17
    2b44:	cf 93       	push	r28
    2b46:	df 93       	push	r29
    2b48:	ec 01       	movw	r28, r24
    2b4a:	8b 01       	movw	r16, r22
    2b4c:	7a 01       	movw	r14, r20
    int rc;

    // coap_dump(buf, buflen, false);

    if (0 != (rc = coap_parseHeader(&pkt->hdr, buf, buflen))) {
    2b4e:	0e 94 13 14 	call	0x2826	; 0x2826 <coap_parseHeader>
    2b52:	9c 01       	movw	r18, r24
    2b54:	00 97       	sbiw	r24, 0x00	; 0
    2b56:	c1 f4       	brne	.+48     	; 0x2b88 <coap_parse+0x4c>
        //ON(LED1);
		return rc;
	}
//    coap_dumpHeader(&hdr);
    if (0 != (rc = coap_parseToken(&pkt->tok, &pkt->hdr, buf, buflen))) {
    2b58:	ce 01       	movw	r24, r28
    2b5a:	06 96       	adiw	r24, 0x06	; 6
    2b5c:	be 01       	movw	r22, r28
    2b5e:	a8 01       	movw	r20, r16
    2b60:	97 01       	movw	r18, r14
    2b62:	0e 94 46 14 	call	0x288c	; 0x288c <coap_parseToken>
    2b66:	9c 01       	movw	r18, r24
    2b68:	00 97       	sbiw	r24, 0x00	; 0
    2b6a:	71 f4       	brne	.+28     	; 0x2b88 <coap_parse+0x4c>
        //ON(LED2);
		return rc;
	}
    pkt->numopts = MAXOPT;
    2b6c:	80 e1       	ldi	r24, 0x10	; 16
    2b6e:	8a 87       	std	Y+10, r24	; 0x0a
    if (0 != (rc = coap_parseOptionsAndPayload(pkt->opts, &(pkt->numopts), &(pkt->payload), &pkt->hdr, buf, buflen))) {
    2b70:	be 01       	movw	r22, r28
    2b72:	66 5f       	subi	r22, 0xF6	; 246
    2b74:	7f 4f       	sbci	r23, 0xFF	; 255
    2b76:	ae 01       	movw	r20, r28
    2b78:	45 5a       	subi	r20, 0xA5	; 165
    2b7a:	5f 4f       	sbci	r21, 0xFF	; 255
    2b7c:	ce 01       	movw	r24, r28
    2b7e:	0b 96       	adiw	r24, 0x0b	; 11
    2b80:	9e 01       	movw	r18, r28
    2b82:	0e 94 17 15 	call	0x2a2e	; 0x2a2e <coap_parseOptionsAndPayload>
    2b86:	9c 01       	movw	r18, r24
      	//ON(LED3);
	    return rc;
	}
//    coap_dumpOptions(opts, numopt);
    return 0;
}
    2b88:	c9 01       	movw	r24, r18
    2b8a:	df 91       	pop	r29
    2b8c:	cf 91       	pop	r28
    2b8e:	1f 91       	pop	r17
    2b90:	0f 91       	pop	r16
    2b92:	ff 90       	pop	r15
    2b94:	ef 90       	pop	r14
    2b96:	08 95       	ret

00002b98 <coap_findOptions>:

// options are always stored consecutively, so can return a block with same option num
const coap_option_t *coap_findOptions(const coap_packet_t *pkt, uint8_t num, uint8_t *count)
{
    2b98:	cf 93       	push	r28
    2b9a:	df 93       	push	r29
    2b9c:	ec 01       	movw	r28, r24
    2b9e:	da 01       	movw	r26, r20
    // FIXME, options is always sorted, can find faster than this
    size_t i;
    const coap_option_t *first = NULL;
    *count = 0;
    2ba0:	1c 92       	st	X, r1
    2ba2:	fc 01       	movw	r30, r24
    2ba4:	40 e0       	ldi	r20, 0x00	; 0
    2ba6:	50 e0       	ldi	r21, 0x00	; 0
    2ba8:	20 e0       	ldi	r18, 0x00	; 0
    2baa:	30 e0       	ldi	r19, 0x00	; 0
    2bac:	1b c0       	rjmp	.+54     	; 0x2be4 <coap_findOptions+0x4c>
    for (i=0;i<pkt->numopts;i++)
    {
        if (pkt->opts[i].num == num)
    2bae:	83 85       	ldd	r24, Z+11	; 0x0b
    2bb0:	86 17       	cp	r24, r22
    2bb2:	91 f4       	brne	.+36     	; 0x2bd8 <coap_findOptions+0x40>
        {
            if (NULL == first)
    2bb4:	21 15       	cp	r18, r1
    2bb6:	31 05       	cpc	r19, r1
    2bb8:	59 f4       	brne	.+22     	; 0x2bd0 <coap_findOptions+0x38>
                first = &pkt->opts[i];
    2bba:	9a 01       	movw	r18, r20
    2bbc:	22 0f       	add	r18, r18
    2bbe:	33 1f       	adc	r19, r19
    2bc0:	22 0f       	add	r18, r18
    2bc2:	33 1f       	adc	r19, r19
    2bc4:	24 0f       	add	r18, r20
    2bc6:	35 1f       	adc	r19, r21
    2bc8:	25 5f       	subi	r18, 0xF5	; 245
    2bca:	3f 4f       	sbci	r19, 0xFF	; 255
    2bcc:	2c 0f       	add	r18, r28
    2bce:	3d 1f       	adc	r19, r29
            (*count)++;
    2bd0:	8c 91       	ld	r24, X
    2bd2:	8f 5f       	subi	r24, 0xFF	; 255
    2bd4:	8c 93       	st	X, r24
    2bd6:	03 c0       	rjmp	.+6      	; 0x2bde <coap_findOptions+0x46>
        }
        else
        {
            if (NULL != first)
    2bd8:	21 15       	cp	r18, r1
    2bda:	31 05       	cpc	r19, r1
    2bdc:	41 f4       	brne	.+16     	; 0x2bee <coap_findOptions+0x56>
{
    // FIXME, options is always sorted, can find faster than this
    size_t i;
    const coap_option_t *first = NULL;
    *count = 0;
    for (i=0;i<pkt->numopts;i++)
    2bde:	4f 5f       	subi	r20, 0xFF	; 255
    2be0:	5f 4f       	sbci	r21, 0xFF	; 255
    2be2:	35 96       	adiw	r30, 0x05	; 5
    2be4:	8a 85       	ldd	r24, Y+10	; 0x0a
    2be6:	90 e0       	ldi	r25, 0x00	; 0
    2be8:	48 17       	cp	r20, r24
    2bea:	59 07       	cpc	r21, r25
    2bec:	00 f3       	brcs	.-64     	; 0x2bae <coap_findOptions+0x16>
            if (NULL != first)
                break;
        }
    }
    return first;
}
    2bee:	c9 01       	movw	r24, r18
    2bf0:	df 91       	pop	r29
    2bf2:	cf 91       	pop	r28
    2bf4:	08 95       	ret

00002bf6 <coap_option_nibble>:
        *buflen = opts_len + 4;
    return 0;
}

void coap_option_nibble(uint32_t value, uint8_t *nibble)
{
    2bf6:	fa 01       	movw	r30, r20
    if (value<13)
    2bf8:	6d 30       	cpi	r22, 0x0D	; 13
    2bfa:	71 05       	cpc	r23, r1
    2bfc:	81 05       	cpc	r24, r1
    2bfe:	91 05       	cpc	r25, r1
    2c00:	10 f4       	brcc	.+4      	; 0x2c06 <coap_option_nibble+0x10>
    {
        *nibble = (0xFF & value);
    2c02:	60 83       	st	Z, r22
    2c04:	08 95       	ret
    }
    else
    if (value<=0xFF+13)
    2c06:	6d 50       	subi	r22, 0x0D	; 13
    2c08:	71 40       	sbci	r23, 0x01	; 1
    2c0a:	80 40       	sbci	r24, 0x00	; 0
    2c0c:	90 40       	sbci	r25, 0x00	; 0
    2c0e:	10 f4       	brcc	.+4      	; 0x2c14 <coap_option_nibble+0x1e>
    {
        *nibble = 13;
    2c10:	8d e0       	ldi	r24, 0x0D	; 13
    2c12:	80 83       	st	Z, r24
    2c14:	08 95       	ret

00002c16 <coap_make_response>:
        *nibble = 14;
    }
}

int coap_make_response(coap_rw_buffer_t *scratch, coap_packet_t *pkt, const uint8_t *content, size_t content_len, uint8_t msgid_hi, uint8_t msgid_lo, const coap_buffer_t* tok, coap_responsecode_t rspcode, coap_content_type_t content_type)
{
    2c16:	6f 92       	push	r6
    2c18:	7f 92       	push	r7
    2c1a:	8f 92       	push	r8
    2c1c:	af 92       	push	r10
    2c1e:	cf 92       	push	r12
    2c20:	df 92       	push	r13
    2c22:	ef 92       	push	r14
    2c24:	0f 93       	push	r16
    2c26:	df 93       	push	r29
    2c28:	cf 93       	push	r28
    2c2a:	cd b7       	in	r28, 0x3d	; 61
    2c2c:	de b7       	in	r29, 0x3e	; 62
    2c2e:	3c 01       	movw	r6, r24
    2c30:	f6 01       	movw	r30, r12
    pkt->hdr.ver = 0x01;
    2c32:	91 e0       	ldi	r25, 0x01	; 1
    2c34:	db 01       	movw	r26, r22
    2c36:	9c 93       	st	X, r25
    pkt->hdr.t = COAP_TYPE_ACK;
    2c38:	82 e0       	ldi	r24, 0x02	; 2
    2c3a:	11 96       	adiw	r26, 0x01	; 1
    2c3c:	8c 93       	st	X, r24
    2c3e:	11 97       	sbiw	r26, 0x01	; 1
    pkt->hdr.tkl = 0;
    2c40:	12 96       	adiw	r26, 0x02	; 2
    2c42:	1c 92       	st	X, r1
    2c44:	12 97       	sbiw	r26, 0x02	; 2
    pkt->hdr.code = rspcode;
    2c46:	13 96       	adiw	r26, 0x03	; 3
    2c48:	ac 92       	st	X, r10
    2c4a:	13 97       	sbiw	r26, 0x03	; 3
    pkt->hdr.id[0] = msgid_hi;
    2c4c:	14 96       	adiw	r26, 0x04	; 4
    2c4e:	0c 93       	st	X, r16
    2c50:	14 97       	sbiw	r26, 0x04	; 4
    pkt->hdr.id[1] = msgid_lo;
    2c52:	15 96       	adiw	r26, 0x05	; 5
    2c54:	ec 92       	st	X, r14
    2c56:	15 97       	sbiw	r26, 0x05	; 5
    pkt->numopts = 1;
    2c58:	1a 96       	adiw	r26, 0x0a	; 10
    2c5a:	9c 93       	st	X, r25
    2c5c:	1a 97       	sbiw	r26, 0x0a	; 10

    // need token in response
    if (tok) {
    2c5e:	c1 14       	cp	r12, r1
    2c60:	d1 04       	cpc	r13, r1
    2c62:	61 f0       	breq	.+24     	; 0x2c7c <coap_make_response+0x66>
        pkt->hdr.tkl = tok->len;
    2c64:	82 81       	ldd	r24, Z+2	; 0x02
    2c66:	12 96       	adiw	r26, 0x02	; 2
    2c68:	8c 93       	st	X, r24
        pkt->tok = *tok;
    2c6a:	80 81       	ld	r24, Z
    2c6c:	91 81       	ldd	r25, Z+1	; 0x01
    2c6e:	a2 81       	ldd	r26, Z+2	; 0x02
    2c70:	b3 81       	ldd	r27, Z+3	; 0x03
    2c72:	fb 01       	movw	r30, r22
    2c74:	86 83       	std	Z+6, r24	; 0x06
    2c76:	97 83       	std	Z+7, r25	; 0x07
    2c78:	a0 87       	std	Z+8, r26	; 0x08
    2c7a:	b1 87       	std	Z+9, r27	; 0x09
    }

    // safe because 1 < MAXOPT
    pkt->opts[0].num = COAP_OPTION_CONTENT_FORMAT;
    2c7c:	8c e0       	ldi	r24, 0x0C	; 12
    2c7e:	db 01       	movw	r26, r22
    2c80:	1b 96       	adiw	r26, 0x0b	; 11
    2c82:	8c 93       	st	X, r24
    2c84:	1b 97       	sbiw	r26, 0x0b	; 11
    pkt->opts[0].buf.p = scratch->p;
    2c86:	f3 01       	movw	r30, r6
    2c88:	80 81       	ld	r24, Z
    2c8a:	91 81       	ldd	r25, Z+1	; 0x01
    2c8c:	1c 96       	adiw	r26, 0x0c	; 12
    2c8e:	8d 93       	st	X+, r24
    2c90:	9c 93       	st	X, r25
    2c92:	1d 97       	sbiw	r26, 0x0d	; 13
    if (scratch->len < 2)
    2c94:	82 81       	ldd	r24, Z+2	; 0x02
    2c96:	93 81       	ldd	r25, Z+3	; 0x03
    2c98:	02 97       	sbiw	r24, 0x02	; 2
    2c9a:	18 f4       	brcc	.+6      	; 0x2ca2 <coap_make_response+0x8c>
    2c9c:	29 e0       	ldi	r18, 0x09	; 9
    2c9e:	30 e0       	ldi	r19, 0x00	; 0
    2ca0:	1b c0       	rjmp	.+54     	; 0x2cd8 <coap_make_response+0xc2>
        return COAP_ERR_BUFFER_TOO_SMALL;
    scratch->p[0] = (uint8_t)((uint16_t)content_type >> 8);
    2ca2:	d3 01       	movw	r26, r6
    2ca4:	ed 91       	ld	r30, X+
    2ca6:	fc 91       	ld	r31, X
    2ca8:	11 97       	sbiw	r26, 0x01	; 1
    2caa:	88 2d       	mov	r24, r8
    2cac:	99 27       	eor	r25, r25
    2cae:	87 fd       	sbrc	r24, 7
    2cb0:	90 95       	com	r25
    2cb2:	90 83       	st	Z, r25
    scratch->p[1] = (uint8_t)content_type;
    2cb4:	ed 91       	ld	r30, X+
    2cb6:	fc 91       	ld	r31, X
    2cb8:	81 82       	std	Z+1, r8	; 0x01
    pkt->opts[0].buf.len = 2;
    2cba:	82 e0       	ldi	r24, 0x02	; 2
    2cbc:	90 e0       	ldi	r25, 0x00	; 0
    2cbe:	fb 01       	movw	r30, r22
    2cc0:	86 87       	std	Z+14, r24	; 0x0e
    2cc2:	97 87       	std	Z+15, r25	; 0x0f
    pkt->payload.p = content;
    2cc4:	65 5a       	subi	r22, 0xA5	; 165
    2cc6:	7f 4f       	sbci	r23, 0xFF	; 255
    2cc8:	db 01       	movw	r26, r22
    2cca:	4d 93       	st	X+, r20
    2ccc:	5d 93       	st	X+, r21
    pkt->payload.len = content_len;
    2cce:	fd 01       	movw	r30, r26
    2cd0:	20 83       	st	Z, r18
    2cd2:	31 83       	std	Z+1, r19	; 0x01
    2cd4:	20 e0       	ldi	r18, 0x00	; 0
    2cd6:	30 e0       	ldi	r19, 0x00	; 0
    return 0;
}
    2cd8:	c9 01       	movw	r24, r18
    2cda:	cf 91       	pop	r28
    2cdc:	df 91       	pop	r29
    2cde:	0f 91       	pop	r16
    2ce0:	ef 90       	pop	r14
    2ce2:	df 90       	pop	r13
    2ce4:	cf 90       	pop	r12
    2ce6:	af 90       	pop	r10
    2ce8:	8f 90       	pop	r8
    2cea:	7f 90       	pop	r7
    2cec:	6f 90       	pop	r6
    2cee:	08 95       	ret

00002cf0 <coap_make_reset>:

// thagemeier: Send a reset in response to an illegal/not understood coap request:
int coap_make_reset(coap_rw_buffer_t *scratch, coap_packet_t *pkt, uint8_t msgid_hi, uint8_t msgid_lo, const coap_buffer_t* tok /*, coap_responsecode_t rspcode*/)
{
    2cf0:	0f 93       	push	r16
    2cf2:	1f 93       	push	r17
    2cf4:	fb 01       	movw	r30, r22
    2cf6:	d8 01       	movw	r26, r16
    pkt->hdr.ver = 0x01;
    2cf8:	81 e0       	ldi	r24, 0x01	; 1
    2cfa:	80 83       	st	Z, r24
    pkt->hdr.t = COAP_TYPE_RESET;
    2cfc:	83 e0       	ldi	r24, 0x03	; 3
    2cfe:	81 83       	std	Z+1, r24	; 0x01
    pkt->hdr.tkl = 0;
    2d00:	12 82       	std	Z+2, r1	; 0x02
    pkt->hdr.code = COAP_RSPCODE_BAD_REQUEST;
    2d02:	80 e8       	ldi	r24, 0x80	; 128
    2d04:	83 83       	std	Z+3, r24	; 0x03
    pkt->hdr.id[0] = msgid_hi;
    2d06:	44 83       	std	Z+4, r20	; 0x04
    pkt->hdr.id[1] = msgid_lo;
    2d08:	25 83       	std	Z+5, r18	; 0x05
    pkt->numopts = 0;
    2d0a:	12 86       	std	Z+10, r1	; 0x0a
	
    // need token in response?
    if (tok) {
    2d0c:	01 15       	cp	r16, r1
    2d0e:	11 05       	cpc	r17, r1
    2d10:	69 f0       	breq	.+26     	; 0x2d2c <coap_make_reset+0x3c>
        pkt->hdr.tkl = tok->len;
    2d12:	12 96       	adiw	r26, 0x02	; 2
    2d14:	8c 91       	ld	r24, X
    2d16:	12 97       	sbiw	r26, 0x02	; 2
    2d18:	82 83       	std	Z+2, r24	; 0x02
        pkt->tok = *tok;
    2d1a:	8d 91       	ld	r24, X+
    2d1c:	9d 91       	ld	r25, X+
    2d1e:	0d 90       	ld	r0, X+
    2d20:	bc 91       	ld	r27, X
    2d22:	a0 2d       	mov	r26, r0
    2d24:	86 83       	std	Z+6, r24	; 0x06
    2d26:	97 83       	std	Z+7, r25	; 0x07
    2d28:	a0 87       	std	Z+8, r26	; 0x08
    2d2a:	b1 87       	std	Z+9, r27	; 0x09
    }
	
    pkt->payload.p = NULL;
    2d2c:	e5 5a       	subi	r30, 0xA5	; 165
    2d2e:	ff 4f       	sbci	r31, 0xFF	; 255
    2d30:	11 92       	st	Z+, r1
    2d32:	11 92       	st	Z+, r1
    pkt->payload.len = 0;
    2d34:	10 82       	st	Z, r1
    2d36:	11 82       	std	Z+1, r1	; 0x01
    return 0;
}
    2d38:	80 e0       	ldi	r24, 0x00	; 0
    2d3a:	90 e0       	ldi	r25, 0x00	; 0
    2d3c:	1f 91       	pop	r17
    2d3e:	0f 91       	pop	r16
    2d40:	08 95       	ret

00002d42 <coap_hasUnknownCriticalOptions>:

unsigned char coap_hasUnknownCriticalOptions(const coap_packet_t *pkt) {
    2d42:	fc 01       	movw	r30, r24
	
    size_t i;
    for (i=0;i<pkt->numopts;i++) {
    2d44:	82 85       	ldd	r24, Z+10	; 0x0a
    2d46:	48 2f       	mov	r20, r24
    2d48:	50 e0       	ldi	r21, 0x00	; 0
    2d4a:	20 e0       	ldi	r18, 0x00	; 0
    2d4c:	30 e0       	ldi	r19, 0x00	; 0
    2d4e:	0a c0       	rjmp	.+20     	; 0x2d64 <coap_hasUnknownCriticalOptions+0x22>
		// Critical option we do not know..?
		if ((pkt->opts[i].num != COAP_OPTION_URI_PATH) && (pkt->opts[i].num & 1)) {
    2d50:	93 85       	ldd	r25, Z+11	; 0x0b
    2d52:	9b 30       	cpi	r25, 0x0B	; 11
    2d54:	21 f0       	breq	.+8      	; 0x2d5e <coap_hasUnknownCriticalOptions+0x1c>
    2d56:	90 ff       	sbrs	r25, 0
    2d58:	02 c0       	rjmp	.+4      	; 0x2d5e <coap_hasUnknownCriticalOptions+0x1c>
    2d5a:	81 e0       	ldi	r24, 0x01	; 1
    2d5c:	08 95       	ret
}

unsigned char coap_hasUnknownCriticalOptions(const coap_packet_t *pkt) {
	
    size_t i;
    for (i=0;i<pkt->numopts;i++) {
    2d5e:	2f 5f       	subi	r18, 0xFF	; 255
    2d60:	3f 4f       	sbci	r19, 0xFF	; 255
    2d62:	35 96       	adiw	r30, 0x05	; 5
    2d64:	24 17       	cp	r18, r20
    2d66:	35 07       	cpc	r19, r21
    2d68:	98 f3       	brcs	.-26     	; 0x2d50 <coap_hasUnknownCriticalOptions+0xe>
    2d6a:	80 e0       	ldi	r24, 0x00	; 0
		if ((pkt->opts[i].num != COAP_OPTION_URI_PATH) && (pkt->opts[i].num & 1)) {
			return 1;
        }
    }
	return 0;
}
    2d6c:	08 95       	ret

00002d6e <coap_handle_req>:

// FIXME, if this looked in the table at the path before the method then
// it could more easily return 405 errors
int coap_handle_req(coap_rw_buffer_t *scratch, const coap_packet_t *inpkt, coap_packet_t *outpkt, void * info)
{
    2d6e:	2f 92       	push	r2
    2d70:	3f 92       	push	r3
    2d72:	4f 92       	push	r4
    2d74:	5f 92       	push	r5
    2d76:	6f 92       	push	r6
    2d78:	7f 92       	push	r7
    2d7a:	8f 92       	push	r8
    2d7c:	9f 92       	push	r9
    2d7e:	af 92       	push	r10
    2d80:	bf 92       	push	r11
    2d82:	cf 92       	push	r12
    2d84:	df 92       	push	r13
    2d86:	ef 92       	push	r14
    2d88:	ff 92       	push	r15
    2d8a:	0f 93       	push	r16
    2d8c:	1f 93       	push	r17
    2d8e:	df 93       	push	r29
    2d90:	cf 93       	push	r28
    2d92:	cd b7       	in	r28, 0x3d	; 61
    2d94:	de b7       	in	r29, 0x3e	; 62
    2d96:	25 97       	sbiw	r28, 0x05	; 5
    2d98:	cd bf       	out	0x3d, r28	; 61
    2d9a:	de bf       	out	0x3e, r29	; 62
    2d9c:	3c 01       	movw	r6, r24
    2d9e:	6b 01       	movw	r12, r22
    2da0:	2a 01       	movw	r4, r20
    2da2:	2c 83       	std	Y+4, r18	; 0x04
    2da4:	3d 83       	std	Y+5, r19	; 0x05
    uint8_t count;
    int i;
    const coap_endpoint_t *ep = endpoints;
		
	// Test if there is any criticial options we do not know/are unable to handle - thagemeier
	if (coap_hasUnknownCriticalOptions(inpkt)) {
    2da6:	cb 01       	movw	r24, r22
    2da8:	0e 94 a1 16 	call	0x2d42	; 0x2d42 <coap_hasUnknownCriticalOptions>
    2dac:	88 23       	and	r24, r24
    2dae:	29 f4       	brne	.+10     	; 0x2dba <coap_handle_req+0x4c>
    2db0:	f4 e4       	ldi	r31, 0x44	; 68
    2db2:	8f 2e       	mov	r8, r31
    2db4:	f0 e2       	ldi	r31, 0x20	; 32
    2db6:	9f 2e       	mov	r9, r31
    2db8:	70 c0       	rjmp	.+224    	; 0x2e9a <coap_handle_req+0x12c>
		coap_make_reset(scratch, outpkt, inpkt->hdr.id[0], inpkt->hdr.id[1], &inpkt->tok);
    2dba:	c3 01       	movw	r24, r6
    2dbc:	b2 01       	movw	r22, r4
    2dbe:	d6 01       	movw	r26, r12
    2dc0:	14 96       	adiw	r26, 0x04	; 4
    2dc2:	4c 91       	ld	r20, X
    2dc4:	14 97       	sbiw	r26, 0x04	; 4
    2dc6:	15 96       	adiw	r26, 0x05	; 5
    2dc8:	2c 91       	ld	r18, X
    2dca:	e6 e0       	ldi	r30, 0x06	; 6
    2dcc:	f0 e0       	ldi	r31, 0x00	; 0
    2dce:	ce 0e       	add	r12, r30
    2dd0:	df 1e       	adc	r13, r31
    2dd2:	86 01       	movw	r16, r12
    2dd4:	0e 94 78 16 	call	0x2cf0	; 0x2cf0 <coap_make_reset>
    2dd8:	7d c0       	rjmp	.+250    	; 0x2ed4 <coap_handle_req+0x166>
	}
	
    while(NULL != ep->handler)
    {
		//uart_printf_P(PSTR("Search.."));
		if (ep->method != inpkt->hdr.code) {
    2dda:	d4 01       	movw	r26, r8
    2ddc:	9c 91       	ld	r25, X
    2dde:	f6 01       	movw	r30, r12
    2de0:	83 81       	ldd	r24, Z+3	; 0x03
    2de2:	98 17       	cp	r25, r24
    2de4:	09 f0       	breq	.+2      	; 0x2de8 <coap_handle_req+0x7a>
    2de6:	55 c0       	rjmp	.+170    	; 0x2e92 <coap_handle_req+0x124>
            //uart_printf_P(PSTR("Meth."));
			goto next;
		}
        if (NULL != (opt = coap_findOptions(inpkt, COAP_OPTION_URI_PATH, &count)))
    2de8:	c6 01       	movw	r24, r12
    2dea:	6b e0       	ldi	r22, 0x0B	; 11
    2dec:	ae 01       	movw	r20, r28
    2dee:	4f 5f       	subi	r20, 0xFF	; 255
    2df0:	5f 4f       	sbci	r21, 0xFF	; 255
    2df2:	0e 94 cc 15 	call	0x2b98	; 0x2b98 <coap_findOptions>
    2df6:	9c 01       	movw	r18, r24
    2df8:	00 97       	sbiw	r24, 0x00	; 0
    2dfa:	09 f4       	brne	.+2      	; 0x2dfe <coap_handle_req+0x90>
    2dfc:	4a c0       	rjmp	.+148    	; 0x2e92 <coap_handle_req+0x124>
        {
            if (count != ep->path->count) {
    2dfe:	89 81       	ldd	r24, Y+1	; 0x01
    2e00:	28 2e       	mov	r2, r24
    2e02:	33 24       	eor	r3, r3
    2e04:	d4 01       	movw	r26, r8
    2e06:	13 96       	adiw	r26, 0x03	; 3
    2e08:	ed 91       	ld	r30, X+
    2e0a:	fc 91       	ld	r31, X
    2e0c:	14 97       	sbiw	r26, 0x04	; 4
    2e0e:	80 81       	ld	r24, Z
    2e10:	91 81       	ldd	r25, Z+1	; 0x01
    2e12:	28 16       	cp	r2, r24
    2e14:	39 06       	cpc	r3, r25
    2e16:	e9 f5       	brne	.+122    	; 0x2e92 <coap_handle_req+0x124>
                //uart_printf_P(PSTR("OptCount %u vs %u."), count, ep->path->count);
				goto next;
    2e18:	79 01       	movw	r14, r18
    2e1a:	8f 01       	movw	r16, r30
    2e1c:	aa 24       	eor	r10, r10
    2e1e:	bb 24       	eor	r11, r11
    2e20:	25 c0       	rjmp	.+74     	; 0x2e6c <coap_handle_req+0xfe>
			}
            for (i=0;i<count;i++)
            {
                if (opt[i].buf.len != strlen(ep->path->elems[i])) {
    2e22:	f7 01       	movw	r30, r14
    2e24:	43 81       	ldd	r20, Z+3	; 0x03
    2e26:	54 81       	ldd	r21, Z+4	; 0x04
    2e28:	d8 01       	movw	r26, r16
    2e2a:	12 96       	adiw	r26, 0x02	; 2
    2e2c:	8c 91       	ld	r24, X
    2e2e:	12 97       	sbiw	r26, 0x02	; 2
    2e30:	13 96       	adiw	r26, 0x03	; 3
    2e32:	9c 91       	ld	r25, X
    2e34:	dc 01       	movw	r26, r24
    2e36:	fd 01       	movw	r30, r26
    2e38:	01 90       	ld	r0, Z+
    2e3a:	00 20       	and	r0, r0
    2e3c:	e9 f7       	brne	.-6      	; 0x2e38 <coap_handle_req+0xca>
    2e3e:	31 97       	sbiw	r30, 0x01	; 1
    2e40:	ea 1b       	sub	r30, r26
    2e42:	fb 0b       	sbc	r31, r27
    2e44:	4e 17       	cp	r20, r30
    2e46:	5f 07       	cpc	r21, r31
    2e48:	21 f5       	brne	.+72     	; 0x2e92 <coap_handle_req+0x124>
                    //uart_printf_P(PSTR("Optlen %u."), i);
					goto next;
				}
                if (0 != memcmp(ep->path->elems[i], opt[i].buf.p, opt[i].buf.len)) {
    2e4a:	f7 01       	movw	r30, r14
    2e4c:	61 81       	ldd	r22, Z+1	; 0x01
    2e4e:	72 81       	ldd	r23, Z+2	; 0x02
    2e50:	0e 94 b3 28 	call	0x5166	; 0x5166 <memcmp>
    2e54:	9c 01       	movw	r18, r24
    2e56:	85 e0       	ldi	r24, 0x05	; 5
    2e58:	90 e0       	ldi	r25, 0x00	; 0
    2e5a:	e8 0e       	add	r14, r24
    2e5c:	f9 1e       	adc	r15, r25
    2e5e:	0e 5f       	subi	r16, 0xFE	; 254
    2e60:	1f 4f       	sbci	r17, 0xFF	; 255
    2e62:	23 2b       	or	r18, r19
    2e64:	b1 f4       	brne	.+44     	; 0x2e92 <coap_handle_req+0x124>
        {
            if (count != ep->path->count) {
                //uart_printf_P(PSTR("OptCount %u vs %u."), count, ep->path->count);
				goto next;
			}
            for (i=0;i<count;i++)
    2e66:	08 94       	sec
    2e68:	a1 1c       	adc	r10, r1
    2e6a:	b1 1c       	adc	r11, r1
    2e6c:	a2 14       	cp	r10, r2
    2e6e:	b3 04       	cpc	r11, r3
    2e70:	c4 f2       	brlt	.-80     	; 0x2e22 <coap_handle_req+0xb4>
                    //uart_printf_P(PSTR("OptCmp %i"));
					goto next;
				}
            }
            // match!
            return ep->handler(scratch, inpkt, outpkt, inpkt->hdr.id[0], inpkt->hdr.id[1], info);
    2e72:	c3 01       	movw	r24, r6
    2e74:	b6 01       	movw	r22, r12
    2e76:	a2 01       	movw	r20, r4
    2e78:	d6 01       	movw	r26, r12
    2e7a:	14 96       	adiw	r26, 0x04	; 4
    2e7c:	2c 91       	ld	r18, X
    2e7e:	14 97       	sbiw	r26, 0x04	; 4
    2e80:	15 96       	adiw	r26, 0x05	; 5
    2e82:	0c 91       	ld	r16, X
    2e84:	ec 80       	ldd	r14, Y+4	; 0x04
    2e86:	fd 80       	ldd	r15, Y+5	; 0x05
    2e88:	ea 81       	ldd	r30, Y+2	; 0x02
    2e8a:	fb 81       	ldd	r31, Y+3	; 0x03
    2e8c:	19 95       	eicall
    2e8e:	9c 01       	movw	r18, r24
    2e90:	23 c0       	rjmp	.+70     	; 0x2ed8 <coap_handle_req+0x16a>
        }
next:
        ep++;
    2e92:	87 e0       	ldi	r24, 0x07	; 7
    2e94:	90 e0       	ldi	r25, 0x00	; 0
    2e96:	88 0e       	add	r8, r24
    2e98:	99 1e       	adc	r9, r25
	if (coap_hasUnknownCriticalOptions(inpkt)) {
		coap_make_reset(scratch, outpkt, inpkt->hdr.id[0], inpkt->hdr.id[1], &inpkt->tok);
		return 0;
	}
	
    while(NULL != ep->handler)
    2e9a:	d4 01       	movw	r26, r8
    2e9c:	11 96       	adiw	r26, 0x01	; 1
    2e9e:	0d 90       	ld	r0, X+
    2ea0:	bc 91       	ld	r27, X
    2ea2:	a0 2d       	mov	r26, r0
    2ea4:	aa 83       	std	Y+2, r26	; 0x02
    2ea6:	bb 83       	std	Y+3, r27	; 0x03
    2ea8:	ab 2b       	or	r26, r27
    2eaa:	09 f0       	breq	.+2      	; 0x2eae <coap_handle_req+0x140>
    2eac:	96 cf       	rjmp	.-212    	; 0x2dda <coap_handle_req+0x6c>
        }
next:
        ep++;
    }
	
    coap_make_response(scratch, outpkt, NULL, 0, inpkt->hdr.id[0], inpkt->hdr.id[1], &inpkt->tok, COAP_RSPCODE_NOT_FOUND, COAP_CONTENTTYPE_NONE);
    2eae:	c3 01       	movw	r24, r6
    2eb0:	b2 01       	movw	r22, r4
    2eb2:	40 e0       	ldi	r20, 0x00	; 0
    2eb4:	50 e0       	ldi	r21, 0x00	; 0
    2eb6:	20 e0       	ldi	r18, 0x00	; 0
    2eb8:	30 e0       	ldi	r19, 0x00	; 0
    2eba:	f6 01       	movw	r30, r12
    2ebc:	04 81       	ldd	r16, Z+4	; 0x04
    2ebe:	e5 80       	ldd	r14, Z+5	; 0x05
    2ec0:	a6 e0       	ldi	r26, 0x06	; 6
    2ec2:	b0 e0       	ldi	r27, 0x00	; 0
    2ec4:	ca 0e       	add	r12, r26
    2ec6:	db 1e       	adc	r13, r27
    2ec8:	e4 e8       	ldi	r30, 0x84	; 132
    2eca:	ae 2e       	mov	r10, r30
    2ecc:	88 24       	eor	r8, r8
    2ece:	8a 94       	dec	r8
    2ed0:	0e 94 0b 16 	call	0x2c16	; 0x2c16 <coap_make_response>
    2ed4:	20 e0       	ldi	r18, 0x00	; 0
    2ed6:	30 e0       	ldi	r19, 0x00	; 0
	
    return 0;
}
    2ed8:	c9 01       	movw	r24, r18
    2eda:	25 96       	adiw	r28, 0x05	; 5
    2edc:	cd bf       	out	0x3d, r28	; 61
    2ede:	de bf       	out	0x3e, r29	; 62
    2ee0:	cf 91       	pop	r28
    2ee2:	df 91       	pop	r29
    2ee4:	1f 91       	pop	r17
    2ee6:	0f 91       	pop	r16
    2ee8:	ff 90       	pop	r15
    2eea:	ef 90       	pop	r14
    2eec:	df 90       	pop	r13
    2eee:	cf 90       	pop	r12
    2ef0:	bf 90       	pop	r11
    2ef2:	af 90       	pop	r10
    2ef4:	9f 90       	pop	r9
    2ef6:	8f 90       	pop	r8
    2ef8:	7f 90       	pop	r7
    2efa:	6f 90       	pop	r6
    2efc:	5f 90       	pop	r5
    2efe:	4f 90       	pop	r4
    2f00:	3f 90       	pop	r3
    2f02:	2f 90       	pop	r2
    2f04:	08 95       	ret

00002f06 <coap_build>:
    return 0;
}
*/

int coap_build(uint8_t *buf, size_t *buflen, const coap_packet_t *pkt)
{
    2f06:	2f 92       	push	r2
    2f08:	3f 92       	push	r3
    2f0a:	4f 92       	push	r4
    2f0c:	5f 92       	push	r5
    2f0e:	6f 92       	push	r6
    2f10:	7f 92       	push	r7
    2f12:	8f 92       	push	r8
    2f14:	9f 92       	push	r9
    2f16:	af 92       	push	r10
    2f18:	bf 92       	push	r11
    2f1a:	cf 92       	push	r12
    2f1c:	df 92       	push	r13
    2f1e:	ef 92       	push	r14
    2f20:	ff 92       	push	r15
    2f22:	0f 93       	push	r16
    2f24:	1f 93       	push	r17
    2f26:	df 93       	push	r29
    2f28:	cf 93       	push	r28
    2f2a:	00 d0       	rcall	.+0      	; 0x2f2c <coap_build+0x26>
    2f2c:	0f 92       	push	r0
    2f2e:	cd b7       	in	r28, 0x3d	; 61
    2f30:	de b7       	in	r29, 0x3e	; 62
    2f32:	2c 01       	movw	r4, r24
    2f34:	6b 83       	std	Y+3, r22	; 0x03
    2f36:	7c 83       	std	Y+4, r23	; 0x04
    2f38:	3a 01       	movw	r6, r20
    size_t i;
    uint8_t *p;
    uint16_t running_delta = 0;

    // build header
    if (*buflen < (4U + pkt->hdr.tkl)) {
    2f3a:	da 01       	movw	r26, r20
    2f3c:	12 96       	adiw	r26, 0x02	; 2
    2f3e:	8c 91       	ld	r24, X
    2f40:	12 97       	sbiw	r26, 0x02	; 2
    2f42:	90 e0       	ldi	r25, 0x00	; 0
    2f44:	04 96       	adiw	r24, 0x04	; 4
    2f46:	fb 01       	movw	r30, r22
    2f48:	20 81       	ld	r18, Z
    2f4a:	31 81       	ldd	r19, Z+1	; 0x01
    2f4c:	28 17       	cp	r18, r24
    2f4e:	39 07       	cpc	r19, r25
    2f50:	08 f4       	brcc	.+2      	; 0x2f54 <coap_build+0x4e>
    2f52:	27 c1       	rjmp	.+590    	; 0x31a2 <coap_build+0x29c>
	    return COAP_ERR_BUFFER_TOO_SMALL;
	}
    buf[0] = (pkt->hdr.ver & 0x03) << 6;
    2f54:	2c 91       	ld	r18, X
    2f56:	30 e0       	ldi	r19, 0x00	; 0
    2f58:	06 e0       	ldi	r16, 0x06	; 6
    2f5a:	22 0f       	add	r18, r18
    2f5c:	33 1f       	adc	r19, r19
    2f5e:	0a 95       	dec	r16
    2f60:	e1 f7       	brne	.-8      	; 0x2f5a <coap_build+0x54>
    2f62:	d2 01       	movw	r26, r4
    2f64:	2c 93       	st	X, r18
    buf[0] |= (pkt->hdr.t & 0x03) << 4;
    2f66:	fa 01       	movw	r30, r20
    2f68:	81 81       	ldd	r24, Z+1	; 0x01
    2f6a:	90 e0       	ldi	r25, 0x00	; 0
    2f6c:	83 70       	andi	r24, 0x03	; 3
    2f6e:	90 70       	andi	r25, 0x00	; 0
    2f70:	14 e0       	ldi	r17, 0x04	; 4
    2f72:	88 0f       	add	r24, r24
    2f74:	99 1f       	adc	r25, r25
    2f76:	1a 95       	dec	r17
    2f78:	e1 f7       	brne	.-8      	; 0x2f72 <coap_build+0x6c>
    2f7a:	28 2b       	or	r18, r24
    2f7c:	2c 93       	st	X, r18
    buf[0] |= (pkt->hdr.tkl & 0x0F);
    2f7e:	82 81       	ldd	r24, Z+2	; 0x02
    2f80:	8f 70       	andi	r24, 0x0F	; 15
    2f82:	28 2b       	or	r18, r24
    2f84:	2c 93       	st	X, r18
    buf[1] = pkt->hdr.code;
    2f86:	83 81       	ldd	r24, Z+3	; 0x03
    2f88:	11 96       	adiw	r26, 0x01	; 1
    2f8a:	8c 93       	st	X, r24
    2f8c:	11 97       	sbiw	r26, 0x01	; 1
    buf[2] = pkt->hdr.id[0];
    2f8e:	84 81       	ldd	r24, Z+4	; 0x04
    2f90:	12 96       	adiw	r26, 0x02	; 2
    2f92:	8c 93       	st	X, r24
    2f94:	12 97       	sbiw	r26, 0x02	; 2
    buf[3] = pkt->hdr.id[1];
    2f96:	85 81       	ldd	r24, Z+5	; 0x05
    2f98:	13 96       	adiw	r26, 0x03	; 3
    2f9a:	8c 93       	st	X, r24
	
    // inject token
    p = buf + 4;
    2f9c:	82 01       	movw	r16, r4
    2f9e:	0c 5f       	subi	r16, 0xFC	; 252
    2fa0:	1f 4f       	sbci	r17, 0xFF	; 255
    if ((pkt->hdr.tkl > 0) && (pkt->hdr.tkl != pkt->tok.len)) {
    2fa2:	42 81       	ldd	r20, Z+2	; 0x02
    2fa4:	44 23       	and	r20, r20
    2fa6:	99 f0       	breq	.+38     	; 0x2fce <coap_build+0xc8>
    2fa8:	50 e0       	ldi	r21, 0x00	; 0
    2faa:	80 85       	ldd	r24, Z+8	; 0x08
    2fac:	91 85       	ldd	r25, Z+9	; 0x09
    2fae:	48 17       	cp	r20, r24
    2fb0:	59 07       	cpc	r21, r25
    2fb2:	19 f0       	breq	.+6      	; 0x2fba <coap_build+0xb4>
    2fb4:	2a e0       	ldi	r18, 0x0A	; 10
    2fb6:	30 e0       	ldi	r19, 0x00	; 0
    2fb8:	f6 c0       	rjmp	.+492    	; 0x31a6 <coap_build+0x2a0>
	    return COAP_ERR_UNSUPPORTED;
    }
    
	if (pkt->hdr.tkl > 0)
        memcpy(p, pkt->tok.p, pkt->hdr.tkl);
    2fba:	d3 01       	movw	r26, r6
    2fbc:	16 96       	adiw	r26, 0x06	; 6
    2fbe:	6c 91       	ld	r22, X
    2fc0:	16 97       	sbiw	r26, 0x06	; 6
    2fc2:	17 96       	adiw	r26, 0x07	; 7
    2fc4:	7c 91       	ld	r23, X
    2fc6:	c8 01       	movw	r24, r16
    2fc8:	50 e0       	ldi	r21, 0x00	; 0
    2fca:	0e 94 c0 28 	call	0x5180	; 0x5180 <memcpy>

    // // http://tools.ietf.org/html/rfc7252#section-3.1
    // inject options
    p += pkt->hdr.tkl;
    2fce:	f3 01       	movw	r30, r6
    2fd0:	82 81       	ldd	r24, Z+2	; 0x02
    2fd2:	58 01       	movw	r10, r16
    2fd4:	a8 0e       	add	r10, r24
    2fd6:	b1 1c       	adc	r11, r1
    2fd8:	43 01       	movw	r8, r6
    2fda:	22 24       	eor	r2, r2
    2fdc:	33 24       	eor	r3, r3
    2fde:	40 e0       	ldi	r20, 0x00	; 0
    2fe0:	50 e0       	ldi	r21, 0x00	; 0
    2fe2:	8d c0       	rjmp	.+282    	; 0x30fe <coap_build+0x1f8>

    for (i=0;i<pkt->numopts;i++)
    {
        uint32_t optDelta;
        uint8_t len, delta = 0;
    2fe4:	1a 82       	std	Y+2, r1	; 0x02

        if (((size_t)(p-buf)) > *buflen) {
    2fe6:	95 01       	movw	r18, r10
    2fe8:	24 19       	sub	r18, r4
    2fea:	35 09       	sbc	r19, r5
    2fec:	ab 81       	ldd	r26, Y+3	; 0x03
    2fee:	bc 81       	ldd	r27, Y+4	; 0x04
    2ff0:	8d 91       	ld	r24, X+
    2ff2:	9c 91       	ld	r25, X
    2ff4:	82 17       	cp	r24, r18
    2ff6:	93 07       	cpc	r25, r19
    2ff8:	08 f4       	brcc	.+2      	; 0x2ffc <coap_build+0xf6>
    2ffa:	d3 c0       	rjmp	.+422    	; 0x31a2 <coap_build+0x29c>
			 return COAP_ERR_BUFFER_TOO_SMALL;
		}
        optDelta = pkt->opts[i].num - running_delta;
    2ffc:	f4 01       	movw	r30, r8
    2ffe:	83 85       	ldd	r24, Z+11	; 0x0b
    3000:	90 e0       	ldi	r25, 0x00	; 0
    3002:	84 1b       	sub	r24, r20
    3004:	95 0b       	sbc	r25, r21
    3006:	7c 01       	movw	r14, r24
    3008:	00 e0       	ldi	r16, 0x00	; 0
    300a:	10 e0       	ldi	r17, 0x00	; 0
        coap_option_nibble(optDelta, &delta);
    300c:	c8 01       	movw	r24, r16
    300e:	b7 01       	movw	r22, r14
    3010:	ae 01       	movw	r20, r28
    3012:	4e 5f       	subi	r20, 0xFE	; 254
    3014:	5f 4f       	sbci	r21, 0xFF	; 255
    3016:	0e 94 fb 15 	call	0x2bf6	; 0x2bf6 <coap_option_nibble>
        coap_option_nibble((uint32_t)pkt->opts[i].buf.len, &len);
    301a:	d4 01       	movw	r26, r8
    301c:	1e 96       	adiw	r26, 0x0e	; 14
    301e:	6d 91       	ld	r22, X+
    3020:	7c 91       	ld	r23, X
    3022:	1f 97       	sbiw	r26, 0x0f	; 15
    3024:	80 e0       	ldi	r24, 0x00	; 0
    3026:	90 e0       	ldi	r25, 0x00	; 0
    3028:	ae 01       	movw	r20, r28
    302a:	4f 5f       	subi	r20, 0xFF	; 255
    302c:	5f 4f       	sbci	r21, 0xFF	; 255
    302e:	0e 94 fb 15 	call	0x2bf6	; 0x2bf6 <coap_option_nibble>

        *p++ = (0xFF & (delta << 4 | len));
    3032:	8a 81       	ldd	r24, Y+2	; 0x02
    3034:	82 95       	swap	r24
    3036:	80 7f       	andi	r24, 0xF0	; 240
    3038:	99 81       	ldd	r25, Y+1	; 0x01
    303a:	89 2b       	or	r24, r25
    303c:	f5 01       	movw	r30, r10
    303e:	81 93       	st	Z+, r24
    3040:	6f 01       	movw	r12, r30
        if (delta == 13)
    3042:	8a 81       	ldd	r24, Y+2	; 0x02
    3044:	8d 30       	cpi	r24, 0x0D	; 13
    3046:	31 f4       	brne	.+12     	; 0x3054 <coap_build+0x14e>
        {
            *p++ = (optDelta - 13);
    3048:	8e 2d       	mov	r24, r14
    304a:	8d 50       	subi	r24, 0x0D	; 13
    304c:	d5 01       	movw	r26, r10
    304e:	11 96       	adiw	r26, 0x01	; 1
    3050:	8c 93       	st	X, r24
    3052:	1d c0       	rjmp	.+58     	; 0x308e <coap_build+0x188>
        }
        else
        if (delta == 14)
    3054:	8e 30       	cpi	r24, 0x0E	; 14
    3056:	f1 f4       	brne	.+60     	; 0x3094 <coap_build+0x18e>
        {
            *p++ = ((optDelta-269) >> 8);
    3058:	23 ef       	ldi	r18, 0xF3	; 243
    305a:	3e ef       	ldi	r19, 0xFE	; 254
    305c:	4f ef       	ldi	r20, 0xFF	; 255
    305e:	5f ef       	ldi	r21, 0xFF	; 255
    3060:	e2 0e       	add	r14, r18
    3062:	f3 1e       	adc	r15, r19
    3064:	04 1f       	adc	r16, r20
    3066:	15 1f       	adc	r17, r21
    3068:	bb 27       	eor	r27, r27
    306a:	a1 2f       	mov	r26, r17
    306c:	90 2f       	mov	r25, r16
    306e:	8f 2d       	mov	r24, r15
    3070:	2d e0       	ldi	r18, 0x0D	; 13
    3072:	31 e0       	ldi	r19, 0x01	; 1
    3074:	40 e0       	ldi	r20, 0x00	; 0
    3076:	50 e0       	ldi	r21, 0x00	; 0
    3078:	e2 0e       	add	r14, r18
    307a:	f3 1e       	adc	r15, r19
    307c:	04 1f       	adc	r16, r20
    307e:	15 1f       	adc	r17, r21
    3080:	81 93       	st	Z+, r24
            *p++ = (0xFF & (optDelta-269));
    3082:	8e 2d       	mov	r24, r14
    3084:	8d 50       	subi	r24, 0x0D	; 13
    3086:	d6 01       	movw	r26, r12
    3088:	11 96       	adiw	r26, 0x01	; 1
    308a:	8c 93       	st	X, r24
    308c:	6f 01       	movw	r12, r30
    308e:	08 94       	sec
    3090:	c1 1c       	adc	r12, r1
    3092:	d1 1c       	adc	r13, r1
        }
        if (len == 13)
    3094:	89 81       	ldd	r24, Y+1	; 0x01
    3096:	8d 30       	cpi	r24, 0x0D	; 13
    3098:	39 f4       	brne	.+14     	; 0x30a8 <coap_build+0x1a2>
        {
            *p++ = (pkt->opts[i].buf.len - 13);
    309a:	f4 01       	movw	r30, r8
    309c:	86 85       	ldd	r24, Z+14	; 0x0e
    309e:	8d 50       	subi	r24, 0x0D	; 13
    30a0:	d6 01       	movw	r26, r12
    30a2:	8d 93       	st	X+, r24
    30a4:	6d 01       	movw	r12, r26
    30a6:	11 c0       	rjmp	.+34     	; 0x30ca <coap_build+0x1c4>
        }
        else
        if (len == 14)
    30a8:	8e 30       	cpi	r24, 0x0E	; 14
    30aa:	79 f4       	brne	.+30     	; 0x30ca <coap_build+0x1c4>
  	    {
            *p++ = (pkt->opts[i].buf.len >> 8);
    30ac:	f4 01       	movw	r30, r8
    30ae:	87 85       	ldd	r24, Z+15	; 0x0f
    30b0:	f6 01       	movw	r30, r12
    30b2:	81 93       	st	Z+, r24
            *p++ = (0xFF & (pkt->opts[i].buf.len-269));
    30b4:	d4 01       	movw	r26, r8
    30b6:	1e 96       	adiw	r26, 0x0e	; 14
    30b8:	8c 91       	ld	r24, X
    30ba:	8d 50       	subi	r24, 0x0D	; 13
    30bc:	d6 01       	movw	r26, r12
    30be:	11 96       	adiw	r26, 0x01	; 1
    30c0:	8c 93       	st	X, r24
    30c2:	6f 01       	movw	r12, r30
    30c4:	08 94       	sec
    30c6:	c1 1c       	adc	r12, r1
    30c8:	d1 1c       	adc	r13, r1
        }

        memcpy(p, pkt->opts[i].buf.p, pkt->opts[i].buf.len);
    30ca:	f4 01       	movw	r30, r8
    30cc:	64 85       	ldd	r22, Z+12	; 0x0c
    30ce:	75 85       	ldd	r23, Z+13	; 0x0d
    30d0:	46 85       	ldd	r20, Z+14	; 0x0e
    30d2:	57 85       	ldd	r21, Z+15	; 0x0f
    30d4:	c6 01       	movw	r24, r12
    30d6:	0e 94 c0 28 	call	0x5180	; 0x5180 <memcpy>
        p += pkt->opts[i].buf.len;
    30da:	d4 01       	movw	r26, r8
    30dc:	1e 96       	adiw	r26, 0x0e	; 14
    30de:	ad 90       	ld	r10, X+
    30e0:	bc 90       	ld	r11, X
    30e2:	1f 97       	sbiw	r26, 0x0f	; 15
    30e4:	ac 0c       	add	r10, r12
    30e6:	bd 1c       	adc	r11, r13
        running_delta = pkt->opts[i].num;
    30e8:	1b 96       	adiw	r26, 0x0b	; 11
    30ea:	8c 91       	ld	r24, X
    30ec:	48 2f       	mov	r20, r24
    30ee:	50 e0       	ldi	r21, 0x00	; 0

    // // http://tools.ietf.org/html/rfc7252#section-3.1
    // inject options
    p += pkt->hdr.tkl;

    for (i=0;i<pkt->numopts;i++)
    30f0:	08 94       	sec
    30f2:	21 1c       	adc	r2, r1
    30f4:	31 1c       	adc	r3, r1
    30f6:	e5 e0       	ldi	r30, 0x05	; 5
    30f8:	f0 e0       	ldi	r31, 0x00	; 0
    30fa:	8e 0e       	add	r8, r30
    30fc:	9f 1e       	adc	r9, r31
    30fe:	d3 01       	movw	r26, r6
    3100:	1a 96       	adiw	r26, 0x0a	; 10
    3102:	8c 91       	ld	r24, X
    3104:	90 e0       	ldi	r25, 0x00	; 0
    3106:	28 16       	cp	r2, r24
    3108:	39 06       	cpc	r3, r25
    310a:	08 f4       	brcc	.+2      	; 0x310e <coap_build+0x208>
    310c:	6b cf       	rjmp	.-298    	; 0x2fe4 <coap_build+0xde>
        memcpy(p, pkt->opts[i].buf.p, pkt->opts[i].buf.len);
        p += pkt->opts[i].buf.len;
        running_delta = pkt->opts[i].num;
    }

    opts_len = (p - buf) - 4;   // number of bytes used by options
    310e:	85 01       	movw	r16, r10
    3110:	04 19       	sub	r16, r4
    3112:	15 09       	sbc	r17, r5
    3114:	04 50       	subi	r16, 0x04	; 4
    3116:	10 40       	sbci	r17, 0x00	; 0
	
    if (pkt->payload.len > 0)
    3118:	ad e5       	ldi	r26, 0x5D	; 93
    311a:	ea 2e       	mov	r14, r26
    311c:	f1 2c       	mov	r15, r1
    311e:	e6 0c       	add	r14, r6
    3120:	f7 1c       	adc	r15, r7
    3122:	f7 01       	movw	r30, r14
    3124:	20 81       	ld	r18, Z
    3126:	31 81       	ldd	r19, Z+1	; 0x01
    3128:	21 15       	cp	r18, r1
    312a:	31 05       	cpc	r19, r1
    312c:	89 f1       	breq	.+98     	; 0x3190 <coap_build+0x28a>
    {
        if (*buflen < 4 + 1 + pkt->payload.len + opts_len) {
    312e:	2b 5f       	subi	r18, 0xFB	; 251
    3130:	3f 4f       	sbci	r19, 0xFF	; 255
    3132:	20 0f       	add	r18, r16
    3134:	31 1f       	adc	r19, r17
    3136:	ab 81       	ldd	r26, Y+3	; 0x03
    3138:	bc 81       	ldd	r27, Y+4	; 0x04
    313a:	8d 91       	ld	r24, X+
    313c:	9c 91       	ld	r25, X
    313e:	82 17       	cp	r24, r18
    3140:	93 07       	cpc	r25, r19
    3142:	20 f4       	brcc	.+8      	; 0x314c <coap_build+0x246>
            ON(LED7);
    3144:	88 e0       	ldi	r24, 0x08	; 8
    3146:	0e 94 a4 07 	call	0xf48	; 0xf48 <hw_setOn>
    314a:	2b c0       	rjmp	.+86     	; 0x31a2 <coap_build+0x29c>
			return COAP_ERR_BUFFER_TOO_SMALL;
		}
        buf[4 + opts_len] = 0xFF;  // payload marker
    314c:	f2 01       	movw	r30, r4
    314e:	e0 0f       	add	r30, r16
    3150:	f1 1f       	adc	r31, r17
    3152:	8f ef       	ldi	r24, 0xFF	; 255
    3154:	84 83       	std	Z+4, r24	; 0x04
        memcpy(buf+5 + opts_len, pkt->payload.p, pkt->payload.len);
    3156:	0b 5f       	subi	r16, 0xFB	; 251
    3158:	1f 4f       	sbci	r17, 0xFF	; 255
    315a:	92 01       	movw	r18, r4
    315c:	20 0f       	add	r18, r16
    315e:	31 1f       	adc	r19, r17
    3160:	05 50       	subi	r16, 0x05	; 5
    3162:	10 40       	sbci	r17, 0x00	; 0
    3164:	f3 01       	movw	r30, r6
    3166:	e5 5a       	subi	r30, 0xA5	; 165
    3168:	ff 4f       	sbci	r31, 0xFF	; 255
    316a:	60 81       	ld	r22, Z
    316c:	71 81       	ldd	r23, Z+1	; 0x01
    316e:	f7 01       	movw	r30, r14
    3170:	40 81       	ld	r20, Z
    3172:	51 81       	ldd	r21, Z+1	; 0x01
    3174:	c9 01       	movw	r24, r18
    3176:	0e 94 c0 28 	call	0x5180	; 0x5180 <memcpy>
        *buflen = opts_len + 5 + pkt->payload.len;
    317a:	d7 01       	movw	r26, r14
    317c:	8d 91       	ld	r24, X+
    317e:	9c 91       	ld	r25, X
    3180:	05 96       	adiw	r24, 0x05	; 5
    3182:	80 0f       	add	r24, r16
    3184:	91 1f       	adc	r25, r17
    3186:	eb 81       	ldd	r30, Y+3	; 0x03
    3188:	fc 81       	ldd	r31, Y+4	; 0x04
    318a:	80 83       	st	Z, r24
    318c:	91 83       	std	Z+1, r25	; 0x01
    318e:	06 c0       	rjmp	.+12     	; 0x319c <coap_build+0x296>
    }
    else
        *buflen = opts_len + 4;
    3190:	0c 5f       	subi	r16, 0xFC	; 252
    3192:	1f 4f       	sbci	r17, 0xFF	; 255
    3194:	ab 81       	ldd	r26, Y+3	; 0x03
    3196:	bc 81       	ldd	r27, Y+4	; 0x04
    3198:	0d 93       	st	X+, r16
    319a:	1c 93       	st	X, r17
    319c:	20 e0       	ldi	r18, 0x00	; 0
    319e:	30 e0       	ldi	r19, 0x00	; 0
    31a0:	02 c0       	rjmp	.+4      	; 0x31a6 <coap_build+0x2a0>
    31a2:	29 e0       	ldi	r18, 0x09	; 9
    31a4:	30 e0       	ldi	r19, 0x00	; 0
    return 0;
}
    31a6:	c9 01       	movw	r24, r18
    31a8:	24 96       	adiw	r28, 0x04	; 4
    31aa:	cd bf       	out	0x3d, r28	; 61
    31ac:	de bf       	out	0x3e, r29	; 62
    31ae:	cf 91       	pop	r28
    31b0:	df 91       	pop	r29
    31b2:	1f 91       	pop	r17
    31b4:	0f 91       	pop	r16
    31b6:	ff 90       	pop	r15
    31b8:	ef 90       	pop	r14
    31ba:	df 90       	pop	r13
    31bc:	cf 90       	pop	r12
    31be:	bf 90       	pop	r11
    31c0:	af 90       	pop	r10
    31c2:	9f 90       	pop	r9
    31c4:	8f 90       	pop	r8
    31c6:	7f 90       	pop	r7
    31c8:	6f 90       	pop	r6
    31ca:	5f 90       	pop	r5
    31cc:	4f 90       	pop	r4
    31ce:	3f 90       	pop	r3
    31d0:	2f 90       	pop	r2
    31d2:	08 95       	ret

000031d4 <handle_get_parkingData>:
static int handle_get_available(coap_rw_buffer_t *scratch, const coap_packet_t *inpkt, coap_packet_t *outpkt, uint8_t id_hi, uint8_t id_lo, void * info) {
	return coap_make_response(scratch, outpkt, (const uint8_t *)(ctrl_isSpaceAvailable() ? "1" : "0"), 1, id_hi, id_lo, &inpkt->tok, COAP_RSPCODE_CONTENT, COAP_CONTENTTYPE_TEXT_PLAIN);
}

static const coap_endpoint_path_t path_parkingData = {1, {"parking_data"}};
static int handle_get_parkingData(coap_rw_buffer_t *scratch, const coap_packet_t *inpkt, coap_packet_t *outpkt, uint8_t id_hi, uint8_t id_lo, void * info) {
    31d4:	8f 92       	push	r8
    31d6:	9f 92       	push	r9
    31d8:	af 92       	push	r10
    31da:	bf 92       	push	r11
    31dc:	cf 92       	push	r12
    31de:	df 92       	push	r13
    31e0:	ef 92       	push	r14
    31e2:	ff 92       	push	r15
    31e4:	0f 93       	push	r16
    31e6:	1f 93       	push	r17
    31e8:	df 93       	push	r29
    31ea:	cf 93       	push	r28
    31ec:	cd b7       	in	r28, 0x3d	; 61
    31ee:	de b7       	in	r29, 0x3e	; 62
    31f0:	c0 5d       	subi	r28, 0xD0	; 208
    31f2:	d7 40       	sbci	r29, 0x07	; 7
    31f4:	cd bf       	out	0x3d, r28	; 61
    31f6:	de bf       	out	0x3e, r29	; 62
    31f8:	4c 01       	movw	r8, r24
    31fa:	6b 01       	movw	r12, r22
    31fc:	5a 01       	movw	r10, r20
    31fe:	f2 2e       	mov	r15, r18
    3200:	e0 2e       	mov	r14, r16
	unsigned char buffer[2000];
	unsigned short int len;
	len = accounting_exportParkingHistoryJSON(&buffer[0], sizeof(buffer));
    3202:	8e 01       	movw	r16, r28
    3204:	0f 5f       	subi	r16, 0xFF	; 255
    3206:	1f 4f       	sbci	r17, 0xFF	; 255
    3208:	c8 01       	movw	r24, r16
    320a:	60 ed       	ldi	r22, 0xD0	; 208
    320c:	77 e0       	ldi	r23, 0x07	; 7
    320e:	0e 94 5e 26 	call	0x4cbc	; 0x4cbc <accounting_exportParkingHistoryJSON>
    3212:	9c 01       	movw	r18, r24
	//if (len) {
		return coap_make_response(scratch, outpkt, (const uint8_t *)&buffer[0], len, id_hi, id_lo, &inpkt->tok, COAP_RSPCODE_CONTENT, COAP_CONTENTTYPE_APPLICATION_JSON);
    3214:	86 e0       	ldi	r24, 0x06	; 6
    3216:	90 e0       	ldi	r25, 0x00	; 0
    3218:	c8 0e       	add	r12, r24
    321a:	d9 1e       	adc	r13, r25
    321c:	c4 01       	movw	r24, r8
    321e:	b5 01       	movw	r22, r10
    3220:	a8 01       	movw	r20, r16
    3222:	0f 2d       	mov	r16, r15
    3224:	f5 e4       	ldi	r31, 0x45	; 69
    3226:	af 2e       	mov	r10, r31
    3228:	e2 e3       	ldi	r30, 0x32	; 50
    322a:	8e 2e       	mov	r8, r30
    322c:	0e 94 0b 16 	call	0x2c16	; 0x2c16 <coap_make_response>
	//} else {
	//	// Sollte nie passieren, der Puffer ist groß genug für > 20 Log-Einträge (wir behalten maximal 16 im Speicher)
	//}
}
    3230:	c0 53       	subi	r28, 0x30	; 48
    3232:	d8 4f       	sbci	r29, 0xF8	; 248
    3234:	cd bf       	out	0x3d, r28	; 61
    3236:	de bf       	out	0x3e, r29	; 62
    3238:	cf 91       	pop	r28
    323a:	df 91       	pop	r29
    323c:	1f 91       	pop	r17
    323e:	0f 91       	pop	r16
    3240:	ff 90       	pop	r15
    3242:	ef 90       	pop	r14
    3244:	df 90       	pop	r13
    3246:	cf 90       	pop	r12
    3248:	bf 90       	pop	r11
    324a:	af 90       	pop	r10
    324c:	9f 90       	pop	r9
    324e:	8f 90       	pop	r8
    3250:	08 95       	ret

00003252 <handle_get_light>:
static int handle_get_well_known_core(coap_rw_buffer_t *scratch, const coap_packet_t *inpkt, coap_packet_t *outpkt, uint8_t id_hi, uint8_t id_lo, void * info) {
	return coap_make_response(scratch, outpkt, (const uint8_t *)rsp, strlen(rsp), id_hi, id_lo, &inpkt->tok, COAP_RSPCODE_CONTENT, COAP_CONTENTTYPE_APPLICATION_LINKFORMAT);
}

static const coap_endpoint_path_t path_light = {1, {"light"}};
static int handle_get_light(coap_rw_buffer_t *scratch, const coap_packet_t *inpkt, coap_packet_t *outpkt, uint8_t id_hi, uint8_t id_lo, void * info) {
    3252:	8f 92       	push	r8
    3254:	af 92       	push	r10
    3256:	cf 92       	push	r12
    3258:	df 92       	push	r13
    325a:	ef 92       	push	r14
    325c:	0f 93       	push	r16
    325e:	fb 01       	movw	r30, r22
    3260:	a2 2f       	mov	r26, r18
    3262:	e0 2e       	mov	r14, r16
	return coap_make_response(scratch, outpkt, (const uint8_t *)&light, 1, id_hi, id_lo, &inpkt->tok, COAP_RSPCODE_CONTENT, COAP_CONTENTTYPE_TEXT_PLAIN);
    3264:	36 96       	adiw	r30, 0x06	; 6
    3266:	ba 01       	movw	r22, r20
    3268:	4f e9       	ldi	r20, 0x9F	; 159
    326a:	50 e2       	ldi	r21, 0x20	; 32
    326c:	21 e0       	ldi	r18, 0x01	; 1
    326e:	30 e0       	ldi	r19, 0x00	; 0
    3270:	0a 2f       	mov	r16, r26
    3272:	6f 01       	movw	r12, r30
    3274:	a5 e4       	ldi	r26, 0x45	; 69
    3276:	aa 2e       	mov	r10, r26
    3278:	88 24       	eor	r8, r8
    327a:	0e 94 0b 16 	call	0x2c16	; 0x2c16 <coap_make_response>
}
    327e:	0f 91       	pop	r16
    3280:	ef 90       	pop	r14
    3282:	df 90       	pop	r13
    3284:	cf 90       	pop	r12
    3286:	af 90       	pop	r10
    3288:	8f 90       	pop	r8
    328a:	08 95       	ret

0000328c <handle_get_available>:
	len = snprintf(&buffer[0], sizeof(buffer), "%lu", accounting_getParkingID());
	return coap_make_response(scratch, outpkt, (const uint8_t *)&buffer[0], len, id_hi, id_lo, &inpkt->tok, COAP_RSPCODE_CONTENT, COAP_CONTENTTYPE_TEXT_PLAIN);
}

static const coap_endpoint_path_t path_available = {1, {"available"}};
static int handle_get_available(coap_rw_buffer_t *scratch, const coap_packet_t *inpkt, coap_packet_t *outpkt, uint8_t id_hi, uint8_t id_lo, void * info) {
    328c:	8f 92       	push	r8
    328e:	af 92       	push	r10
    3290:	cf 92       	push	r12
    3292:	df 92       	push	r13
    3294:	ef 92       	push	r14
    3296:	ff 92       	push	r15
    3298:	0f 93       	push	r16
    329a:	cf 93       	push	r28
    329c:	df 93       	push	r29
    329e:	7c 01       	movw	r14, r24
    32a0:	eb 01       	movw	r28, r22
    32a2:	6a 01       	movw	r12, r20
    32a4:	a2 2e       	mov	r10, r18
    32a6:	80 2e       	mov	r8, r16
	return coap_make_response(scratch, outpkt, (const uint8_t *)(ctrl_isSpaceAvailable() ? "1" : "0"), 1, id_hi, id_lo, &inpkt->tok, COAP_RSPCODE_CONTENT, COAP_CONTENTTYPE_TEXT_PLAIN);
    32a8:	0e 94 05 23 	call	0x460a	; 0x460a <ctrl_isSpaceAvailable>
    32ac:	88 23       	and	r24, r24
    32ae:	19 f4       	brne	.+6      	; 0x32b6 <handle_get_available+0x2a>
    32b0:	47 e0       	ldi	r20, 0x07	; 7
    32b2:	50 e2       	ldi	r21, 0x20	; 32
    32b4:	02 c0       	rjmp	.+4      	; 0x32ba <handle_get_available+0x2e>
    32b6:	49 e0       	ldi	r20, 0x09	; 9
    32b8:	50 e2       	ldi	r21, 0x20	; 32
    32ba:	26 96       	adiw	r28, 0x06	; 6
    32bc:	c7 01       	movw	r24, r14
    32be:	b6 01       	movw	r22, r12
    32c0:	21 e0       	ldi	r18, 0x01	; 1
    32c2:	30 e0       	ldi	r19, 0x00	; 0
    32c4:	0a 2d       	mov	r16, r10
    32c6:	e8 2c       	mov	r14, r8
    32c8:	6e 01       	movw	r12, r28
    32ca:	b5 e4       	ldi	r27, 0x45	; 69
    32cc:	ab 2e       	mov	r10, r27
    32ce:	88 24       	eor	r8, r8
    32d0:	0e 94 0b 16 	call	0x2c16	; 0x2c16 <coap_make_response>
}
    32d4:	df 91       	pop	r29
    32d6:	cf 91       	pop	r28
    32d8:	0f 91       	pop	r16
    32da:	ff 90       	pop	r15
    32dc:	ef 90       	pop	r14
    32de:	df 90       	pop	r13
    32e0:	cf 90       	pop	r12
    32e2:	af 90       	pop	r10
    32e4:	8f 90       	pop	r8
    32e6:	08 95       	ret

000032e8 <handle_get_parkingID>:
	}
	return coap_make_response(scratch, outpkt, NULL, 0, id_hi, id_lo, &inpkt->tok, COAP_RSPCODE_BAD_REQUEST, COAP_CONTENTTYPE_TEXT_PLAIN);
}

static const coap_endpoint_path_t path_parkingID = {1, {"parkingID"}};
static int handle_get_parkingID(coap_rw_buffer_t *scratch, const coap_packet_t *inpkt, coap_packet_t *outpkt, uint8_t id_hi, uint8_t id_lo, void * info) {
    32e8:	8f 92       	push	r8
    32ea:	9f 92       	push	r9
    32ec:	af 92       	push	r10
    32ee:	bf 92       	push	r11
    32f0:	cf 92       	push	r12
    32f2:	df 92       	push	r13
    32f4:	ef 92       	push	r14
    32f6:	ff 92       	push	r15
    32f8:	0f 93       	push	r16
    32fa:	1f 93       	push	r17
    32fc:	df 93       	push	r29
    32fe:	cf 93       	push	r28
    3300:	cd b7       	in	r28, 0x3d	; 61
    3302:	de b7       	in	r29, 0x3e	; 62
    3304:	2b 97       	sbiw	r28, 0x0b	; 11
    3306:	cd bf       	out	0x3d, r28	; 61
    3308:	de bf       	out	0x3e, r29	; 62
    330a:	4c 01       	movw	r8, r24
    330c:	6b 01       	movw	r12, r22
    330e:	5a 01       	movw	r10, r20
    3310:	f2 2e       	mov	r15, r18
    3312:	e0 2e       	mov	r14, r16
	char buffer[11];
	unsigned char len;
	len = snprintf(&buffer[0], sizeof(buffer), "%lu", accounting_getParkingID());
    3314:	0e 94 ff 25 	call	0x4bfe	; 0x4bfe <accounting_getParkingID>
    3318:	2d b7       	in	r18, 0x3d	; 61
    331a:	3e b7       	in	r19, 0x3e	; 62
    331c:	2a 50       	subi	r18, 0x0A	; 10
    331e:	30 40       	sbci	r19, 0x00	; 0
    3320:	2d bf       	out	0x3d, r18	; 61
    3322:	3e bf       	out	0x3e, r19	; 62
    3324:	ed b7       	in	r30, 0x3d	; 61
    3326:	fe b7       	in	r31, 0x3e	; 62
    3328:	31 96       	adiw	r30, 0x01	; 1
    332a:	8e 01       	movw	r16, r28
    332c:	0f 5f       	subi	r16, 0xFF	; 255
    332e:	1f 4f       	sbci	r17, 0xFF	; 255
    3330:	ad b7       	in	r26, 0x3d	; 61
    3332:	be b7       	in	r27, 0x3e	; 62
    3334:	11 96       	adiw	r26, 0x01	; 1
    3336:	0d 93       	st	X+, r16
    3338:	1c 93       	st	X, r17
    333a:	12 97       	sbiw	r26, 0x02	; 2
    333c:	2b e0       	ldi	r18, 0x0B	; 11
    333e:	30 e0       	ldi	r19, 0x00	; 0
    3340:	22 83       	std	Z+2, r18	; 0x02
    3342:	33 83       	std	Z+3, r19	; 0x03
    3344:	2b e0       	ldi	r18, 0x0B	; 11
    3346:	30 e2       	ldi	r19, 0x20	; 32
    3348:	24 83       	std	Z+4, r18	; 0x04
    334a:	35 83       	std	Z+5, r19	; 0x05
    334c:	66 83       	std	Z+6, r22	; 0x06
    334e:	77 83       	std	Z+7, r23	; 0x07
    3350:	80 87       	std	Z+8, r24	; 0x08
    3352:	91 87       	std	Z+9, r25	; 0x09
    3354:	0e 94 d9 28 	call	0x51b2	; 0x51b2 <snprintf>
    3358:	28 2f       	mov	r18, r24
	return coap_make_response(scratch, outpkt, (const uint8_t *)&buffer[0], len, id_hi, id_lo, &inpkt->tok, COAP_RSPCODE_CONTENT, COAP_CONTENTTYPE_TEXT_PLAIN);
    335a:	8d b7       	in	r24, 0x3d	; 61
    335c:	9e b7       	in	r25, 0x3e	; 62
    335e:	0a 96       	adiw	r24, 0x0a	; 10
    3360:	8d bf       	out	0x3d, r24	; 61
    3362:	9e bf       	out	0x3e, r25	; 62
    3364:	a6 e0       	ldi	r26, 0x06	; 6
    3366:	b0 e0       	ldi	r27, 0x00	; 0
    3368:	ca 0e       	add	r12, r26
    336a:	db 1e       	adc	r13, r27
    336c:	c4 01       	movw	r24, r8
    336e:	b5 01       	movw	r22, r10
    3370:	a8 01       	movw	r20, r16
    3372:	30 e0       	ldi	r19, 0x00	; 0
    3374:	0f 2d       	mov	r16, r15
    3376:	15 e4       	ldi	r17, 0x45	; 69
    3378:	a1 2e       	mov	r10, r17
    337a:	88 24       	eor	r8, r8
    337c:	0e 94 0b 16 	call	0x2c16	; 0x2c16 <coap_make_response>
}
    3380:	2b 96       	adiw	r28, 0x0b	; 11
    3382:	cd bf       	out	0x3d, r28	; 61
    3384:	de bf       	out	0x3e, r29	; 62
    3386:	cf 91       	pop	r28
    3388:	df 91       	pop	r29
    338a:	1f 91       	pop	r17
    338c:	0f 91       	pop	r16
    338e:	ff 90       	pop	r15
    3390:	ef 90       	pop	r14
    3392:	df 90       	pop	r13
    3394:	cf 90       	pop	r12
    3396:	bf 90       	pop	r11
    3398:	af 90       	pop	r10
    339a:	9f 90       	pop	r9
    339c:	8f 90       	pop	r8
    339e:	08 95       	ret

000033a0 <handle_get_sequence>:
static int handle_get_cardetect(coap_rw_buffer_t *scratch, const coap_packet_t *inpkt, coap_packet_t *outpkt, uint8_t id_hi, uint8_t id_lo, void * info) {
	return coap_make_response(scratch, outpkt, (const uint8_t *)(ctrl_isCarParked() ? "1" : "0"), 1, id_hi, id_lo, &inpkt->tok, COAP_RSPCODE_CONTENT, COAP_CONTENTTYPE_TEXT_PLAIN);
}

static const coap_endpoint_path_t path_sequence = {1, {"sequence"}};
static int handle_get_sequence(coap_rw_buffer_t *scratch, const coap_packet_t *inpkt, coap_packet_t *outpkt, uint8_t id_hi, uint8_t id_lo, void * info) {
    33a0:	8f 92       	push	r8
    33a2:	9f 92       	push	r9
    33a4:	af 92       	push	r10
    33a6:	bf 92       	push	r11
    33a8:	cf 92       	push	r12
    33aa:	df 92       	push	r13
    33ac:	ef 92       	push	r14
    33ae:	ff 92       	push	r15
    33b0:	0f 93       	push	r16
    33b2:	1f 93       	push	r17
    33b4:	df 93       	push	r29
    33b6:	cf 93       	push	r28
    33b8:	cd b7       	in	r28, 0x3d	; 61
    33ba:	de b7       	in	r29, 0x3e	; 62
    33bc:	2d 97       	sbiw	r28, 0x0d	; 13
    33be:	cd bf       	out	0x3d, r28	; 61
    33c0:	de bf       	out	0x3e, r29	; 62
    33c2:	4c 01       	movw	r8, r24
    33c4:	6b 01       	movw	r12, r22
    33c6:	5a 01       	movw	r10, r20
    33c8:	f2 2e       	mov	r15, r18
    33ca:	e0 2e       	mov	r14, r16
	char buffer[13];
	unsigned char len;
	len = snprintf(&buffer[0], sizeof(buffer), "%.2x%.2x%.2x%.2x%.2x%.2x", settings.maxKnownSequence[5], settings.maxKnownSequence[4], settings.maxKnownSequence[3], settings.maxKnownSequence[2], settings.maxKnownSequence[1], settings.maxKnownSequence[0]);
    33cc:	8d b7       	in	r24, 0x3d	; 61
    33ce:	9e b7       	in	r25, 0x3e	; 62
    33d0:	42 97       	sbiw	r24, 0x12	; 18
    33d2:	8d bf       	out	0x3d, r24	; 61
    33d4:	9e bf       	out	0x3e, r25	; 62
    33d6:	ed b7       	in	r30, 0x3d	; 61
    33d8:	fe b7       	in	r31, 0x3e	; 62
    33da:	31 96       	adiw	r30, 0x01	; 1
    33dc:	8e 01       	movw	r16, r28
    33de:	0f 5f       	subi	r16, 0xFF	; 255
    33e0:	1f 4f       	sbci	r17, 0xFF	; 255
    33e2:	ad b7       	in	r26, 0x3d	; 61
    33e4:	be b7       	in	r27, 0x3e	; 62
    33e6:	11 96       	adiw	r26, 0x01	; 1
    33e8:	0d 93       	st	X+, r16
    33ea:	1c 93       	st	X, r17
    33ec:	12 97       	sbiw	r26, 0x02	; 2
    33ee:	8d e0       	ldi	r24, 0x0D	; 13
    33f0:	90 e0       	ldi	r25, 0x00	; 0
    33f2:	82 83       	std	Z+2, r24	; 0x02
    33f4:	93 83       	std	Z+3, r25	; 0x03
    33f6:	8f e0       	ldi	r24, 0x0F	; 15
    33f8:	90 e2       	ldi	r25, 0x20	; 32
    33fa:	84 83       	std	Z+4, r24	; 0x04
    33fc:	95 83       	std	Z+5, r25	; 0x05
    33fe:	80 91 31 2a 	lds	r24, 0x2A31
    3402:	86 83       	std	Z+6, r24	; 0x06
    3404:	17 82       	std	Z+7, r1	; 0x07
    3406:	80 91 30 2a 	lds	r24, 0x2A30
    340a:	80 87       	std	Z+8, r24	; 0x08
    340c:	11 86       	std	Z+9, r1	; 0x09
    340e:	80 91 2f 2a 	lds	r24, 0x2A2F
    3412:	82 87       	std	Z+10, r24	; 0x0a
    3414:	13 86       	std	Z+11, r1	; 0x0b
    3416:	80 91 2e 2a 	lds	r24, 0x2A2E
    341a:	84 87       	std	Z+12, r24	; 0x0c
    341c:	15 86       	std	Z+13, r1	; 0x0d
    341e:	80 91 2d 2a 	lds	r24, 0x2A2D
    3422:	86 87       	std	Z+14, r24	; 0x0e
    3424:	17 86       	std	Z+15, r1	; 0x0f
    3426:	80 91 2c 2a 	lds	r24, 0x2A2C
    342a:	80 8b       	std	Z+16, r24	; 0x10
    342c:	11 8a       	std	Z+17, r1	; 0x11
    342e:	0e 94 d9 28 	call	0x51b2	; 0x51b2 <snprintf>
    3432:	28 2f       	mov	r18, r24
	return coap_make_response(scratch, outpkt, (const uint8_t *)&buffer[0], len, id_hi, id_lo, &inpkt->tok, COAP_RSPCODE_CONTENT, COAP_CONTENTTYPE_TEXT_PLAIN);
    3434:	8d b7       	in	r24, 0x3d	; 61
    3436:	9e b7       	in	r25, 0x3e	; 62
    3438:	42 96       	adiw	r24, 0x12	; 18
    343a:	8d bf       	out	0x3d, r24	; 61
    343c:	9e bf       	out	0x3e, r25	; 62
    343e:	a6 e0       	ldi	r26, 0x06	; 6
    3440:	b0 e0       	ldi	r27, 0x00	; 0
    3442:	ca 0e       	add	r12, r26
    3444:	db 1e       	adc	r13, r27
    3446:	c4 01       	movw	r24, r8
    3448:	b5 01       	movw	r22, r10
    344a:	a8 01       	movw	r20, r16
    344c:	30 e0       	ldi	r19, 0x00	; 0
    344e:	0f 2d       	mov	r16, r15
    3450:	e5 e4       	ldi	r30, 0x45	; 69
    3452:	ae 2e       	mov	r10, r30
    3454:	88 24       	eor	r8, r8
    3456:	0e 94 0b 16 	call	0x2c16	; 0x2c16 <coap_make_response>
}
    345a:	2d 96       	adiw	r28, 0x0d	; 13
    345c:	cd bf       	out	0x3d, r28	; 61
    345e:	de bf       	out	0x3e, r29	; 62
    3460:	cf 91       	pop	r28
    3462:	df 91       	pop	r29
    3464:	1f 91       	pop	r17
    3466:	0f 91       	pop	r16
    3468:	ff 90       	pop	r15
    346a:	ef 90       	pop	r14
    346c:	df 90       	pop	r13
    346e:	cf 90       	pop	r12
    3470:	bf 90       	pop	r11
    3472:	af 90       	pop	r10
    3474:	9f 90       	pop	r9
    3476:	8f 90       	pop	r8
    3478:	08 95       	ret

0000347a <handle_put_unlock_barrier>:
	}
	return coap_make_response(scratch, outpkt, NULL, 0, id_hi, id_lo, &inpkt->tok, COAP_RSPCODE_BAD_REQUEST, COAP_CONTENTTYPE_TEXT_PLAIN);
}

static const coap_endpoint_path_t path_unlock_barrier = {1, {"unlock"}};
static int handle_put_unlock_barrier(coap_rw_buffer_t *scratch, const coap_packet_t *inpkt, coap_packet_t *outpkt, uint8_t id_hi, uint8_t id_lo, void * info) {
    347a:	8f 92       	push	r8
    347c:	af 92       	push	r10
    347e:	bf 92       	push	r11
    3480:	cf 92       	push	r12
    3482:	df 92       	push	r13
    3484:	ef 92       	push	r14
    3486:	ff 92       	push	r15
    3488:	0f 93       	push	r16
    348a:	1f 93       	push	r17
    348c:	cf 93       	push	r28
    348e:	df 93       	push	r29
    3490:	7c 01       	movw	r14, r24
    3492:	eb 01       	movw	r28, r22
    3494:	5a 01       	movw	r10, r20
    3496:	82 2e       	mov	r8, r18
    3498:	10 2f       	mov	r17, r16
	if (inpkt->payload.len > 0) {
    349a:	0d e5       	ldi	r16, 0x5D	; 93
    349c:	c0 2e       	mov	r12, r16
    349e:	d1 2c       	mov	r13, r1
    34a0:	c6 0e       	add	r12, r22
    34a2:	d7 1e       	adc	r13, r23
    34a4:	f6 01       	movw	r30, r12
    34a6:	80 81       	ld	r24, Z
    34a8:	91 81       	ldd	r25, Z+1	; 0x01
    34aa:	89 2b       	or	r24, r25
    34ac:	59 f1       	breq	.+86     	; 0x3504 <handle_put_unlock_barrier+0x8a>
		if (ctrl_isSpaceAvailable()) {
    34ae:	0e 94 05 23 	call	0x460a	; 0x460a <ctrl_isSpaceAvailable>
    34b2:	88 23       	and	r24, r24
    34b4:	d1 f0       	breq	.+52     	; 0x34ea <handle_put_unlock_barrier+0x70>
			unsigned long int ID = atoi_long(&inpkt->payload.p[0], inpkt->payload.len);
    34b6:	fe 01       	movw	r30, r28
    34b8:	e5 5a       	subi	r30, 0xA5	; 165
    34ba:	ff 4f       	sbci	r31, 0xFF	; 255
    34bc:	80 81       	ld	r24, Z
    34be:	91 81       	ldd	r25, Z+1	; 0x01
    34c0:	f6 01       	movw	r30, r12
    34c2:	60 81       	ld	r22, Z
    34c4:	0e 94 9c 02 	call	0x538	; 0x538 <atoi_long>
			if (ctrl_unlockBarrierFor(ID)) {
    34c8:	0e 94 1b 23 	call	0x4636	; 0x4636 <ctrl_unlockBarrierFor>
    34cc:	88 23       	and	r24, r24
    34ce:	69 f0       	breq	.+26     	; 0x34ea <handle_put_unlock_barrier+0x70>
				return coap_make_response(scratch, outpkt, (const uint8_t *)"1", 1, id_hi, id_lo, &inpkt->tok, COAP_RSPCODE_CHANGED, COAP_CONTENTTYPE_TEXT_PLAIN);
    34d0:	26 96       	adiw	r28, 0x06	; 6
    34d2:	c7 01       	movw	r24, r14
    34d4:	b5 01       	movw	r22, r10
    34d6:	49 e0       	ldi	r20, 0x09	; 9
    34d8:	50 e2       	ldi	r21, 0x20	; 32
    34da:	21 e0       	ldi	r18, 0x01	; 1
    34dc:	30 e0       	ldi	r19, 0x00	; 0
    34de:	08 2d       	mov	r16, r8
    34e0:	e1 2e       	mov	r14, r17
    34e2:	6e 01       	movw	r12, r28
    34e4:	b4 e4       	ldi	r27, 0x44	; 68
    34e6:	ab 2e       	mov	r10, r27
    34e8:	19 c0       	rjmp	.+50     	; 0x351c <handle_put_unlock_barrier+0xa2>
			}
		}
		// Antwort erzeugen:
		return coap_make_response(scratch, outpkt, (const uint8_t *)"0", 1, id_hi, id_lo, &inpkt->tok, COAP_RSPCODE_CONTENT, COAP_CONTENTTYPE_TEXT_PLAIN);
    34ea:	26 96       	adiw	r28, 0x06	; 6
    34ec:	c7 01       	movw	r24, r14
    34ee:	b5 01       	movw	r22, r10
    34f0:	47 e0       	ldi	r20, 0x07	; 7
    34f2:	50 e2       	ldi	r21, 0x20	; 32
    34f4:	21 e0       	ldi	r18, 0x01	; 1
    34f6:	30 e0       	ldi	r19, 0x00	; 0
    34f8:	08 2d       	mov	r16, r8
    34fa:	e1 2e       	mov	r14, r17
    34fc:	6e 01       	movw	r12, r28
    34fe:	a5 e4       	ldi	r26, 0x45	; 69
    3500:	aa 2e       	mov	r10, r26
    3502:	0c c0       	rjmp	.+24     	; 0x351c <handle_put_unlock_barrier+0xa2>
	}
	return coap_make_response(scratch, outpkt, NULL, 0, id_hi, id_lo, &inpkt->tok, COAP_RSPCODE_BAD_REQUEST, COAP_CONTENTTYPE_TEXT_PLAIN);
    3504:	26 96       	adiw	r28, 0x06	; 6
    3506:	c7 01       	movw	r24, r14
    3508:	ba 01       	movw	r22, r20
    350a:	40 e0       	ldi	r20, 0x00	; 0
    350c:	50 e0       	ldi	r21, 0x00	; 0
    350e:	20 e0       	ldi	r18, 0x00	; 0
    3510:	30 e0       	ldi	r19, 0x00	; 0
    3512:	08 2d       	mov	r16, r8
    3514:	e1 2e       	mov	r14, r17
    3516:	6e 01       	movw	r12, r28
    3518:	f0 e8       	ldi	r31, 0x80	; 128
    351a:	af 2e       	mov	r10, r31
    351c:	88 24       	eor	r8, r8
    351e:	0e 94 0b 16 	call	0x2c16	; 0x2c16 <coap_make_response>
}
    3522:	df 91       	pop	r29
    3524:	cf 91       	pop	r28
    3526:	1f 91       	pop	r17
    3528:	0f 91       	pop	r16
    352a:	ff 90       	pop	r15
    352c:	ef 90       	pop	r14
    352e:	df 90       	pop	r13
    3530:	cf 90       	pop	r12
    3532:	bf 90       	pop	r11
    3534:	af 90       	pop	r10
    3536:	8f 90       	pop	r8
    3538:	08 95       	ret

0000353a <handle_put_clock>:
	unsigned char len;
	len = snprintf(&buffer[0], sizeof(buffer), "%lu", rtc_getUnixtime());
	return coap_make_response(scratch, outpkt, (const uint8_t *)&buffer[0], len, id_hi, id_lo, &inpkt->tok, COAP_RSPCODE_CONTENT, COAP_CONTENTTYPE_TEXT_PLAIN);
}

static int handle_put_clock(coap_rw_buffer_t *scratch, const coap_packet_t *inpkt, coap_packet_t *outpkt, uint8_t id_hi, uint8_t id_lo, void * info) {
    353a:	8f 92       	push	r8
    353c:	9f 92       	push	r9
    353e:	af 92       	push	r10
    3540:	bf 92       	push	r11
    3542:	cf 92       	push	r12
    3544:	df 92       	push	r13
    3546:	ef 92       	push	r14
    3548:	ff 92       	push	r15
    354a:	0f 93       	push	r16
    354c:	1f 93       	push	r17
    354e:	df 93       	push	r29
    3550:	cf 93       	push	r28
    3552:	cd b7       	in	r28, 0x3d	; 61
    3554:	de b7       	in	r29, 0x3e	; 62
    3556:	2b 97       	sbiw	r28, 0x0b	; 11
    3558:	cd bf       	out	0x3d, r28	; 61
    355a:	de bf       	out	0x3e, r29	; 62
    355c:	6c 01       	movw	r12, r24
    355e:	fb 01       	movw	r30, r22
    3560:	7a 01       	movw	r14, r20
    3562:	82 2e       	mov	r8, r18
    3564:	90 2e       	mov	r9, r16
	if (inpkt->payload.len > 0) {
    3566:	e3 5a       	subi	r30, 0xA3	; 163
    3568:	ff 4f       	sbci	r31, 0xFF	; 255
    356a:	60 81       	ld	r22, Z
    356c:	71 81       	ldd	r23, Z+1	; 0x01
    356e:	ed 55       	subi	r30, 0x5D	; 93
    3570:	f0 40       	sbci	r31, 0x00	; 0
    3572:	a6 e0       	ldi	r26, 0x06	; 6
    3574:	aa 2e       	mov	r10, r26
    3576:	b1 2c       	mov	r11, r1
    3578:	ae 0e       	add	r10, r30
    357a:	bf 1e       	adc	r11, r31
    357c:	61 15       	cp	r22, r1
    357e:	71 05       	cpc	r23, r1
    3580:	d1 f1       	breq	.+116    	; 0x35f6 <handle_put_clock+0xbc>
		rtc_setUnixtime(atoi_long(&inpkt->payload.p[0], inpkt->payload.len));
    3582:	e5 5a       	subi	r30, 0xA5	; 165
    3584:	ff 4f       	sbci	r31, 0xFF	; 255
    3586:	80 81       	ld	r24, Z
    3588:	91 81       	ldd	r25, Z+1	; 0x01
    358a:	0e 94 9c 02 	call	0x538	; 0x538 <atoi_long>
    358e:	0e 94 4f 21 	call	0x429e	; 0x429e <rtc_setUnixtime>
		// Antwort erzeugen:
		char buffer[11]; // Max. Länge 10 Zeichen
		unsigned char len;
		len = snprintf(&buffer[0], sizeof(buffer), "%lu", rtc_getUnixtime());
    3592:	0e 94 43 21 	call	0x4286	; 0x4286 <rtc_getUnixtime>
    3596:	2d b7       	in	r18, 0x3d	; 61
    3598:	3e b7       	in	r19, 0x3e	; 62
    359a:	2a 50       	subi	r18, 0x0A	; 10
    359c:	30 40       	sbci	r19, 0x00	; 0
    359e:	2d bf       	out	0x3d, r18	; 61
    35a0:	3e bf       	out	0x3e, r19	; 62
    35a2:	ed b7       	in	r30, 0x3d	; 61
    35a4:	fe b7       	in	r31, 0x3e	; 62
    35a6:	31 96       	adiw	r30, 0x01	; 1
    35a8:	8e 01       	movw	r16, r28
    35aa:	0f 5f       	subi	r16, 0xFF	; 255
    35ac:	1f 4f       	sbci	r17, 0xFF	; 255
    35ae:	ad b7       	in	r26, 0x3d	; 61
    35b0:	be b7       	in	r27, 0x3e	; 62
    35b2:	11 96       	adiw	r26, 0x01	; 1
    35b4:	0d 93       	st	X+, r16
    35b6:	1c 93       	st	X, r17
    35b8:	12 97       	sbiw	r26, 0x02	; 2
    35ba:	2b e0       	ldi	r18, 0x0B	; 11
    35bc:	30 e0       	ldi	r19, 0x00	; 0
    35be:	22 83       	std	Z+2, r18	; 0x02
    35c0:	33 83       	std	Z+3, r19	; 0x03
    35c2:	2b e0       	ldi	r18, 0x0B	; 11
    35c4:	30 e2       	ldi	r19, 0x20	; 32
    35c6:	24 83       	std	Z+4, r18	; 0x04
    35c8:	35 83       	std	Z+5, r19	; 0x05
    35ca:	66 83       	std	Z+6, r22	; 0x06
    35cc:	77 83       	std	Z+7, r23	; 0x07
    35ce:	80 87       	std	Z+8, r24	; 0x08
    35d0:	91 87       	std	Z+9, r25	; 0x09
    35d2:	0e 94 d9 28 	call	0x51b2	; 0x51b2 <snprintf>
    35d6:	28 2f       	mov	r18, r24
		return coap_make_response(scratch, outpkt, (const uint8_t *)&buffer[0], len, id_hi, id_lo, &inpkt->tok, COAP_RSPCODE_CHANGED, COAP_CONTENTTYPE_TEXT_PLAIN);
    35d8:	8d b7       	in	r24, 0x3d	; 61
    35da:	9e b7       	in	r25, 0x3e	; 62
    35dc:	0a 96       	adiw	r24, 0x0a	; 10
    35de:	8d bf       	out	0x3d, r24	; 61
    35e0:	9e bf       	out	0x3e, r25	; 62
    35e2:	c6 01       	movw	r24, r12
    35e4:	b7 01       	movw	r22, r14
    35e6:	a8 01       	movw	r20, r16
    35e8:	30 e0       	ldi	r19, 0x00	; 0
    35ea:	08 2d       	mov	r16, r8
    35ec:	e9 2c       	mov	r14, r9
    35ee:	65 01       	movw	r12, r10
    35f0:	f4 e4       	ldi	r31, 0x44	; 68
    35f2:	af 2e       	mov	r10, r31
    35f4:	0a c0       	rjmp	.+20     	; 0x360a <handle_put_clock+0xd0>
	}
	return coap_make_response(scratch, outpkt, NULL, 0, id_hi, id_lo, &inpkt->tok, COAP_RSPCODE_BAD_REQUEST, COAP_CONTENTTYPE_TEXT_PLAIN);
    35f6:	ba 01       	movw	r22, r20
    35f8:	40 e0       	ldi	r20, 0x00	; 0
    35fa:	50 e0       	ldi	r21, 0x00	; 0
    35fc:	20 e0       	ldi	r18, 0x00	; 0
    35fe:	30 e0       	ldi	r19, 0x00	; 0
    3600:	08 2d       	mov	r16, r8
    3602:	e9 2c       	mov	r14, r9
    3604:	65 01       	movw	r12, r10
    3606:	e0 e8       	ldi	r30, 0x80	; 128
    3608:	ae 2e       	mov	r10, r30
    360a:	88 24       	eor	r8, r8
    360c:	0e 94 0b 16 	call	0x2c16	; 0x2c16 <coap_make_response>
}
    3610:	2b 96       	adiw	r28, 0x0b	; 11
    3612:	cd bf       	out	0x3d, r28	; 61
    3614:	de bf       	out	0x3e, r29	; 62
    3616:	cf 91       	pop	r28
    3618:	df 91       	pop	r29
    361a:	1f 91       	pop	r17
    361c:	0f 91       	pop	r16
    361e:	ff 90       	pop	r15
    3620:	ef 90       	pop	r14
    3622:	df 90       	pop	r13
    3624:	cf 90       	pop	r12
    3626:	bf 90       	pop	r11
    3628:	af 90       	pop	r10
    362a:	9f 90       	pop	r9
    362c:	8f 90       	pop	r8
    362e:	08 95       	ret

00003630 <handle_get_clock>:
	len = snprintf(&buffer[0], sizeof(buffer), "%.2x%.2x%.2x%.2x%.2x%.2x", settings.maxKnownSequence[5], settings.maxKnownSequence[4], settings.maxKnownSequence[3], settings.maxKnownSequence[2], settings.maxKnownSequence[1], settings.maxKnownSequence[0]);
	return coap_make_response(scratch, outpkt, (const uint8_t *)&buffer[0], len, id_hi, id_lo, &inpkt->tok, COAP_RSPCODE_CONTENT, COAP_CONTENTTYPE_TEXT_PLAIN);
}

static const coap_endpoint_path_t path_clock = {1, {"clock"}};
static int handle_get_clock(coap_rw_buffer_t *scratch, const coap_packet_t *inpkt, coap_packet_t *outpkt, uint8_t id_hi, uint8_t id_lo, void * info) {
    3630:	8f 92       	push	r8
    3632:	9f 92       	push	r9
    3634:	af 92       	push	r10
    3636:	bf 92       	push	r11
    3638:	cf 92       	push	r12
    363a:	df 92       	push	r13
    363c:	ef 92       	push	r14
    363e:	ff 92       	push	r15
    3640:	0f 93       	push	r16
    3642:	1f 93       	push	r17
    3644:	df 93       	push	r29
    3646:	cf 93       	push	r28
    3648:	cd b7       	in	r28, 0x3d	; 61
    364a:	de b7       	in	r29, 0x3e	; 62
    364c:	2b 97       	sbiw	r28, 0x0b	; 11
    364e:	cd bf       	out	0x3d, r28	; 61
    3650:	de bf       	out	0x3e, r29	; 62
    3652:	4c 01       	movw	r8, r24
    3654:	6b 01       	movw	r12, r22
    3656:	5a 01       	movw	r10, r20
    3658:	f2 2e       	mov	r15, r18
    365a:	e0 2e       	mov	r14, r16
	char buffer[11];
	unsigned char len;
	len = snprintf(&buffer[0], sizeof(buffer), "%lu", rtc_getUnixtime());
    365c:	0e 94 43 21 	call	0x4286	; 0x4286 <rtc_getUnixtime>
    3660:	2d b7       	in	r18, 0x3d	; 61
    3662:	3e b7       	in	r19, 0x3e	; 62
    3664:	2a 50       	subi	r18, 0x0A	; 10
    3666:	30 40       	sbci	r19, 0x00	; 0
    3668:	2d bf       	out	0x3d, r18	; 61
    366a:	3e bf       	out	0x3e, r19	; 62
    366c:	ed b7       	in	r30, 0x3d	; 61
    366e:	fe b7       	in	r31, 0x3e	; 62
    3670:	31 96       	adiw	r30, 0x01	; 1
    3672:	8e 01       	movw	r16, r28
    3674:	0f 5f       	subi	r16, 0xFF	; 255
    3676:	1f 4f       	sbci	r17, 0xFF	; 255
    3678:	ad b7       	in	r26, 0x3d	; 61
    367a:	be b7       	in	r27, 0x3e	; 62
    367c:	11 96       	adiw	r26, 0x01	; 1
    367e:	0d 93       	st	X+, r16
    3680:	1c 93       	st	X, r17
    3682:	12 97       	sbiw	r26, 0x02	; 2
    3684:	2b e0       	ldi	r18, 0x0B	; 11
    3686:	30 e0       	ldi	r19, 0x00	; 0
    3688:	22 83       	std	Z+2, r18	; 0x02
    368a:	33 83       	std	Z+3, r19	; 0x03
    368c:	2b e0       	ldi	r18, 0x0B	; 11
    368e:	30 e2       	ldi	r19, 0x20	; 32
    3690:	24 83       	std	Z+4, r18	; 0x04
    3692:	35 83       	std	Z+5, r19	; 0x05
    3694:	66 83       	std	Z+6, r22	; 0x06
    3696:	77 83       	std	Z+7, r23	; 0x07
    3698:	80 87       	std	Z+8, r24	; 0x08
    369a:	91 87       	std	Z+9, r25	; 0x09
    369c:	0e 94 d9 28 	call	0x51b2	; 0x51b2 <snprintf>
    36a0:	28 2f       	mov	r18, r24
	return coap_make_response(scratch, outpkt, (const uint8_t *)&buffer[0], len, id_hi, id_lo, &inpkt->tok, COAP_RSPCODE_CONTENT, COAP_CONTENTTYPE_TEXT_PLAIN);
    36a2:	8d b7       	in	r24, 0x3d	; 61
    36a4:	9e b7       	in	r25, 0x3e	; 62
    36a6:	0a 96       	adiw	r24, 0x0a	; 10
    36a8:	8d bf       	out	0x3d, r24	; 61
    36aa:	9e bf       	out	0x3e, r25	; 62
    36ac:	a6 e0       	ldi	r26, 0x06	; 6
    36ae:	b0 e0       	ldi	r27, 0x00	; 0
    36b0:	ca 0e       	add	r12, r26
    36b2:	db 1e       	adc	r13, r27
    36b4:	c4 01       	movw	r24, r8
    36b6:	b5 01       	movw	r22, r10
    36b8:	a8 01       	movw	r20, r16
    36ba:	30 e0       	ldi	r19, 0x00	; 0
    36bc:	0f 2d       	mov	r16, r15
    36be:	b5 e4       	ldi	r27, 0x45	; 69
    36c0:	ab 2e       	mov	r10, r27
    36c2:	88 24       	eor	r8, r8
    36c4:	0e 94 0b 16 	call	0x2c16	; 0x2c16 <coap_make_response>
}
    36c8:	2b 96       	adiw	r28, 0x0b	; 11
    36ca:	cd bf       	out	0x3d, r28	; 61
    36cc:	de bf       	out	0x3e, r29	; 62
    36ce:	cf 91       	pop	r28
    36d0:	df 91       	pop	r29
    36d2:	1f 91       	pop	r17
    36d4:	0f 91       	pop	r16
    36d6:	ff 90       	pop	r15
    36d8:	ef 90       	pop	r14
    36da:	df 90       	pop	r13
    36dc:	cf 90       	pop	r12
    36de:	bf 90       	pop	r11
    36e0:	af 90       	pop	r10
    36e2:	9f 90       	pop	r9
    36e4:	8f 90       	pop	r8
    36e6:	08 95       	ret

000036e8 <handle_get_cardetect>:
static int handle_get_barrier(coap_rw_buffer_t *scratch, const coap_packet_t *inpkt, coap_packet_t *outpkt, uint8_t id_hi, uint8_t id_lo, void * info) {
	return coap_make_response(scratch, outpkt, (const uint8_t *)(ctrl_isBarrierEngaged() ? 'U' : 'D'), 1, id_hi, id_lo, &inpkt->tok, COAP_RSPCODE_CONTENT, COAP_CONTENTTYPE_TEXT_PLAIN);
}

static const coap_endpoint_path_t path_cardetect = {1, {"car-detect"}};
static int handle_get_cardetect(coap_rw_buffer_t *scratch, const coap_packet_t *inpkt, coap_packet_t *outpkt, uint8_t id_hi, uint8_t id_lo, void * info) {
    36e8:	8f 92       	push	r8
    36ea:	af 92       	push	r10
    36ec:	cf 92       	push	r12
    36ee:	df 92       	push	r13
    36f0:	ef 92       	push	r14
    36f2:	ff 92       	push	r15
    36f4:	0f 93       	push	r16
    36f6:	cf 93       	push	r28
    36f8:	df 93       	push	r29
    36fa:	7c 01       	movw	r14, r24
    36fc:	eb 01       	movw	r28, r22
    36fe:	6a 01       	movw	r12, r20
    3700:	a2 2e       	mov	r10, r18
    3702:	80 2e       	mov	r8, r16
	return coap_make_response(scratch, outpkt, (const uint8_t *)(ctrl_isCarParked() ? "1" : "0"), 1, id_hi, id_lo, &inpkt->tok, COAP_RSPCODE_CONTENT, COAP_CONTENTTYPE_TEXT_PLAIN);
    3704:	0e 94 d9 22 	call	0x45b2	; 0x45b2 <ctrl_isCarParked>
    3708:	88 23       	and	r24, r24
    370a:	19 f4       	brne	.+6      	; 0x3712 <handle_get_cardetect+0x2a>
    370c:	47 e0       	ldi	r20, 0x07	; 7
    370e:	50 e2       	ldi	r21, 0x20	; 32
    3710:	02 c0       	rjmp	.+4      	; 0x3716 <handle_get_cardetect+0x2e>
    3712:	49 e0       	ldi	r20, 0x09	; 9
    3714:	50 e2       	ldi	r21, 0x20	; 32
    3716:	26 96       	adiw	r28, 0x06	; 6
    3718:	c7 01       	movw	r24, r14
    371a:	b6 01       	movw	r22, r12
    371c:	21 e0       	ldi	r18, 0x01	; 1
    371e:	30 e0       	ldi	r19, 0x00	; 0
    3720:	0a 2d       	mov	r16, r10
    3722:	e8 2c       	mov	r14, r8
    3724:	6e 01       	movw	r12, r28
    3726:	e5 e4       	ldi	r30, 0x45	; 69
    3728:	ae 2e       	mov	r10, r30
    372a:	88 24       	eor	r8, r8
    372c:	0e 94 0b 16 	call	0x2c16	; 0x2c16 <coap_make_response>
}
    3730:	df 91       	pop	r29
    3732:	cf 91       	pop	r28
    3734:	0f 91       	pop	r16
    3736:	ff 90       	pop	r15
    3738:	ef 90       	pop	r14
    373a:	df 90       	pop	r13
    373c:	cf 90       	pop	r12
    373e:	af 90       	pop	r10
    3740:	8f 90       	pop	r8
    3742:	08 95       	ret

00003744 <handle_get_barrier>:
		return coap_make_response(scratch, outpkt, (const uint8_t *)&light, 1, id_hi, id_lo, &inpkt->tok, COAP_RSPCODE_CHANGED, COAP_CONTENTTYPE_TEXT_PLAIN);
	}
}

static const coap_endpoint_path_t path_barrier = {1, {"barrier"}};
static int handle_get_barrier(coap_rw_buffer_t *scratch, const coap_packet_t *inpkt, coap_packet_t *outpkt, uint8_t id_hi, uint8_t id_lo, void * info) {
    3744:	8f 92       	push	r8
    3746:	af 92       	push	r10
    3748:	cf 92       	push	r12
    374a:	df 92       	push	r13
    374c:	ef 92       	push	r14
    374e:	ff 92       	push	r15
    3750:	0f 93       	push	r16
    3752:	cf 93       	push	r28
    3754:	df 93       	push	r29
    3756:	7c 01       	movw	r14, r24
    3758:	eb 01       	movw	r28, r22
    375a:	6a 01       	movw	r12, r20
    375c:	a2 2e       	mov	r10, r18
    375e:	80 2e       	mov	r8, r16
	return coap_make_response(scratch, outpkt, (const uint8_t *)(ctrl_isBarrierEngaged() ? 'U' : 'D'), 1, id_hi, id_lo, &inpkt->tok, COAP_RSPCODE_CONTENT, COAP_CONTENTTYPE_TEXT_PLAIN);
    3760:	0e 94 d6 22 	call	0x45ac	; 0x45ac <ctrl_isBarrierEngaged>
    3764:	88 23       	and	r24, r24
    3766:	19 f4       	brne	.+6      	; 0x376e <handle_get_barrier+0x2a>
    3768:	44 e4       	ldi	r20, 0x44	; 68
    376a:	50 e0       	ldi	r21, 0x00	; 0
    376c:	02 c0       	rjmp	.+4      	; 0x3772 <handle_get_barrier+0x2e>
    376e:	45 e5       	ldi	r20, 0x55	; 85
    3770:	50 e0       	ldi	r21, 0x00	; 0
    3772:	26 96       	adiw	r28, 0x06	; 6
    3774:	c7 01       	movw	r24, r14
    3776:	b6 01       	movw	r22, r12
    3778:	21 e0       	ldi	r18, 0x01	; 1
    377a:	30 e0       	ldi	r19, 0x00	; 0
    377c:	0a 2d       	mov	r16, r10
    377e:	e8 2c       	mov	r14, r8
    3780:	6e 01       	movw	r12, r28
    3782:	f5 e4       	ldi	r31, 0x45	; 69
    3784:	af 2e       	mov	r10, r31
    3786:	88 24       	eor	r8, r8
    3788:	0e 94 0b 16 	call	0x2c16	; 0x2c16 <coap_make_response>
}
    378c:	df 91       	pop	r29
    378e:	cf 91       	pop	r28
    3790:	0f 91       	pop	r16
    3792:	ff 90       	pop	r15
    3794:	ef 90       	pop	r14
    3796:	df 90       	pop	r13
    3798:	cf 90       	pop	r12
    379a:	af 90       	pop	r10
    379c:	8f 90       	pop	r8
    379e:	08 95       	ret

000037a0 <handle_put_light>:
static const coap_endpoint_path_t path_light = {1, {"light"}};
static int handle_get_light(coap_rw_buffer_t *scratch, const coap_packet_t *inpkt, coap_packet_t *outpkt, uint8_t id_hi, uint8_t id_lo, void * info) {
	return coap_make_response(scratch, outpkt, (const uint8_t *)&light, 1, id_hi, id_lo, &inpkt->tok, COAP_RSPCODE_CONTENT, COAP_CONTENTTYPE_TEXT_PLAIN);
}

static int handle_put_light(coap_rw_buffer_t *scratch, const coap_packet_t *inpkt, coap_packet_t *outpkt, uint8_t id_hi, uint8_t id_lo, void * info) {
    37a0:	8f 92       	push	r8
    37a2:	9f 92       	push	r9
    37a4:	af 92       	push	r10
    37a6:	cf 92       	push	r12
    37a8:	df 92       	push	r13
    37aa:	ef 92       	push	r14
    37ac:	0f 93       	push	r16
    37ae:	cf 93       	push	r28
    37b0:	df 93       	push	r29
    37b2:	6c 01       	movw	r12, r24
    37b4:	db 01       	movw	r26, r22
    37b6:	ea 01       	movw	r28, r20
    37b8:	a2 2e       	mov	r10, r18
    37ba:	e0 2e       	mov	r14, r16
	if (inpkt->payload.len == 0)
    37bc:	a3 5a       	subi	r26, 0xA3	; 163
    37be:	bf 4f       	sbci	r27, 0xFF	; 255
    37c0:	8d 91       	ld	r24, X+
    37c2:	9c 91       	ld	r25, X
    37c4:	11 97       	sbiw	r26, 0x01	; 1
    37c6:	ad 55       	subi	r26, 0x5D	; 93
    37c8:	b0 40       	sbci	r27, 0x00	; 0
    37ca:	89 2b       	or	r24, r25
    37cc:	61 f4       	brne	.+24     	; 0x37e6 <handle_put_light+0x46>
		return coap_make_response(scratch, outpkt, NULL, 0, id_hi, id_lo, &inpkt->tok, COAP_RSPCODE_BAD_REQUEST, COAP_CONTENTTYPE_TEXT_PLAIN);
    37ce:	16 96       	adiw	r26, 0x06	; 6
    37d0:	c6 01       	movw	r24, r12
    37d2:	ba 01       	movw	r22, r20
    37d4:	40 e0       	ldi	r20, 0x00	; 0
    37d6:	50 e0       	ldi	r21, 0x00	; 0
    37d8:	20 e0       	ldi	r18, 0x00	; 0
    37da:	30 e0       	ldi	r19, 0x00	; 0
    37dc:	0a 2d       	mov	r16, r10
    37de:	6d 01       	movw	r12, r26
    37e0:	e0 e8       	ldi	r30, 0x80	; 128
    37e2:	ae 2e       	mov	r10, r30
    37e4:	4e c0       	rjmp	.+156    	; 0x3882 <handle_put_light+0xe2>
	if (inpkt->payload.p[0] == '1') {
    37e6:	a5 5a       	subi	r26, 0xA5	; 165
    37e8:	bf 4f       	sbci	r27, 0xFF	; 255
    37ea:	ed 91       	ld	r30, X+
    37ec:	fc 91       	ld	r31, X
    37ee:	11 97       	sbiw	r26, 0x01	; 1
    37f0:	e0 81       	ld	r30, Z
    37f2:	0b ea       	ldi	r16, 0xAB	; 171
    37f4:	80 2e       	mov	r8, r16
    37f6:	0f ef       	ldi	r16, 0xFF	; 255
    37f8:	90 2e       	mov	r9, r16
    37fa:	8a 0e       	add	r8, r26
    37fc:	9b 1e       	adc	r9, r27
    37fe:	e1 33       	cpi	r30, 0x31	; 49
    3800:	d9 f4       	brne	.+54     	; 0x3838 <handle_put_light+0x98>
		light = '1';
    3802:	e0 93 9f 20 	sts	0x209F, r30
		ON(LED0);
    3806:	81 e0       	ldi	r24, 0x01	; 1
    3808:	0e 94 a4 07 	call	0xf48	; 0xf48 <hw_setOn>
		ON(LED1);
    380c:	82 e0       	ldi	r24, 0x02	; 2
    380e:	0e 94 a4 07 	call	0xf48	; 0xf48 <hw_setOn>
		ON(LED2);
    3812:	83 e0       	ldi	r24, 0x03	; 3
    3814:	0e 94 a4 07 	call	0xf48	; 0xf48 <hw_setOn>
		ON(LED3);
    3818:	84 e0       	ldi	r24, 0x04	; 4
    381a:	0e 94 a4 07 	call	0xf48	; 0xf48 <hw_setOn>
		ON(LED4);
    381e:	85 e0       	ldi	r24, 0x05	; 5
    3820:	0e 94 a4 07 	call	0xf48	; 0xf48 <hw_setOn>
		ON(LED5);
    3824:	86 e0       	ldi	r24, 0x06	; 6
    3826:	0e 94 a4 07 	call	0xf48	; 0xf48 <hw_setOn>
		ON(LED6);
    382a:	87 e0       	ldi	r24, 0x07	; 7
    382c:	0e 94 a4 07 	call	0xf48	; 0xf48 <hw_setOn>
		ON(LED7);
    3830:	88 e0       	ldi	r24, 0x08	; 8
    3832:	0e 94 a4 07 	call	0xf48	; 0xf48 <hw_setOn>
    3836:	1b c0       	rjmp	.+54     	; 0x386e <handle_put_light+0xce>
		return coap_make_response(scratch, outpkt, (const uint8_t *)&light, 1, id_hi, id_lo, &inpkt->tok, COAP_RSPCODE_CHANGED, COAP_CONTENTTYPE_TEXT_PLAIN);
	} else {
		light = '0';
    3838:	80 e3       	ldi	r24, 0x30	; 48
    383a:	80 93 9f 20 	sts	0x209F, r24
		OFF(LED0);
    383e:	81 e0       	ldi	r24, 0x01	; 1
    3840:	0e 94 c6 07 	call	0xf8c	; 0xf8c <hw_setOff>
		OFF(LED1);
    3844:	82 e0       	ldi	r24, 0x02	; 2
    3846:	0e 94 c6 07 	call	0xf8c	; 0xf8c <hw_setOff>
		OFF(LED2);
    384a:	83 e0       	ldi	r24, 0x03	; 3
    384c:	0e 94 c6 07 	call	0xf8c	; 0xf8c <hw_setOff>
		OFF(LED3);
    3850:	84 e0       	ldi	r24, 0x04	; 4
    3852:	0e 94 c6 07 	call	0xf8c	; 0xf8c <hw_setOff>
		OFF(LED4);
    3856:	85 e0       	ldi	r24, 0x05	; 5
    3858:	0e 94 c6 07 	call	0xf8c	; 0xf8c <hw_setOff>
		OFF(LED5);
    385c:	86 e0       	ldi	r24, 0x06	; 6
    385e:	0e 94 c6 07 	call	0xf8c	; 0xf8c <hw_setOff>
		OFF(LED6);
    3862:	87 e0       	ldi	r24, 0x07	; 7
    3864:	0e 94 c6 07 	call	0xf8c	; 0xf8c <hw_setOff>
		OFF(LED7);
    3868:	88 e0       	ldi	r24, 0x08	; 8
    386a:	0e 94 c6 07 	call	0xf8c	; 0xf8c <hw_setOff>
		return coap_make_response(scratch, outpkt, (const uint8_t *)&light, 1, id_hi, id_lo, &inpkt->tok, COAP_RSPCODE_CHANGED, COAP_CONTENTTYPE_TEXT_PLAIN);
    386e:	c6 01       	movw	r24, r12
    3870:	be 01       	movw	r22, r28
    3872:	4f e9       	ldi	r20, 0x9F	; 159
    3874:	50 e2       	ldi	r21, 0x20	; 32
    3876:	21 e0       	ldi	r18, 0x01	; 1
    3878:	30 e0       	ldi	r19, 0x00	; 0
    387a:	0a 2d       	mov	r16, r10
    387c:	64 01       	movw	r12, r8
    387e:	a4 e4       	ldi	r26, 0x44	; 68
    3880:	aa 2e       	mov	r10, r26
    3882:	88 24       	eor	r8, r8
    3884:	0e 94 0b 16 	call	0x2c16	; 0x2c16 <coap_make_response>
	}
}
    3888:	df 91       	pop	r29
    388a:	cf 91       	pop	r28
    388c:	0f 91       	pop	r16
    388e:	ef 90       	pop	r14
    3890:	df 90       	pop	r13
    3892:	cf 90       	pop	r12
    3894:	af 90       	pop	r10
    3896:	9f 90       	pop	r9
    3898:	8f 90       	pop	r8
    389a:	08 95       	ret

0000389c <handle_get_well_known_core>:

// Für jedes Element ein GET/POST-Endpoint. Der "neue" void * info-Pointer verweist auf die ursprüngliche Nachricht,
// so das die Quelle herausgefunden werden kann oder ermittelt wird ob die Nachricht verschlüsselt war oder nicht.

static const coap_endpoint_path_t path_well_known_core = {2, {".well-known", "core"}};
static int handle_get_well_known_core(coap_rw_buffer_t *scratch, const coap_packet_t *inpkt, coap_packet_t *outpkt, uint8_t id_hi, uint8_t id_lo, void * info) {
    389c:	8f 92       	push	r8
    389e:	af 92       	push	r10
    38a0:	cf 92       	push	r12
    38a2:	df 92       	push	r13
    38a4:	ef 92       	push	r14
    38a6:	0f 93       	push	r16
    38a8:	1f 93       	push	r17
    38aa:	6b 01       	movw	r12, r22
    38ac:	12 2f       	mov	r17, r18
    38ae:	e0 2e       	mov	r14, r16
	return coap_make_response(scratch, outpkt, (const uint8_t *)rsp, strlen(rsp), id_hi, id_lo, &inpkt->tok, COAP_RSPCODE_CONTENT, COAP_CONTENTTYPE_APPLICATION_LINKFORMAT);
    38b0:	a0 ea       	ldi	r26, 0xA0	; 160
    38b2:	b0 e2       	ldi	r27, 0x20	; 32
    38b4:	fd 01       	movw	r30, r26
    38b6:	01 90       	ld	r0, Z+
    38b8:	00 20       	and	r0, r0
    38ba:	e9 f7       	brne	.-6      	; 0x38b6 <handle_get_well_known_core+0x1a>
    38bc:	31 97       	sbiw	r30, 0x01	; 1
    38be:	ea 1b       	sub	r30, r26
    38c0:	fb 0b       	sbc	r31, r27
    38c2:	26 e0       	ldi	r18, 0x06	; 6
    38c4:	30 e0       	ldi	r19, 0x00	; 0
    38c6:	c2 0e       	add	r12, r18
    38c8:	d3 1e       	adc	r13, r19
    38ca:	ba 01       	movw	r22, r20
    38cc:	ad 01       	movw	r20, r26
    38ce:	9f 01       	movw	r18, r30
    38d0:	01 2f       	mov	r16, r17
    38d2:	a5 e4       	ldi	r26, 0x45	; 69
    38d4:	aa 2e       	mov	r10, r26
    38d6:	f8 e2       	ldi	r31, 0x28	; 40
    38d8:	8f 2e       	mov	r8, r31
    38da:	0e 94 0b 16 	call	0x2c16	; 0x2c16 <coap_make_response>
}
    38de:	1f 91       	pop	r17
    38e0:	0f 91       	pop	r16
    38e2:	ef 90       	pop	r14
    38e4:	df 90       	pop	r13
    38e6:	cf 90       	pop	r12
    38e8:	af 90       	pop	r10
    38ea:	8f 90       	pop	r8
    38ec:	08 95       	ret

000038ee <ce_processIncomingMessage>:

// Copy of the main_posix.c file provided with microcoap as an example:



void ce_processIncomingMessage(MESSAGE_t * msg) {
    38ee:	af 92       	push	r10
    38f0:	bf 92       	push	r11
    38f2:	cf 92       	push	r12
    38f4:	df 92       	push	r13
    38f6:	ef 92       	push	r14
    38f8:	ff 92       	push	r15
    38fa:	0f 93       	push	r16
    38fc:	1f 93       	push	r17
    38fe:	df 93       	push	r29
    3900:	cf 93       	push	r28
    3902:	cd b7       	in	r28, 0x3d	; 61
    3904:	de b7       	in	r29, 0x3e	; 62
    3906:	c8 5d       	subi	r28, 0xD8	; 216
    3908:	d0 40       	sbci	r29, 0x00	; 0
    390a:	cd bf       	out	0x3d, r28	; 61
    390c:	de bf       	out	0x3e, r29	; 62
    390e:	7c 01       	movw	r14, r24
	// Function is not reentrant (buffers reside in external memory since we only have 8 KB internal SRAM):
	static unsigned char buf[4096] EXTRAM;
	static unsigned char scratch_raw[4096] EXTRAM;
	coap_rw_buffer_t scratch_buf = {scratch_raw, sizeof(scratch_raw)};
    3910:	8e e4       	ldi	r24, 0x4E	; 78
    3912:	90 e5       	ldi	r25, 0x50	; 80
    3914:	8b 83       	std	Y+3, r24	; 0x03
    3916:	9c 83       	std	Y+4, r25	; 0x04
    3918:	00 e0       	ldi	r16, 0x00	; 0
    391a:	10 e1       	ldi	r17, 0x10	; 16
    391c:	0d 83       	std	Y+5, r16	; 0x05
    391e:	1e 83       	std	Y+6, r17	; 0x06
	coap_packet_t pkt;
	
	// Hand this message to CoAP for processing and transmit result back to sender
	
	// Nachricht raus kopieren (wäre vermutlich nicht nötig, bevor wir aber die komplette Bibliothek analysieren ob das überschrieben wird ist das so besser):
	memcpy(buf, msg->content, msg->len);
    3920:	8e e4       	ldi	r24, 0x4E	; 78
    3922:	c8 2e       	mov	r12, r24
    3924:	80 e6       	ldi	r24, 0x60	; 96
    3926:	d8 2e       	mov	r13, r24
    3928:	d7 01       	movw	r26, r14
    392a:	50 96       	adiw	r26, 0x10	; 16
    392c:	6c 91       	ld	r22, X
    392e:	50 97       	sbiw	r26, 0x10	; 16
    3930:	51 96       	adiw	r26, 0x11	; 17
    3932:	7c 91       	ld	r23, X
    3934:	51 97       	sbiw	r26, 0x11	; 17
    3936:	52 96       	adiw	r26, 0x12	; 18
    3938:	4d 91       	ld	r20, X+
    393a:	5c 91       	ld	r21, X
    393c:	53 97       	sbiw	r26, 0x13	; 19
    393e:	c6 01       	movw	r24, r12
    3940:	0e 94 c0 28 	call	0x5180	; 0x5180 <memcpy>
	
	if (!coap_parse(&pkt, buf, msg->len)) {
    3944:	bb e1       	ldi	r27, 0x1B	; 27
    3946:	ab 2e       	mov	r10, r27
    3948:	b1 2c       	mov	r11, r1
    394a:	ac 0e       	add	r10, r28
    394c:	bd 1e       	adc	r11, r29
    394e:	f7 01       	movw	r30, r14
    3950:	42 89       	ldd	r20, Z+18	; 0x12
    3952:	53 89       	ldd	r21, Z+19	; 0x13
    3954:	c5 01       	movw	r24, r10
    3956:	b6 01       	movw	r22, r12
    3958:	0e 94 9e 15 	call	0x2b3c	; 0x2b3c <coap_parse>
    395c:	89 2b       	or	r24, r25
    395e:	09 f0       	breq	.+2      	; 0x3962 <ce_processIncomingMessage+0x74>
    3960:	61 c0       	rjmp	.+194    	; 0x3a24 <ce_processIncomingMessage+0x136>
		// Nachricht erfolgreich geparsed
		coap_packet_t rsppkt;
		size_t rsplen = sizeof(buf);
    3962:	09 83       	std	Y+1, r16	; 0x01
    3964:	1a 83       	std	Y+2, r17	; 0x02
		
		// Request verarbeiten, Antwort geht in buffer/rsppkt
		coap_handle_req(&scratch_buf, &pkt, &rsppkt, msg);
    3966:	8e 01       	movw	r16, r28
    3968:	06 58       	subi	r16, 0x86	; 134
    396a:	1f 4f       	sbci	r17, 0xFF	; 255
    396c:	ce 01       	movw	r24, r28
    396e:	03 96       	adiw	r24, 0x03	; 3
    3970:	b5 01       	movw	r22, r10
    3972:	a8 01       	movw	r20, r16
    3974:	97 01       	movw	r18, r14
    3976:	0e 94 b7 16 	call	0x2d6e	; 0x2d6e <coap_handle_req>
		
		if (!coap_build(&buf[0], &rsplen, &rsppkt)) {
    397a:	c6 01       	movw	r24, r12
    397c:	be 01       	movw	r22, r28
    397e:	6f 5f       	subi	r22, 0xFF	; 255
    3980:	7f 4f       	sbci	r23, 0xFF	; 255
    3982:	a8 01       	movw	r20, r16
    3984:	0e 94 83 17 	call	0x2f06	; 0x2f06 <coap_build>
    3988:	89 2b       	or	r24, r25
    398a:	d9 f5       	brne	.+118    	; 0x3a02 <ce_processIncomingMessage+0x114>
			if (rsplen <= (MAX_PAYLOAD_LENGTH)) {
    398c:	89 81       	ldd	r24, Y+1	; 0x01
    398e:	9a 81       	ldd	r25, Y+2	; 0x02
    3990:	8d 5d       	subi	r24, 0xDD	; 221
    3992:	95 40       	sbci	r25, 0x05	; 5
    3994:	a0 f5       	brcc	.+104    	; 0x39fe <ce_processIncomingMessage+0x110>
				// Neue Nachricht daraus bauen und abschicken:
				MESSAGE_t rspMsg;
				memset(&rspMsg, 0, sizeof(MESSAGE_t));
    3996:	84 e1       	ldi	r24, 0x14	; 20
    3998:	fe 01       	movw	r30, r28
    399a:	37 96       	adiw	r30, 0x07	; 7
    399c:	df 01       	movw	r26, r30
    399e:	1d 92       	st	X+, r1
    39a0:	8a 95       	dec	r24
    39a2:	e9 f7       	brne	.-6      	; 0x399e <ce_processIncomingMessage+0xb0>
				// Antwort an den Absender des Request:
				rspMsg.msgDest = msg->msgSrc;
    39a4:	f7 01       	movw	r30, r14
    39a6:	24 81       	ldd	r18, Z+4	; 0x04
    39a8:	35 81       	ldd	r19, Z+5	; 0x05
    39aa:	46 81       	ldd	r20, Z+6	; 0x06
    39ac:	57 81       	ldd	r21, Z+7	; 0x07
				// Ports mit dazu (für eventuell nötiges Routing):
				rspMsg.srcPort = msg->dstPort;
    39ae:	82 85       	ldd	r24, Z+10	; 0x0a
    39b0:	93 85       	ldd	r25, Z+11	; 0x0b
    39b2:	8f 87       	std	Y+15, r24	; 0x0f
    39b4:	98 8b       	std	Y+16, r25	; 0x10
				rspMsg.dstPort = msg->srcPort;
    39b6:	60 85       	ldd	r22, Z+8	; 0x08
    39b8:	71 85       	ldd	r23, Z+9	; 0x09
				// Wir verschlüsseln wenn der Request ebenfalls verschlüsselt war:
				if (msg->flags & MSG_FLAG_ENCRYPTED)
    39ba:	84 85       	ldd	r24, Z+12	; 0x0c
    39bc:	81 ff       	sbrs	r24, 1
    39be:	02 c0       	rjmp	.+4      	; 0x39c4 <ce_processIncomingMessage+0xd6>
					rspMsg.flags = MSG_FLAG_ENCRYPTED;
    39c0:	82 e0       	ldi	r24, 0x02	; 2
    39c2:	8b 8b       	std	Y+19, r24	; 0x13
				// CoAP-Antwort (subProtocol wird implizit auf 0 gelassen):
				rspMsg.subProtocol = 0;
    39c4:	1e 8a       	std	Y+22, r1	; 0x16
				rspMsg.sequence = &settings.maxKnownSequence[0];
    39c6:	8c e2       	ldi	r24, 0x2C	; 44
    39c8:	9a e2       	ldi	r25, 0x2A	; 42
    39ca:	8c 8b       	std	Y+20, r24	; 0x14
    39cc:	9d 8b       	std	Y+21, r25	; 0x15
				// Content übernehmen wir von der coap_build-Funktion:
				rspMsg.content = &buf[0];
    39ce:	8e e4       	ldi	r24, 0x4E	; 78
    39d0:	90 e6       	ldi	r25, 0x60	; 96
    39d2:	8f 8b       	std	Y+23, r24	; 0x17
    39d4:	98 8f       	std	Y+24, r25	; 0x18
				rspMsg.len = (unsigned short int)rsplen;
    39d6:	89 81       	ldd	r24, Y+1	; 0x01
    39d8:	9a 81       	ldd	r25, Y+2	; 0x02
    39da:	89 8f       	std	Y+25, r24	; 0x19
    39dc:	9a 8f       	std	Y+26, r25	; 0x1a
				
				// Und raus damit..
				com_sendProtocolMessage(uartPC, &rspMsg);
    39de:	80 91 0c 2a 	lds	r24, 0x2A0C
    39e2:	90 91 0d 2a 	lds	r25, 0x2A0D
				memset(&rspMsg, 0, sizeof(MESSAGE_t));
				// Antwort an den Absender des Request:
				rspMsg.msgDest = msg->msgSrc;
				// Ports mit dazu (für eventuell nötiges Routing):
				rspMsg.srcPort = msg->dstPort;
				rspMsg.dstPort = msg->srcPort;
    39e6:	69 8b       	std	Y+17, r22	; 0x11
    39e8:	7a 8b       	std	Y+18, r23	; 0x12
			if (rsplen <= (MAX_PAYLOAD_LENGTH)) {
				// Neue Nachricht daraus bauen und abschicken:
				MESSAGE_t rspMsg;
				memset(&rspMsg, 0, sizeof(MESSAGE_t));
				// Antwort an den Absender des Request:
				rspMsg.msgDest = msg->msgSrc;
    39ea:	2f 83       	std	Y+7, r18	; 0x07
    39ec:	38 87       	std	Y+8, r19	; 0x08
    39ee:	49 87       	std	Y+9, r20	; 0x09
    39f0:	5a 87       	std	Y+10, r21	; 0x0a
				// Content übernehmen wir von der coap_build-Funktion:
				rspMsg.content = &buf[0];
				rspMsg.len = (unsigned short int)rsplen;
				
				// Und raus damit..
				com_sendProtocolMessage(uartPC, &rspMsg);
    39f2:	be 01       	movw	r22, r28
    39f4:	69 5f       	subi	r22, 0xF9	; 249
    39f6:	7f 4f       	sbci	r23, 0xFF	; 255
    39f8:	0e 94 09 10 	call	0x2012	; 0x2012 <com_sendProtocolMessage>
    39fc:	13 c0       	rjmp	.+38     	; 0x3a24 <ce_processIncomingMessage+0x136>
			} else {
				// Problem, CoAP-Nachricht ist eigentlich zu lang!
				ON(LED2);
    39fe:	83 e0       	ldi	r24, 0x03	; 3
    3a00:	0f c0       	rjmp	.+30     	; 0x3a20 <ce_processIncomingMessage+0x132>
			}
		} else {
			// CoAP build failed
			uart_printf_P(PSTR("CoAP build failed!"));
    3a02:	0f 92       	push	r0
    3a04:	0f 92       	push	r0
    3a06:	89 e2       	ldi	r24, 0x29	; 41
    3a08:	92 e0       	ldi	r25, 0x02	; 2
    3a0a:	ad b7       	in	r26, 0x3d	; 61
    3a0c:	be b7       	in	r27, 0x3e	; 62
    3a0e:	11 96       	adiw	r26, 0x01	; 1
    3a10:	8d 93       	st	X+, r24
    3a12:	9c 93       	st	X, r25
    3a14:	12 97       	sbiw	r26, 0x02	; 2
    3a16:	0e 94 99 20 	call	0x4132	; 0x4132 <uart_printf_P>
			ON(LED1);
    3a1a:	0f 90       	pop	r0
    3a1c:	0f 90       	pop	r0
    3a1e:	82 e0       	ldi	r24, 0x02	; 2
    3a20:	0e 94 a4 07 	call	0xf48	; 0xf48 <hw_setOn>
		}
	} else {
		// Invalid CoAP message. Ignore.
	}
}
    3a24:	c8 52       	subi	r28, 0x28	; 40
    3a26:	df 4f       	sbci	r29, 0xFF	; 255
    3a28:	cd bf       	out	0x3d, r28	; 61
    3a2a:	de bf       	out	0x3e, r29	; 62
    3a2c:	cf 91       	pop	r28
    3a2e:	df 91       	pop	r29
    3a30:	1f 91       	pop	r17
    3a32:	0f 91       	pop	r16
    3a34:	ff 90       	pop	r15
    3a36:	ef 90       	pop	r14
    3a38:	df 90       	pop	r13
    3a3a:	cf 90       	pop	r12
    3a3c:	bf 90       	pop	r11
    3a3e:	af 90       	pop	r10
    3a40:	08 95       	ret

00003a42 <build_rsp>:

// Handling eingehender Nachrichten und Aufbaue der Endpunkte / Discovery:

// TODO: Ist ja schön dass das automatisch geht, es braucht aber aufgrund der unklaren Größe dauerhaft saumäßig viel RAM. Außerdem prüft
// die Funktion nicht auf einen Überlauf - zu viele Endpunkte würden also alles kaputt machen.
void build_rsp(void) {
    3a42:	8f 92       	push	r8
    3a44:	9f 92       	push	r9
    3a46:	af 92       	push	r10
    3a48:	bf 92       	push	r11
    3a4a:	cf 92       	push	r12
    3a4c:	df 92       	push	r13
    3a4e:	ef 92       	push	r14
    3a50:	ff 92       	push	r15
    3a52:	0f 93       	push	r16
    3a54:	1f 93       	push	r17
    3a56:	cf 93       	push	r28
    3a58:	df 93       	push	r29
    3a5a:	95 e4       	ldi	r25, 0x45	; 69
    3a5c:	a9 2e       	mov	r10, r25
    3a5e:	90 e2       	ldi	r25, 0x20	; 32
    3a60:	b9 2e       	mov	r11, r25
    3a62:	0b ed       	ldi	r16, 0xDB	; 219
    3a64:	15 e0       	ldi	r17, 0x05	; 5
    3a66:	65 c0       	rjmp	.+202    	; 0x3b32 <build_rsp+0xf0>
	int i;
	
	len--; // Null-terminated string
	
	while (NULL != ep->handler) {
		if (NULL == ep->core_attr) {
    3a68:	f5 01       	movw	r30, r10
    3a6a:	c4 80       	ldd	r12, Z+4	; 0x04
    3a6c:	d5 80       	ldd	r13, Z+5	; 0x05
    3a6e:	c1 14       	cp	r12, r1
    3a70:	d1 04       	cpc	r13, r1
    3a72:	09 f4       	brne	.+2      	; 0x3a76 <build_rsp+0x34>
    3a74:	5a c0       	rjmp	.+180    	; 0x3b2a <build_rsp+0xe8>
			ep++;
			continue;
		}
		
		if (0 < strlen(rsp)) {
    3a76:	80 91 a0 20 	lds	r24, 0x20A0
    3a7a:	88 23       	and	r24, r24
    3a7c:	49 f0       	breq	.+18     	; 0x3a90 <build_rsp+0x4e>
			strncat(rsp, ",", len);
    3a7e:	80 ea       	ldi	r24, 0xA0	; 160
    3a80:	90 e2       	ldi	r25, 0x20	; 32
    3a82:	68 e2       	ldi	r22, 0x28	; 40
    3a84:	70 e2       	ldi	r23, 0x20	; 32
    3a86:	a8 01       	movw	r20, r16
    3a88:	0e 94 c9 28 	call	0x5192	; 0x5192 <strncat>
			len--;
    3a8c:	01 50       	subi	r16, 0x01	; 1
    3a8e:	10 40       	sbci	r17, 0x00	; 0
		}
		
		strncat(rsp, "<", len);
    3a90:	80 ea       	ldi	r24, 0xA0	; 160
    3a92:	90 e2       	ldi	r25, 0x20	; 32
    3a94:	6a e2       	ldi	r22, 0x2A	; 42
    3a96:	70 e2       	ldi	r23, 0x20	; 32
    3a98:	a8 01       	movw	r20, r16
    3a9a:	0e 94 c9 28 	call	0x5192	; 0x5192 <strncat>
		len--;
    3a9e:	01 50       	subi	r16, 0x01	; 1
    3aa0:	10 40       	sbci	r17, 0x00	; 0
		
		for (i=0; i<ep->path->count; i++) {
    3aa2:	f5 01       	movw	r30, r10
    3aa4:	82 80       	ldd	r8, Z+2	; 0x02
    3aa6:	93 80       	ldd	r9, Z+3	; 0x03
    3aa8:	e4 01       	movw	r28, r8
    3aaa:	ee 24       	eor	r14, r14
    3aac:	ff 24       	eor	r15, r15
    3aae:	1e c0       	rjmp	.+60     	; 0x3aec <build_rsp+0xaa>
			strncat(rsp, "/", len);
    3ab0:	80 ea       	ldi	r24, 0xA0	; 160
    3ab2:	90 e2       	ldi	r25, 0x20	; 32
    3ab4:	6c e2       	ldi	r22, 0x2C	; 44
    3ab6:	70 e2       	ldi	r23, 0x20	; 32
    3ab8:	a8 01       	movw	r20, r16
    3aba:	0e 94 c9 28 	call	0x5192	; 0x5192 <strncat>
			len--;
    3abe:	01 50       	subi	r16, 0x01	; 1
    3ac0:	10 40       	sbci	r17, 0x00	; 0
			strncat(rsp, ep->path->elems[i], len);
    3ac2:	68 81       	ld	r22, Y
    3ac4:	79 81       	ldd	r23, Y+1	; 0x01
    3ac6:	80 ea       	ldi	r24, 0xA0	; 160
    3ac8:	90 e2       	ldi	r25, 0x20	; 32
    3aca:	a8 01       	movw	r20, r16
    3acc:	0e 94 c9 28 	call	0x5192	; 0x5192 <strncat>
			len -= strlen(ep->path->elems[i]);
    3ad0:	a8 81       	ld	r26, Y
    3ad2:	b9 81       	ldd	r27, Y+1	; 0x01
    3ad4:	fd 01       	movw	r30, r26
    3ad6:	01 90       	ld	r0, Z+
    3ad8:	00 20       	and	r0, r0
    3ada:	e9 f7       	brne	.-6      	; 0x3ad6 <build_rsp+0x94>
    3adc:	31 97       	sbiw	r30, 0x01	; 1
    3ade:	ea 1b       	sub	r30, r26
    3ae0:	fb 0b       	sbc	r31, r27
    3ae2:	0e 1b       	sub	r16, r30
    3ae4:	1f 0b       	sbc	r17, r31
		}
		
		strncat(rsp, "<", len);
		len--;
		
		for (i=0; i<ep->path->count; i++) {
    3ae6:	08 94       	sec
    3ae8:	e1 1c       	adc	r14, r1
    3aea:	f1 1c       	adc	r15, r1
    3aec:	22 96       	adiw	r28, 0x02	; 2
    3aee:	f4 01       	movw	r30, r8
    3af0:	80 81       	ld	r24, Z
    3af2:	91 81       	ldd	r25, Z+1	; 0x01
    3af4:	e8 16       	cp	r14, r24
    3af6:	f9 06       	cpc	r15, r25
    3af8:	dc f2       	brlt	.-74     	; 0x3ab0 <build_rsp+0x6e>
			len--;
			strncat(rsp, ep->path->elems[i], len);
			len -= strlen(ep->path->elems[i]);
		}
		
		strncat(rsp, ">;", len);
    3afa:	80 ea       	ldi	r24, 0xA0	; 160
    3afc:	90 e2       	ldi	r25, 0x20	; 32
    3afe:	6e e2       	ldi	r22, 0x2E	; 46
    3b00:	70 e2       	ldi	r23, 0x20	; 32
    3b02:	a8 01       	movw	r20, r16
    3b04:	0e 94 c9 28 	call	0x5192	; 0x5192 <strncat>
		len -= 2;
    3b08:	02 50       	subi	r16, 0x02	; 2
    3b0a:	10 40       	sbci	r17, 0x00	; 0
		
		strncat(rsp, ep->core_attr, len);
    3b0c:	80 ea       	ldi	r24, 0xA0	; 160
    3b0e:	90 e2       	ldi	r25, 0x20	; 32
    3b10:	b6 01       	movw	r22, r12
    3b12:	a8 01       	movw	r20, r16
    3b14:	0e 94 c9 28 	call	0x5192	; 0x5192 <strncat>
		len -= strlen(ep->core_attr);
    3b18:	f6 01       	movw	r30, r12
    3b1a:	01 90       	ld	r0, Z+
    3b1c:	00 20       	and	r0, r0
    3b1e:	e9 f7       	brne	.-6      	; 0x3b1a <build_rsp+0xd8>
    3b20:	31 97       	sbiw	r30, 0x01	; 1
    3b22:	ec 19       	sub	r30, r12
    3b24:	fd 09       	sbc	r31, r13
    3b26:	0e 1b       	sub	r16, r30
    3b28:	1f 0b       	sbc	r17, r31
    3b2a:	87 e0       	ldi	r24, 0x07	; 7
    3b2c:	90 e0       	ldi	r25, 0x00	; 0
    3b2e:	a8 0e       	add	r10, r24
    3b30:	b9 1e       	adc	r11, r25
	const coap_endpoint_t *ep = endpoints;
	int i;
	
	len--; // Null-terminated string
	
	while (NULL != ep->handler) {
    3b32:	f5 01       	movw	r30, r10
    3b34:	80 81       	ld	r24, Z
    3b36:	91 81       	ldd	r25, Z+1	; 0x01
    3b38:	89 2b       	or	r24, r25
    3b3a:	09 f0       	breq	.+2      	; 0x3b3e <build_rsp+0xfc>
    3b3c:	95 cf       	rjmp	.-214    	; 0x3a68 <build_rsp+0x26>
		strncat(rsp, ep->core_attr, len);
		len -= strlen(ep->core_attr);
		
		ep++;
	}
}
    3b3e:	df 91       	pop	r29
    3b40:	cf 91       	pop	r28
    3b42:	1f 91       	pop	r17
    3b44:	0f 91       	pop	r16
    3b46:	ff 90       	pop	r15
    3b48:	ef 90       	pop	r14
    3b4a:	df 90       	pop	r13
    3b4c:	cf 90       	pop	r12
    3b4e:	bf 90       	pop	r11
    3b50:	af 90       	pop	r10
    3b52:	9f 90       	pop	r9
    3b54:	8f 90       	pop	r8
    3b56:	08 95       	ret

00003b58 <ep_setup>:
const uint16_t rsplen = 1500;
static char rsp[1500] = "";

void build_rsp(void);
void ep_setup(void) { // CoAP-Endpoints initialisieren und registrieren:
    build_rsp();
    3b58:	0e 94 21 1d 	call	0x3a42	; 0x3a42 <build_rsp>
}
    3b5c:	08 95       	ret

00003b5e <ee_init>:
			    )

void ee_init() {
	// Enable EE-Mapped access
//	console_print_P(PSTR("Initializing EEPROM.. "));
	NVM.CTRLB |= NVM_EEMAPEN_bm;
    3b5e:	e0 ec       	ldi	r30, 0xC0	; 192
    3b60:	f1 e0       	ldi	r31, 0x01	; 1
    3b62:	84 85       	ldd	r24, Z+12	; 0x0c
    3b64:	88 60       	ori	r24, 0x08	; 8
    3b66:	84 87       	std	Z+12, r24	; 0x0c
//	console_print_success_P(PSTR("ok\r\n"));
}
    3b68:	08 95       	ret

00003b6a <ee_isBusy>:
unsigned char ee_saveData(unsigned int eeprom_address, void* data, unsigned int dataLen, unsigned char waitForEnd) {
	return ee_saveDataEx(eeprom_address, data, dataLen, waitForEnd);
}

unsigned char ee_isBusy(void) {
	return ((NVM.STATUS & NVM_NVMBUSY_bm) || eew_busy) ? 1 : 0;
    3b6a:	80 91 cf 01 	lds	r24, 0x01CF
    3b6e:	87 fd       	sbrc	r24, 7
    3b70:	06 c0       	rjmp	.+12     	; 0x3b7e <ee_isBusy+0x14>
    3b72:	80 91 25 29 	lds	r24, 0x2925
    3b76:	20 e0       	ldi	r18, 0x00	; 0
    3b78:	30 e0       	ldi	r19, 0x00	; 0
    3b7a:	88 23       	and	r24, r24
    3b7c:	11 f0       	breq	.+4      	; 0x3b82 <ee_isBusy+0x18>
    3b7e:	21 e0       	ldi	r18, 0x01	; 1
    3b80:	30 e0       	ldi	r19, 0x00	; 0
}
    3b82:	82 2f       	mov	r24, r18
    3b84:	08 95       	ret

00003b86 <eew_feed>:
		eew_busy = 1;
		eew_feed(0);
	}
}

void eew_feed(unsigned char inInt) {
    3b86:	0f 93       	push	r16
    3b88:	1f 93       	push	r17
    3b8a:	08 2f       	mov	r16, r24
	Void_Function_Void tmp = eeCallback;	
    3b8c:	60 91 2a 29 	lds	r22, 0x292A
    3b90:	70 91 2b 29 	lds	r23, 0x292B
	
	if (eew_dataLen) { // Überhaupt noch Daten übrig..?
    3b94:	20 91 1c 29 	lds	r18, 0x291C
    3b98:	30 91 1d 29 	lds	r19, 0x291D
    3b9c:	21 15       	cp	r18, r1
    3b9e:	31 05       	cpc	r19, r1
    3ba0:	09 f4       	brne	.+2      	; 0x3ba4 <eew_feed+0x1e>
    3ba2:	9a c0       	rjmp	.+308    	; 0x3cd8 <eew_feed+0x152>
		// Interrupts aus:
		if (!inInt)
    3ba4:	88 23       	and	r24, r24
    3ba6:	09 f4       	brne	.+2      	; 0x3baa <eew_feed+0x24>
			cli();
    3ba8:	f8 94       	cli
		// Buffer sollte eigentlich nicht mit irgendwas gefüllt sein..
		if (NVM.STATUS & NVM_EELOAD_bm) {
    3baa:	80 91 cf 01 	lds	r24, 0x01CF
    3bae:	81 fd       	sbrc	r24, 1
    3bb0:	0f c0       	rjmp	.+30     	; 0x3bd0 <eew_feed+0x4a>
    3bb2:	10 91 22 29 	lds	r17, 0x2922
    3bb6:	a0 91 20 29 	lds	r26, 0x2920
    3bba:	b0 91 21 29 	lds	r27, 0x2921
    3bbe:	e0 91 1e 29 	lds	r30, 0x291E
    3bc2:	f0 91 1f 29 	lds	r31, 0x291F
    3bc6:	40 91 23 29 	lds	r20, 0x2923
    3bca:	50 91 24 29 	lds	r21, 0x2924
    3bce:	5e c0       	rjmp	.+188    	; 0x3c8c <eew_feed+0x106>
			// Buffer löschen:
			NVM.CMD = NVM_CMD_ERASE_EEPROM_BUFFER_gc;
    3bd0:	86 e3       	ldi	r24, 0x36	; 54
    3bd2:	e0 ec       	ldi	r30, 0xC0	; 192
    3bd4:	f1 e0       	ldi	r31, 0x01	; 1
    3bd6:	82 87       	std	Z+10, r24	; 0x0a
			NVM_EXEC();
    3bd8:	ef 93       	push	r30
    3bda:	ff 93       	push	r31
    3bdc:	0f 93       	push	r16
    3bde:	2f 93       	push	r18
    3be0:	eb ec       	ldi	r30, 0xCB	; 203
    3be2:	f1 e0       	ldi	r31, 0x01	; 1
    3be4:	08 ed       	ldi	r16, 0xD8	; 216
    3be6:	21 e0       	ldi	r18, 0x01	; 1
    3be8:	04 bf       	out	0x34, r16	; 52
    3bea:	20 83       	st	Z, r18
    3bec:	2f 91       	pop	r18
    3bee:	0f 91       	pop	r16
    3bf0:	ff 91       	pop	r31
    3bf2:	ef 91       	pop	r30
			while (NVM.STATUS & NVM_NVMBUSY_bm);
    3bf4:	80 91 cf 01 	lds	r24, 0x01CF
    3bf8:	87 fd       	sbrc	r24, 7
    3bfa:	fc cf       	rjmp	.-8      	; 0x3bf4 <eew_feed+0x6e>
    3bfc:	da cf       	rjmp	.-76     	; 0x3bb2 <eew_feed+0x2c>
		}
		
		while (eew_dataLen--) {												// So lange noch Daten übrig sind ..
			if (*eew_saveTo != *eew_readFrom) {								// Wenn die Daten an dieser Stelle unterschiedlich sind ..
    3bfe:	9c 91       	ld	r25, X
    3c00:	80 81       	ld	r24, Z
    3c02:	89 17       	cp	r24, r25
    3c04:	11 f0       	breq	.+4      	; 0x3c0a <eew_feed+0x84>
				*eew_saveTo = *eew_readFrom;								// .. schreiben wir die Daten ..
    3c06:	90 83       	st	Z, r25
    3c08:	11 e0       	ldi	r17, 0x01	; 1
		eew_busy = 1;
		eew_feed(0);
	}
}

void eew_feed(unsigned char inInt) {
    3c0a:	31 96       	adiw	r30, 0x01	; 1
    3c0c:	11 96       	adiw	r26, 0x01	; 1
				eew_needWrite = 1;											// .. und merken uns, dass wir schreiben müssen.
			}
			eew_saveTo++;													// Zum nächsten Byte gehen
			eew_readFrom++;													// .. auch bei den zu speichernden Daten.
			
			if (!(((unsigned int)eew_saveTo) & (EEPROM_PAGE_SIZE - 1)) ||	// Wenn wir das letzte Byte einer Seite geschrieben haben, speichern wir,
    3c0e:	cf 01       	movw	r24, r30
    3c10:	8f 71       	andi	r24, 0x1F	; 31
    3c12:	90 70       	andi	r25, 0x00	; 0
    3c14:	89 2b       	or	r24, r25
    3c16:	21 f0       	breq	.+8      	; 0x3c20 <eew_feed+0x9a>
    3c18:	21 15       	cp	r18, r1
    3c1a:	31 05       	cpc	r19, r1
    3c1c:	09 f0       	breq	.+2      	; 0x3c20 <eew_feed+0x9a>
    3c1e:	36 c0       	rjmp	.+108    	; 0x3c8c <eew_feed+0x106>
    3c20:	ca 01       	movw	r24, r20
    3c22:	80 96       	adiw	r24, 0x20	; 32
			    !eew_dataLen) {												// .. in jedem Fall jedoch, wenn es keine weiteren Daten mehr gibt.
				
				if (eew_needWrite) {										// Wenn wir Daten schreiben müssen, machen wir das.
    3c24:	11 23       	and	r17, r17
    3c26:	09 f4       	brne	.+2      	; 0x3c2a <eew_feed+0xa4>
    3c28:	30 c0       	rjmp	.+96     	; 0x3c8a <eew_feed+0x104>
    3c2a:	a0 93 20 29 	sts	0x2920, r26
    3c2e:	b0 93 21 29 	sts	0x2921, r27
    3c32:	e0 93 1e 29 	sts	0x291E, r30
    3c36:	f0 93 1f 29 	sts	0x291F, r31
    3c3a:	20 93 1c 29 	sts	0x291C, r18
    3c3e:	30 93 1d 29 	sts	0x291D, r19
					NVM.ADDR2 = 0;
    3c42:	e0 ec       	ldi	r30, 0xC0	; 192
    3c44:	f1 e0       	ldi	r31, 0x01	; 1
    3c46:	12 82       	std	Z+2, r1	; 0x02
					NVM.ADDR1 = (eew_pageAddr >> 8) & 0xff;
    3c48:	51 83       	std	Z+1, r21	; 0x01
					NVM.ADDR0 = (eew_pageAddr & 0xff);
    3c4a:	40 93 c0 01 	sts	0x01C0, r20
					// We are going to write stuff:
					eew_needWrite = 0;										// Wir haben fertig
    3c4e:	10 92 22 29 	sts	0x2922, r1
					eew_pageAddr += EEPROM_PAGE_SIZE;						// Eine Seite weiter
    3c52:	80 93 23 29 	sts	0x2923, r24
    3c56:	90 93 24 29 	sts	0x2924, r25
					// Give write command:
					NVM.CMD = NVM_CMD_ERASE_WRITE_EEPROM_PAGE_gc;
    3c5a:	85 e3       	ldi	r24, 0x35	; 53
    3c5c:	82 87       	std	Z+10, r24	; 0x0a
					NVM_EXEC();
    3c5e:	ef 93       	push	r30
    3c60:	ff 93       	push	r31
    3c62:	0f 93       	push	r16
    3c64:	2f 93       	push	r18
    3c66:	eb ec       	ldi	r30, 0xCB	; 203
    3c68:	f1 e0       	ldi	r31, 0x01	; 1
    3c6a:	08 ed       	ldi	r16, 0xD8	; 216
    3c6c:	21 e0       	ldi	r18, 0x01	; 1
    3c6e:	04 bf       	out	0x34, r16	; 52
    3c70:	20 83       	st	Z, r18
    3c72:	2f 91       	pop	r18
    3c74:	0f 91       	pop	r16
    3c76:	ff 91       	pop	r31
    3c78:	ef 91       	pop	r30
					// Enable Interrupt AFTER command to NVM:
					NVM.INTCTRL |= NVM_EELVL_MED_gc;
    3c7a:	80 91 cd 01 	lds	r24, 0x01CD
    3c7e:	82 60       	ori	r24, 0x02	; 2
    3c80:	85 87       	std	Z+13, r24	; 0x0d
					
					if (!inInt)
    3c82:	00 23       	and	r16, r16
    3c84:	a1 f5       	brne	.+104    	; 0x3cee <eew_feed+0x168>
						sei();
    3c86:	78 94       	sei
    3c88:	32 c0       	rjmp	.+100    	; 0x3cee <eew_feed+0x168>
					return;													// Okay, we are done for now.
				} else {
					// Der Puffer wurde nie beschrieben, gleich weiter machen. Wir müssen aber trotzdem zur nächsten Seite:
					eew_pageAddr += EEPROM_PAGE_SIZE;
    3c8a:	ac 01       	movw	r20, r24
    3c8c:	21 50       	subi	r18, 0x01	; 1
    3c8e:	30 40       	sbci	r19, 0x00	; 0
			NVM.CMD = NVM_CMD_ERASE_EEPROM_BUFFER_gc;
			NVM_EXEC();
			while (NVM.STATUS & NVM_NVMBUSY_bm);
		}
		
		while (eew_dataLen--) {												// So lange noch Daten übrig sind ..
    3c90:	8f ef       	ldi	r24, 0xFF	; 255
    3c92:	2f 3f       	cpi	r18, 0xFF	; 255
    3c94:	38 07       	cpc	r19, r24
    3c96:	09 f0       	breq	.+2      	; 0x3c9a <eew_feed+0x114>
    3c98:	b2 cf       	rjmp	.-156    	; 0x3bfe <eew_feed+0x78>
    3c9a:	10 93 22 29 	sts	0x2922, r17
    3c9e:	a0 93 20 29 	sts	0x2920, r26
    3ca2:	b0 93 21 29 	sts	0x2921, r27
    3ca6:	e0 93 1e 29 	sts	0x291E, r30
    3caa:	f0 93 1f 29 	sts	0x291F, r31
    3cae:	40 93 23 29 	sts	0x2923, r20
    3cb2:	50 93 24 29 	sts	0x2924, r21
    3cb6:	20 93 1c 29 	sts	0x291C, r18
    3cba:	30 93 1d 29 	sts	0x291D, r19
					// Der Puffer wurde nie beschrieben, gleich weiter machen. Wir müssen aber trotzdem zur nächsten Seite:
					eew_pageAddr += EEPROM_PAGE_SIZE;
				}
			}
		}
		if (tmp) {
    3cbe:	61 15       	cp	r22, r1
    3cc0:	71 05       	cpc	r23, r1
    3cc2:	31 f0       	breq	.+12     	; 0x3cd0 <eew_feed+0x14a>
			eeCallback = 0;
    3cc4:	10 92 2a 29 	sts	0x292A, r1
    3cc8:	10 92 2b 29 	sts	0x292B, r1
			tmp();
    3ccc:	fb 01       	movw	r30, r22
    3cce:	19 95       	eicall
		}
		if (!inInt)
    3cd0:	00 23       	and	r16, r16
    3cd2:	59 f4       	brne	.+22     	; 0x3cea <eew_feed+0x164>
			sei();
    3cd4:	78 94       	sei
    3cd6:	09 c0       	rjmp	.+18     	; 0x3cea <eew_feed+0x164>
		eew_busy = 0; // Nichts mehr zu tun -> Wir mussten überhaupt nichts schreiben. Sonst wären wir ja oben per RETURN ausgestiegen.
	} else {
		if (tmp) {
    3cd8:	61 15       	cp	r22, r1
    3cda:	71 05       	cpc	r23, r1
    3cdc:	31 f0       	breq	.+12     	; 0x3cea <eew_feed+0x164>
			eeCallback = 0;
    3cde:	10 92 2a 29 	sts	0x292A, r1
    3ce2:	10 92 2b 29 	sts	0x292B, r1
			tmp();
    3ce6:	fb 01       	movw	r30, r22
    3ce8:	19 95       	eicall
		}
		eew_busy = 0;
    3cea:	10 92 25 29 	sts	0x2925, r1
		// Done writing data
	}
}
    3cee:	1f 91       	pop	r17
    3cf0:	0f 91       	pop	r16
    3cf2:	08 95       	ret

00003cf4 <ee_asyncWriteEx>:

void ee_asyncWrite(unsigned int eeprom_address, void* data, unsigned int dataLen) {
	return ee_asyncWriteEx(eeprom_address, data, dataLen, 0);
}

void ee_asyncWriteEx(unsigned int eeprom_address, void* data, unsigned int dataLen, Void_Function_Void callback) {
    3cf4:	fc 01       	movw	r30, r24
	if (!dataLen)
    3cf6:	41 15       	cp	r20, r1
    3cf8:	51 05       	cpc	r21, r1
    3cfa:	61 f1       	breq	.+88     	; 0x3d54 <ee_asyncWriteEx+0x60>
		return;
	if (!eew_busy) {
    3cfc:	80 91 25 29 	lds	r24, 0x2925
    3d00:	88 23       	and	r24, r24
    3d02:	41 f5       	brne	.+80     	; 0x3d54 <ee_asyncWriteEx+0x60>
		eeCallback = callback;
    3d04:	20 93 2a 29 	sts	0x292A, r18
    3d08:	30 93 2b 29 	sts	0x292B, r19
		eew_pageAddr = eeprom_address;
    3d0c:	e0 93 23 29 	sts	0x2923, r30
    3d10:	f0 93 24 29 	sts	0x2924, r31
		eew_saveTo = (unsigned char*)(eeprom_address + MAPPED_EEPROM_START);
    3d14:	e0 50       	subi	r30, 0x00	; 0
    3d16:	f0 4f       	sbci	r31, 0xF0	; 240
    3d18:	e0 93 1e 29 	sts	0x291E, r30
    3d1c:	f0 93 1f 29 	sts	0x291F, r31
    3d20:	e0 50       	subi	r30, 0x00	; 0
    3d22:	f0 41       	sbci	r31, 0x10	; 16
		eew_readFrom = (unsigned char*)data;
    3d24:	60 93 20 29 	sts	0x2920, r22
    3d28:	70 93 21 29 	sts	0x2921, r23
		eew_needWrite = 0;
    3d2c:	10 92 22 29 	sts	0x2922, r1
		eew_address = eeprom_address;
    3d30:	e0 93 26 29 	sts	0x2926, r30
    3d34:	f0 93 27 29 	sts	0x2927, r31
		eew_memPtr = (unsigned char*)data;
    3d38:	60 93 28 29 	sts	0x2928, r22
    3d3c:	70 93 29 29 	sts	0x2929, r23
		eew_dataLen = dataLen;
    3d40:	40 93 1c 29 	sts	0x291C, r20
    3d44:	50 93 1d 29 	sts	0x291D, r21
		// Start the whole process
		eew_busy = 1;
    3d48:	81 e0       	ldi	r24, 0x01	; 1
    3d4a:	80 93 25 29 	sts	0x2925, r24
		eew_feed(0);
    3d4e:	80 e0       	ldi	r24, 0x00	; 0
    3d50:	0e 94 c3 1d 	call	0x3b86	; 0x3b86 <eew_feed>
    3d54:	08 95       	ret

00003d56 <ee_asyncWrite>:
}

void eew_feed(unsigned char inInt);

void ee_asyncWrite(unsigned int eeprom_address, void* data, unsigned int dataLen) {
	return ee_asyncWriteEx(eeprom_address, data, dataLen, 0);
    3d56:	20 e0       	ldi	r18, 0x00	; 0
    3d58:	30 e0       	ldi	r19, 0x00	; 0
    3d5a:	0e 94 7a 1e 	call	0x3cf4	; 0x3cf4 <ee_asyncWriteEx>
}
    3d5e:	08 95       	ret

00003d60 <__vector_32>:
		eew_busy = 0;
		// Done writing data
	}
}

ISR(NVM_EE_vect) { // __attribute__((section ("irq_handlers"))) {
    3d60:	1f 92       	push	r1
    3d62:	0f 92       	push	r0
    3d64:	0f b6       	in	r0, 0x3f	; 63
    3d66:	0f 92       	push	r0
    3d68:	08 b6       	in	r0, 0x38	; 56
    3d6a:	0f 92       	push	r0
    3d6c:	09 b6       	in	r0, 0x39	; 57
    3d6e:	0f 92       	push	r0
    3d70:	0b b6       	in	r0, 0x3b	; 59
    3d72:	0f 92       	push	r0
    3d74:	11 24       	eor	r1, r1
    3d76:	18 be       	out	0x38, r1	; 56
    3d78:	19 be       	out	0x39, r1	; 57
    3d7a:	1b be       	out	0x3b, r1	; 59
    3d7c:	2f 93       	push	r18
    3d7e:	3f 93       	push	r19
    3d80:	4f 93       	push	r20
    3d82:	5f 93       	push	r21
    3d84:	6f 93       	push	r22
    3d86:	7f 93       	push	r23
    3d88:	8f 93       	push	r24
    3d8a:	9f 93       	push	r25
    3d8c:	af 93       	push	r26
    3d8e:	bf 93       	push	r27
    3d90:	ef 93       	push	r30
    3d92:	ff 93       	push	r31
	// Disable Interrupt:
	NVM.INTCTRL &= ~NVM_EELVL_gm;
    3d94:	e0 ec       	ldi	r30, 0xC0	; 192
    3d96:	f1 e0       	ldi	r31, 0x01	; 1
    3d98:	85 85       	ldd	r24, Z+13	; 0x0d
    3d9a:	8c 7f       	andi	r24, 0xFC	; 252
    3d9c:	85 87       	std	Z+13, r24	; 0x0d
	// Try feeding the next data sequence (interrupt might be re-enabled by this):
	eew_feed(1);
    3d9e:	81 e0       	ldi	r24, 0x01	; 1
    3da0:	0e 94 c3 1d 	call	0x3b86	; 0x3b86 <eew_feed>
}
    3da4:	ff 91       	pop	r31
    3da6:	ef 91       	pop	r30
    3da8:	bf 91       	pop	r27
    3daa:	af 91       	pop	r26
    3dac:	9f 91       	pop	r25
    3dae:	8f 91       	pop	r24
    3db0:	7f 91       	pop	r23
    3db2:	6f 91       	pop	r22
    3db4:	5f 91       	pop	r21
    3db6:	4f 91       	pop	r20
    3db8:	3f 91       	pop	r19
    3dba:	2f 91       	pop	r18
    3dbc:	0f 90       	pop	r0
    3dbe:	0b be       	out	0x3b, r0	; 59
    3dc0:	0f 90       	pop	r0
    3dc2:	09 be       	out	0x39, r0	; 57
    3dc4:	0f 90       	pop	r0
    3dc6:	08 be       	out	0x38, r0	; 56
    3dc8:	0f 90       	pop	r0
    3dca:	0f be       	out	0x3f, r0	; 63
    3dcc:	0f 90       	pop	r0
    3dce:	1f 90       	pop	r1
    3dd0:	18 95       	reti

00003dd2 <ee_loadData>:

void ee_loadData(unsigned int eeprom_address, void* data, unsigned int dataLen) {
    3dd2:	9c 01       	movw	r18, r24
	unsigned char* eedata = (unsigned char*)(eeprom_address + MAPPED_EEPROM_START);
	unsigned char* eeto = data;
	unsigned int len = dataLen;
	while (NVM.STATUS & NVM_NVMBUSY_bm) { }
    3dd4:	80 91 cf 01 	lds	r24, 0x01CF
    3dd8:	87 fd       	sbrc	r24, 7
    3dda:	fc cf       	rjmp	.-8      	; 0x3dd4 <ee_loadData+0x2>
	// Try feeding the next data sequence (interrupt might be re-enabled by this):
	eew_feed(1);
}

void ee_loadData(unsigned int eeprom_address, void* data, unsigned int dataLen) {
	unsigned char* eedata = (unsigned char*)(eeprom_address + MAPPED_EEPROM_START);
    3ddc:	d9 01       	movw	r26, r18
    3dde:	a0 50       	subi	r26, 0x00	; 0
    3de0:	b0 4f       	sbci	r27, 0xF0	; 240
	unsigned char* eeto = data;
    3de2:	fb 01       	movw	r30, r22
    3de4:	04 c0       	rjmp	.+8      	; 0x3dee <ee_loadData+0x1c>
	unsigned int len = dataLen;
	while (NVM.STATUS & NVM_NVMBUSY_bm) { }
	while (len--)
		*eeto++ = *eedata++;
    3de6:	8d 91       	ld	r24, X+
    3de8:	81 93       	st	Z+, r24
    3dea:	41 50       	subi	r20, 0x01	; 1
    3dec:	50 40       	sbci	r21, 0x00	; 0
void ee_loadData(unsigned int eeprom_address, void* data, unsigned int dataLen) {
	unsigned char* eedata = (unsigned char*)(eeprom_address + MAPPED_EEPROM_START);
	unsigned char* eeto = data;
	unsigned int len = dataLen;
	while (NVM.STATUS & NVM_NVMBUSY_bm) { }
	while (len--)
    3dee:	41 15       	cp	r20, r1
    3df0:	51 05       	cpc	r21, r1
    3df2:	c9 f7       	brne	.-14     	; 0x3de6 <ee_loadData+0x14>
		*eeto++ = *eedata++;
}
    3df4:	08 95       	ret

00003df6 <ee_saveDataEx>:

unsigned char ee_isBusy(void) {
	return ((NVM.STATUS & NVM_NVMBUSY_bm) || eew_busy) ? 1 : 0;
}

unsigned char ee_saveDataEx(unsigned int eeprom_address, void* data, unsigned int dataLen, unsigned char waitForEnd) {
    3df6:	df 92       	push	r13
    3df8:	ef 92       	push	r14
    3dfa:	ff 92       	push	r15
    3dfc:	0f 93       	push	r16
    3dfe:	1f 93       	push	r17
    3e00:	cf 93       	push	r28
    3e02:	df 93       	push	r29
    3e04:	ec 01       	movw	r28, r24
    3e06:	8b 01       	movw	r16, r22
    3e08:	7a 01       	movw	r14, r20
    3e0a:	d2 2e       	mov	r13, r18
	// Wenn wir nicht warten, müssen wir evtl abbrechen:
	if (eew_busy && !waitForEnd)
    3e0c:	80 91 25 29 	lds	r24, 0x2925
    3e10:	88 23       	and	r24, r24
    3e12:	31 f0       	breq	.+12     	; 0x3e20 <ee_saveDataEx+0x2a>
    3e14:	22 23       	and	r18, r18
    3e16:	21 f4       	brne	.+8      	; 0x3e20 <ee_saveDataEx+0x2a>
    3e18:	80 e0       	ldi	r24, 0x00	; 0
    3e1a:	15 c0       	rjmp	.+42     	; 0x3e46 <ee_saveDataEx+0x50>
		return 0;
	
	// Warten, dass die Async-Routine "frei" ist, müssen wir eh:
	while (eew_busy)
		check_timers();
    3e1c:	0e 94 f5 03 	call	0x7ea	; 0x7ea <check_timers>
	// Wenn wir nicht warten, müssen wir evtl abbrechen:
	if (eew_busy && !waitForEnd)
		return 0;
	
	// Warten, dass die Async-Routine "frei" ist, müssen wir eh:
	while (eew_busy)
    3e20:	80 91 25 29 	lds	r24, 0x2925
    3e24:	88 23       	and	r24, r24
    3e26:	d1 f7       	brne	.-12     	; 0x3e1c <ee_saveDataEx+0x26>
		check_timers();
	
	ee_asyncWrite(eeprom_address, data, dataLen);
    3e28:	ce 01       	movw	r24, r28
    3e2a:	b8 01       	movw	r22, r16
    3e2c:	a7 01       	movw	r20, r14
    3e2e:	0e 94 ab 1e 	call	0x3d56	; 0x3d56 <ee_asyncWrite>
	
	if (waitForEnd)	{ // Sollen wir auf das Ende warten?
    3e32:	dd 20       	and	r13, r13
    3e34:	19 f4       	brne	.+6      	; 0x3e3c <ee_saveDataEx+0x46>
    3e36:	06 c0       	rjmp	.+12     	; 0x3e44 <ee_saveDataEx+0x4e>
		// Warten, bis alles vorbei ist:
		while (eew_busy)
			check_timers();
    3e38:	0e 94 f5 03 	call	0x7ea	; 0x7ea <check_timers>
	
	ee_asyncWrite(eeprom_address, data, dataLen);
	
	if (waitForEnd)	{ // Sollen wir auf das Ende warten?
		// Warten, bis alles vorbei ist:
		while (eew_busy)
    3e3c:	80 91 25 29 	lds	r24, 0x2925
    3e40:	88 23       	and	r24, r24
    3e42:	d1 f7       	brne	.-12     	; 0x3e38 <ee_saveDataEx+0x42>
    3e44:	81 e0       	ldi	r24, 0x01	; 1
			check_timers();
	}
	
	return 1;
}
    3e46:	df 91       	pop	r29
    3e48:	cf 91       	pop	r28
    3e4a:	1f 91       	pop	r17
    3e4c:	0f 91       	pop	r16
    3e4e:	ff 90       	pop	r15
    3e50:	ef 90       	pop	r14
    3e52:	df 90       	pop	r13
    3e54:	08 95       	ret

00003e56 <ee_saveData>:
	NVM.CTRLB |= NVM_EEMAPEN_bm;
//	console_print_success_P(PSTR("ok\r\n"));
}

unsigned char ee_saveData(unsigned int eeprom_address, void* data, unsigned int dataLen, unsigned char waitForEnd) {
	return ee_saveDataEx(eeprom_address, data, dataLen, waitForEnd);
    3e56:	0e 94 fb 1e 	call	0x3df6	; 0x3df6 <ee_saveDataEx>
}
    3e5a:	08 95       	ret

00003e5c <set_writeSettingChecksum>:
		}
	}
	return testResult;
}

void set_writeSettingChecksum(unsigned char MAJOR, unsigned char MINOR, unsigned char REVISION, unsigned int sizeOfSetting, void * settingStruct) {
    3e5c:	cf 92       	push	r12
    3e5e:	df 92       	push	r13
    3e60:	ef 92       	push	r14
    3e62:	ff 92       	push	r15
    3e64:	0f 93       	push	r16
    3e66:	1f 93       	push	r17
    3e68:	cf 93       	push	r28
    3e6a:	df 93       	push	r29
    3e6c:	69 01       	movw	r12, r18
    3e6e:	e8 01       	movw	r28, r16
	unsigned short int crc16;
	unsigned char * curr = (unsigned char*)settingStruct;
    3e70:	78 01       	movw	r14, r16
	unsigned short int len;
	MS_SETTINGS_SUPPL_t * settings = (MS_SETTINGS_SUPPL_t*)settingStruct;
	
	// Okay, die Struktur muss auf jeden Fall schonmal die aktuellen Daten enthalten:
	len = sizeOfSetting - 2; // Ohne Prüfsumme am Ende
    3e72:	89 01       	movw	r16, r18
    3e74:	02 50       	subi	r16, 0x02	; 2
    3e76:	10 40       	sbci	r17, 0x00	; 0
	settings->setting_structLen = len;
    3e78:	0f 83       	std	Y+7, r16	; 0x07
    3e7a:	18 87       	std	Y+8, r17	; 0x08
	
	// Korrekte Daten in Struktur setzen:
	settings->majorVersion = MAJOR;
    3e7c:	8c 83       	std	Y+4, r24	; 0x04
	settings->minorVersion = MINOR;
    3e7e:	6d 83       	std	Y+5, r22	; 0x05
	settings->revision = REVISION;
    3e80:	4e 83       	std	Y+6, r20	; 0x06
    3e82:	8f ef       	ldi	r24, 0xFF	; 255
    3e84:	9f ef       	ldi	r25, 0xFF	; 255
    3e86:	08 c0       	rjmp	.+16     	; 0x3e98 <set_writeSettingChecksum+0x3c>
	// Länge wird nicht mehr mit einberechnet:
	crc16 = 0xffff;
	
	// Bisherige Daten verarbeiten, Länge wie im EEPROM abgelegt.
	while (len--)
		crc16 = crc_calcCRC16r(crc16, *curr++);
    3e88:	f7 01       	movw	r30, r14
    3e8a:	61 91       	ld	r22, Z+
    3e8c:	7f 01       	movw	r14, r30
    3e8e:	70 e0       	ldi	r23, 0x00	; 0
    3e90:	0e 94 83 13 	call	0x2706	; 0x2706 <crc_calcCRC16r>
    3e94:	01 50       	subi	r16, 0x01	; 1
    3e96:	10 40       	sbci	r17, 0x00	; 0
	
	// Länge wird nicht mehr mit einberechnet:
	crc16 = 0xffff;
	
	// Bisherige Daten verarbeiten, Länge wie im EEPROM abgelegt.
	while (len--)
    3e98:	01 15       	cp	r16, r1
    3e9a:	11 05       	cpc	r17, r1
    3e9c:	a9 f7       	brne	.-22     	; 0x3e88 <set_writeSettingChecksum+0x2c>
		crc16 = crc_calcCRC16r(crc16, *curr++);
	
	// Daten sind per Definition jetzt valide:
	unsigned short int * savedCRC = (unsigned short int*)(settingStruct + sizeOfSetting - 2);
	*savedCRC = crc16;
    3e9e:	cc 0d       	add	r28, r12
    3ea0:	dd 1d       	adc	r29, r13
    3ea2:	22 97       	sbiw	r28, 0x02	; 2
    3ea4:	88 83       	st	Y, r24
    3ea6:	99 83       	std	Y+1, r25	; 0x01
}
    3ea8:	df 91       	pop	r29
    3eaa:	cf 91       	pop	r28
    3eac:	1f 91       	pop	r17
    3eae:	0f 91       	pop	r16
    3eb0:	ff 90       	pop	r15
    3eb2:	ef 90       	pop	r14
    3eb4:	df 90       	pop	r13
    3eb6:	cf 90       	pop	r12
    3eb8:	08 95       	ret

00003eba <set_saveSettings>:

void set_saveSettings(void * p) {
    3eba:	0f 93       	push	r16
    3ebc:	1f 93       	push	r17
	if (settings.modified) {
    3ebe:	80 91 1b 2a 	lds	r24, 0x2A1B
    3ec2:	88 23       	and	r24, r24
    3ec4:	f9 f0       	breq	.+62     	; 0x3f04 <set_saveSettings+0x4a>
		// Das müssen wir zuerst machen, sonst speichern wir das Dirty-Flag als 1!
		settings.modified = 0;
    3ec6:	10 92 1b 2a 	sts	0x2A1B, r1
		
		// Prüfsumme ergänzen:
		set_writeSettingChecksum(settings.majorVersion, settings.minorVersion, settings.revision, sizeof(SETTING_t), &settings);
    3eca:	80 91 16 2a 	lds	r24, 0x2A16
    3ece:	60 91 17 2a 	lds	r22, 0x2A17
    3ed2:	40 91 18 2a 	lds	r20, 0x2A18
    3ed6:	22 e2       	ldi	r18, 0x22	; 34
    3ed8:	30 e0       	ldi	r19, 0x00	; 0
    3eda:	02 e1       	ldi	r16, 0x12	; 18
    3edc:	1a e2       	ldi	r17, 0x2A	; 42
    3ede:	0e 94 2e 1f 	call	0x3e5c	; 0x3e5c <set_writeSettingChecksum>
		
		// Und ins EEPROM damit:
		if (ee_saveDataEx(EEPROM_SETTINGS_ADDR, &settings, sizeof(SETTING_t), 0)) {
    3ee2:	80 e1       	ldi	r24, 0x10	; 16
    3ee4:	90 e0       	ldi	r25, 0x00	; 0
    3ee6:	b8 01       	movw	r22, r16
    3ee8:	42 e2       	ldi	r20, 0x22	; 34
    3eea:	50 e0       	ldi	r21, 0x00	; 0
    3eec:	20 e0       	ldi	r18, 0x00	; 0
    3eee:	0e 94 fb 1e 	call	0x3df6	; 0x3df6 <ee_saveDataEx>
    3ef2:	88 23       	and	r24, r24
    3ef4:	21 f0       	breq	.+8      	; 0x3efe <set_saveSettings+0x44>
			
			ON(LED3);
    3ef6:	84 e0       	ldi	r24, 0x04	; 4
    3ef8:	0e 94 a4 07 	call	0xf48	; 0xf48 <hw_setOn>
    3efc:	03 c0       	rjmp	.+6      	; 0x3f04 <set_saveSettings+0x4a>
		} else {
			// Okay, nochmal versuchen. EEPROM hat gerade zu tun.
			settings.modified = 1;
    3efe:	81 e0       	ldi	r24, 0x01	; 1
    3f00:	80 93 1b 2a 	sts	0x2A1B, r24
		}
	}
}
    3f04:	1f 91       	pop	r17
    3f06:	0f 91       	pop	r16
    3f08:	08 95       	ret

00003f0a <set_checkSettingChecksum>:
SETTING_t settings;

#define EEPROM_SETTINGS_ADDR	0x10

// Macht ein Update der Struktur und prüft gleichzeitig, ob die Einstellungen zurückgesetzt werden müssen:
unsigned char set_checkSettingChecksum(unsigned long int settingsCompatibleVersion, unsigned short int sizeOfSetting, void * settingStruct) {
    3f0a:	2f 92       	push	r2
    3f0c:	3f 92       	push	r3
    3f0e:	4f 92       	push	r4
    3f10:	5f 92       	push	r5
    3f12:	6f 92       	push	r6
    3f14:	7f 92       	push	r7
    3f16:	8f 92       	push	r8
    3f18:	9f 92       	push	r9
    3f1a:	af 92       	push	r10
    3f1c:	bf 92       	push	r11
    3f1e:	cf 92       	push	r12
    3f20:	df 92       	push	r13
    3f22:	ef 92       	push	r14
    3f24:	ff 92       	push	r15
    3f26:	0f 93       	push	r16
    3f28:	1f 93       	push	r17
    3f2a:	cf 93       	push	r28
    3f2c:	df 93       	push	r29
    3f2e:	1b 01       	movw	r2, r22
    3f30:	2c 01       	movw	r4, r24
    3f32:	6a 01       	movw	r12, r20
    3f34:	89 01       	movw	r16, r18
	//SETTING_NAME.moduleID = (SETTING_NAME.moduleID & 0x7fffff) | (I_AM_DEVICE_TYPE << 20); // Modul-ID besteht aus allem außer dem obersten Bit!
	
	// Länge wird nicht mehr mit einberechnet:
	crc16 = 0xffff;
	
	len = settings->setting_structLen;
    3f36:	f9 01       	movw	r30, r18
    3f38:	87 81       	ldd	r24, Z+7	; 0x07
    3f3a:	90 85       	ldd	r25, Z+8	; 0x08
	
	// Maximal so lang wie die Struktur überhaupt ist (ohne CRC am Ende)
	if (len > (sizeOfSetting - 2)) {
    3f3c:	2e ef       	ldi	r18, 0xFE	; 254
    3f3e:	82 2e       	mov	r8, r18
    3f40:	2f ef       	ldi	r18, 0xFF	; 255
    3f42:	92 2e       	mov	r9, r18
    3f44:	84 0e       	add	r8, r20
    3f46:	95 1e       	adc	r9, r21
    3f48:	74 01       	movw	r14, r8
    3f4a:	88 15       	cp	r24, r8
    3f4c:	99 05       	cpc	r25, r9
    3f4e:	08 f4       	brcc	.+2      	; 0x3f52 <set_checkSettingChecksum+0x48>
    3f50:	7c 01       	movw	r14, r24
    3f52:	58 01       	movw	r10, r16
    3f54:	e7 01       	movw	r28, r14
    3f56:	2f ef       	ldi	r18, 0xFF	; 255
    3f58:	3f ef       	ldi	r19, 0xFF	; 255
    3f5a:	09 c0       	rjmp	.+18     	; 0x3f6e <set_checkSettingChecksum+0x64>
		len = sizeOfSetting - 2;
	}
	
	// Bisherige Daten verarbeiten, Länge wie im EEPROM abgelegt.
	while (len--)
		crc16 = crc_calcCRC16r(crc16, *curr++);
    3f5c:	f5 01       	movw	r30, r10
    3f5e:	61 91       	ld	r22, Z+
    3f60:	5f 01       	movw	r10, r30
    3f62:	c9 01       	movw	r24, r18
    3f64:	70 e0       	ldi	r23, 0x00	; 0
    3f66:	0e 94 83 13 	call	0x2706	; 0x2706 <crc_calcCRC16r>
    3f6a:	9c 01       	movw	r18, r24
    3f6c:	21 97       	sbiw	r28, 0x01	; 1
	if (len > (sizeOfSetting - 2)) {
		len = sizeOfSetting - 2;
	}
	
	// Bisherige Daten verarbeiten, Länge wie im EEPROM abgelegt.
	while (len--)
    3f6e:	20 97       	sbiw	r28, 0x00	; 0
    3f70:	a9 f7       	brne	.-22     	; 0x3f5c <set_checkSettingChecksum+0x52>
    3f72:	39 01       	movw	r6, r18
    3f74:	e0 0e       	add	r14, r16
    3f76:	f1 1e       	adc	r15, r17
		crc16 = crc_calcCRC16r(crc16, *curr++);
	
	// Gucken, ob die CRC an dieser Stelle passt (evtl erst die halbe Struktur gelesen)
	if (crc16 == *((unsigned short int *)curr)) {
    3f78:	f7 01       	movw	r30, r14
    3f7a:	a0 80       	ld	r10, Z
    3f7c:	b1 80       	ldd	r11, Z+1	; 0x01
		crc_ok = 1;
	} else {
		crc_ok = 0;
	}
	
	if ((sizeOfSetting - 2) < settings->setting_structLen) {
    3f7e:	f8 01       	movw	r30, r16
    3f80:	87 81       	ldd	r24, Z+7	; 0x07
    3f82:	90 85       	ldd	r25, Z+8	; 0x08
    3f84:	88 16       	cp	r8, r24
    3f86:	99 06       	cpc	r9, r25
    3f88:	08 f4       	brcc	.+2      	; 0x3f8c <set_checkSettingChecksum+0x82>
    3f8a:	7c c0       	rjmp	.+248    	; 0x4084 <__stack+0x85>
		crc_ok = 0;
		return 0;
//		crc16 = SETTING_NAME.crc16 - 1;					...ALT...
	} else {
		// Ist noch was übrig..?
		len = (sizeOfSetting - 2) - settings->setting_structLen; // Wie viele Bytes hat die neue Version mehr als die alte..?
    3f8c:	e6 01       	movw	r28, r12
    3f8e:	c8 1b       	sub	r28, r24
    3f90:	d9 0b       	sbc	r29, r25
    3f92:	22 97       	sbiw	r28, 0x02	; 2
    3f94:	09 c0       	rjmp	.+18     	; 0x3fa8 <set_checkSettingChecksum+0x9e>
		
		// Wir gucken mal, ob da noch was zu tun ist:
		while (len--)
			crc16 = crc_calcCRC16r(crc16, *curr++);
    3f96:	f7 01       	movw	r30, r14
    3f98:	61 91       	ld	r22, Z+
    3f9a:	7f 01       	movw	r14, r30
    3f9c:	c9 01       	movw	r24, r18
    3f9e:	70 e0       	ldi	r23, 0x00	; 0
    3fa0:	0e 94 83 13 	call	0x2706	; 0x2706 <crc_calcCRC16r>
    3fa4:	9c 01       	movw	r18, r24
    3fa6:	21 97       	sbiw	r28, 0x01	; 1
	} else {
		// Ist noch was übrig..?
		len = (sizeOfSetting - 2) - settings->setting_structLen; // Wie viele Bytes hat die neue Version mehr als die alte..?
		
		// Wir gucken mal, ob da noch was zu tun ist:
		while (len--)
    3fa8:	20 97       	sbiw	r28, 0x00	; 0
    3faa:	a9 f7       	brne	.-22     	; 0x3f96 <set_checkSettingChecksum+0x8c>
	}
	
	unsigned short int * structCrc = (unsigned short int*)(settingStruct + sizeOfSetting - 2);
	
	// Wenn die CRC jetzt stimmt UND die Länge identisch ist, ist alles in Ordnung:
	if ((crc16 == *structCrc) && 
    3fac:	f8 01       	movw	r30, r16
    3fae:	ec 0d       	add	r30, r12
    3fb0:	fd 1d       	adc	r31, r13
    3fb2:	32 97       	sbiw	r30, 0x02	; 2
    3fb4:	80 81       	ld	r24, Z
    3fb6:	91 81       	ldd	r25, Z+1	; 0x01
    3fb8:	28 17       	cp	r18, r24
    3fba:	39 07       	cpc	r19, r25
    3fbc:	51 f5       	brne	.+84     	; 0x4012 <__stack+0x13>
    3fbe:	f8 01       	movw	r30, r16
    3fc0:	87 81       	ldd	r24, Z+7	; 0x07
    3fc2:	90 85       	ldd	r25, Z+8	; 0x08
    3fc4:	02 96       	adiw	r24, 0x02	; 2
    3fc6:	c8 16       	cp	r12, r24
    3fc8:	d9 06       	cpc	r13, r25
    3fca:	19 f5       	brne	.+70     	; 0x4012 <__stack+0x13>
    3fcc:	60 e0       	ldi	r22, 0x00	; 0
    3fce:	84 81       	ldd	r24, Z+4	; 0x04
    3fd0:	90 e0       	ldi	r25, 0x00	; 0
    3fd2:	a0 e0       	ldi	r26, 0x00	; 0
    3fd4:	b0 e0       	ldi	r27, 0x00	; 0
    3fd6:	dc 01       	movw	r26, r24
    3fd8:	99 27       	eor	r25, r25
    3fda:	88 27       	eor	r24, r24
    3fdc:	25 81       	ldd	r18, Z+5	; 0x05
    3fde:	30 e0       	ldi	r19, 0x00	; 0
    3fe0:	40 e0       	ldi	r20, 0x00	; 0
    3fe2:	50 e0       	ldi	r21, 0x00	; 0
    3fe4:	54 2f       	mov	r21, r20
    3fe6:	43 2f       	mov	r20, r19
    3fe8:	32 2f       	mov	r19, r18
    3fea:	22 27       	eor	r18, r18
    3fec:	82 2b       	or	r24, r18
    3fee:	93 2b       	or	r25, r19
    3ff0:	a4 2b       	or	r26, r20
    3ff2:	b5 2b       	or	r27, r21
    3ff4:	26 81       	ldd	r18, Z+6	; 0x06
    3ff6:	30 e0       	ldi	r19, 0x00	; 0
    3ff8:	40 e0       	ldi	r20, 0x00	; 0
    3ffa:	50 e0       	ldi	r21, 0x00	; 0
    3ffc:	82 2b       	or	r24, r18
    3ffe:	93 2b       	or	r25, r19
    4000:	a4 2b       	or	r26, r20
    4002:	b5 2b       	or	r27, r21
    4004:	82 15       	cp	r24, r2
    4006:	93 05       	cpc	r25, r3
    4008:	a4 05       	cpc	r26, r4
    400a:	b5 05       	cpc	r27, r5
    400c:	e0 f1       	brcs	.+120    	; 0x4086 <__stack+0x87>
    400e:	61 e0       	ldi	r22, 0x01	; 1
    4010:	3a c0       	rjmp	.+116    	; 0x4086 <__stack+0x87>
		}
	} else {
		// Auf die Anfangsposition gehen, an der die neuen Daten kommen müssen:
		
		// Mal gucken, ob die erste (halbe) Prüfung der Strukturdaten erfolgreich war und die Struktur gewachsen ist:
		if (crc_ok && ((sizeOfSetting - 2) > settings->setting_structLen)) {
    4012:	6a 14       	cp	r6, r10
    4014:	7b 04       	cpc	r7, r11
    4016:	b1 f5       	brne	.+108    	; 0x4084 <__stack+0x85>
    4018:	f8 01       	movw	r30, r16
    401a:	47 81       	ldd	r20, Z+7	; 0x07
    401c:	50 85       	ldd	r21, Z+8	; 0x08
    401e:	48 15       	cp	r20, r8
    4020:	59 05       	cpc	r21, r9
    4022:	80 f5       	brcc	.+96     	; 0x4084 <__stack+0x85>
			
			// Okay, dann versuchen wir jetzt ein Update der Struktur von Version x.y.z..
			// .. und setzen dafür erstmal den Rest der Struktur auf 0 (die neuen Variablen):
			curr = ((unsigned char*)settings) + settings->setting_structLen; // Ab hier müssen wir nullen:
    4024:	e4 0f       	add	r30, r20
    4026:	f5 1f       	adc	r31, r21
			len = sizeOfSetting - settings->setting_structLen; // Und zwar für so viele Zeichen
    4028:	c6 01       	movw	r24, r12
    402a:	84 1b       	sub	r24, r20
    402c:	95 0b       	sbc	r25, r21
    402e:	ac 01       	movw	r20, r24
    4030:	03 c0       	rjmp	.+6      	; 0x4038 <__stack+0x39>
			
			// Alles Nullen wenn wir in der Prüf-Phase sind:
			while (len--)
				*curr++ = 0;
    4032:	11 92       	st	Z+, r1
    4034:	41 50       	subi	r20, 0x01	; 1
    4036:	50 40       	sbci	r21, 0x00	; 0
			// .. und setzen dafür erstmal den Rest der Struktur auf 0 (die neuen Variablen):
			curr = ((unsigned char*)settings) + settings->setting_structLen; // Ab hier müssen wir nullen:
			len = sizeOfSetting - settings->setting_structLen; // Und zwar für so viele Zeichen
			
			// Alles Nullen wenn wir in der Prüf-Phase sind:
			while (len--)
    4038:	41 15       	cp	r20, r1
    403a:	51 05       	cpc	r21, r1
    403c:	d1 f7       	brne	.-12     	; 0x4032 <__stack+0x33>
				*curr++ = 0;
			
			ltmp = (unsigned long int)settings->majorVersion << 16 | (unsigned long int)settings->minorVersion << 8 | settings->revision;
			
			// Wenn die Struktur grundlegend geändert wurde, muss SETTINGS_COMPATIBLE_VERSION auf die neue Versionsnummer gesetzt werden:
			if (ltmp < settingsCompatibleVersion) {
    403e:	f8 01       	movw	r30, r16
    4040:	84 81       	ldd	r24, Z+4	; 0x04
    4042:	90 e0       	ldi	r25, 0x00	; 0
    4044:	a0 e0       	ldi	r26, 0x00	; 0
    4046:	b0 e0       	ldi	r27, 0x00	; 0
    4048:	dc 01       	movw	r26, r24
    404a:	99 27       	eor	r25, r25
    404c:	88 27       	eor	r24, r24
    404e:	25 81       	ldd	r18, Z+5	; 0x05
    4050:	30 e0       	ldi	r19, 0x00	; 0
    4052:	40 e0       	ldi	r20, 0x00	; 0
    4054:	50 e0       	ldi	r21, 0x00	; 0
    4056:	54 2f       	mov	r21, r20
    4058:	43 2f       	mov	r20, r19
    405a:	32 2f       	mov	r19, r18
    405c:	22 27       	eor	r18, r18
    405e:	82 2b       	or	r24, r18
    4060:	93 2b       	or	r25, r19
    4062:	a4 2b       	or	r26, r20
    4064:	b5 2b       	or	r27, r21
    4066:	26 81       	ldd	r18, Z+6	; 0x06
    4068:	30 e0       	ldi	r19, 0x00	; 0
    406a:	40 e0       	ldi	r20, 0x00	; 0
    406c:	50 e0       	ldi	r21, 0x00	; 0
    406e:	82 2b       	or	r24, r18
    4070:	93 2b       	or	r25, r19
    4072:	a4 2b       	or	r26, r20
    4074:	b5 2b       	or	r27, r21
    4076:	82 15       	cp	r24, r2
    4078:	93 05       	cpc	r25, r3
    407a:	a4 05       	cpc	r26, r4
    407c:	b5 05       	cpc	r27, r5
    407e:	10 f0       	brcs	.+4      	; 0x4084 <__stack+0x85>
    4080:	62 e0       	ldi	r22, 0x02	; 2
    4082:	01 c0       	rjmp	.+2      	; 0x4086 <__stack+0x87>
    4084:	60 e0       	ldi	r22, 0x00	; 0
			//	wait(1000);
			testResult = 0;
		}
	}
	return testResult;
}
    4086:	86 2f       	mov	r24, r22
    4088:	df 91       	pop	r29
    408a:	cf 91       	pop	r28
    408c:	1f 91       	pop	r17
    408e:	0f 91       	pop	r16
    4090:	ff 90       	pop	r15
    4092:	ef 90       	pop	r14
    4094:	df 90       	pop	r13
    4096:	cf 90       	pop	r12
    4098:	bf 90       	pop	r11
    409a:	af 90       	pop	r10
    409c:	9f 90       	pop	r9
    409e:	8f 90       	pop	r8
    40a0:	7f 90       	pop	r7
    40a2:	6f 90       	pop	r6
    40a4:	5f 90       	pop	r5
    40a6:	4f 90       	pop	r4
    40a8:	3f 90       	pop	r3
    40aa:	2f 90       	pop	r2
    40ac:	08 95       	ret

000040ae <set_init>:
		}
	}
}

void set_init() {
	ee_init();
    40ae:	0e 94 af 1d 	call	0x3b5e	; 0x3b5e <ee_init>
	
	// Einstellungen aus dem EEPROM laden:
	ee_loadData(EEPROM_SETTINGS_ADDR, &settings, sizeof(SETTING_t));
    40b2:	80 e1       	ldi	r24, 0x10	; 16
    40b4:	90 e0       	ldi	r25, 0x00	; 0
    40b6:	62 e1       	ldi	r22, 0x12	; 18
    40b8:	7a e2       	ldi	r23, 0x2A	; 42
    40ba:	42 e2       	ldi	r20, 0x22	; 34
    40bc:	50 e0       	ldi	r21, 0x00	; 0
    40be:	0e 94 e9 1e 	call	0x3dd2	; 0x3dd2 <ee_loadData>
	
	// .. und überprüfen:
	if (!set_checkSettingChecksum(1, sizeof(SETTING_t), &settings)) {
    40c2:	61 e0       	ldi	r22, 0x01	; 1
    40c4:	70 e0       	ldi	r23, 0x00	; 0
    40c6:	80 e0       	ldi	r24, 0x00	; 0
    40c8:	90 e0       	ldi	r25, 0x00	; 0
    40ca:	42 e2       	ldi	r20, 0x22	; 34
    40cc:	50 e0       	ldi	r21, 0x00	; 0
    40ce:	22 e1       	ldi	r18, 0x12	; 18
    40d0:	3a e2       	ldi	r19, 0x2A	; 42
    40d2:	0e 94 85 1f 	call	0x3f0a	; 0x3f0a <set_checkSettingChecksum>
    40d6:	88 23       	and	r24, r24
    40d8:	11 f5       	brne	.+68     	; 0x411e <set_init+0x70>
		unsigned char i;
		// Gespeicherte Einstellungen sind ungültig - auf Standardwerte zurücksetzen und gleich abspeichern:
		settings.majorVersion = 1;
    40da:	81 e0       	ldi	r24, 0x01	; 1
    40dc:	80 93 16 2a 	sts	0x2A16, r24
		settings.minorVersion = 0;
    40e0:	10 92 17 2a 	sts	0x2A17, r1
		settings.revision = 0;
    40e4:	10 92 18 2a 	sts	0x2A18, r1
		settings.networkAddress = 0x01010101; // 1.1.1.1
    40e8:	81 e0       	ldi	r24, 0x01	; 1
    40ea:	91 e0       	ldi	r25, 0x01	; 1
    40ec:	a1 e0       	ldi	r26, 0x01	; 1
    40ee:	b1 e0       	ldi	r27, 0x01	; 1
    40f0:	80 93 12 2a 	sts	0x2A12, r24
    40f4:	90 93 13 2a 	sts	0x2A13, r25
    40f8:	a0 93 14 2a 	sts	0x2A14, r26
    40fc:	b0 93 15 2a 	sts	0x2A15, r27
		ON(LED2);
    4100:	83 e0       	ldi	r24, 0x03	; 3
    4102:	0e 94 a4 07 	call	0xf48	; 0xf48 <hw_setOn>
    4106:	80 e1       	ldi	r24, 0x10	; 16
		i = 16;
		while (i--)
    4108:	81 50       	subi	r24, 0x01	; 1
			settings.preSharedKey[i] = 0;
    410a:	e8 2f       	mov	r30, r24
    410c:	f0 e0       	ldi	r31, 0x00	; 0
    410e:	ee 5e       	subi	r30, 0xEE	; 238
    4110:	f5 4d       	sbci	r31, 0xD5	; 213
    4112:	12 86       	std	Z+10, r1	; 0x0a
		settings.minorVersion = 0;
		settings.revision = 0;
		settings.networkAddress = 0x01010101; // 1.1.1.1
		ON(LED2);
		i = 16;
		while (i--)
    4114:	88 23       	and	r24, r24
    4116:	c1 f7       	brne	.-16     	; 0x4108 <set_init+0x5a>
			settings.preSharedKey[i] = 0;
		settings.modified = 1;
    4118:	81 e0       	ldi	r24, 0x01	; 1
    411a:	80 93 1b 2a 	sts	0x2A1B, r24
	}
	// Make sure correct settings are saved when they have been modified:
	timer_addCallback(60000, 1, set_saveSettings, 0); // 60s interval
    411e:	80 e6       	ldi	r24, 0x60	; 96
    4120:	9a ee       	ldi	r25, 0xEA	; 234
    4122:	61 e0       	ldi	r22, 0x01	; 1
    4124:	4d e5       	ldi	r20, 0x5D	; 93
    4126:	5f e1       	ldi	r21, 0x1F	; 31
    4128:	20 e0       	ldi	r18, 0x00	; 0
    412a:	30 e0       	ldi	r19, 0x00	; 0
    412c:	0e 94 e9 04 	call	0x9d2	; 0x9d2 <timer_addCallback>
}
    4130:	08 95       	ret

00004132 <uart_printf_P>:
	va_end(argptr);
	uart_puts(debugUART, &debugBuffer[0], count);
	wait(5);
}

void uart_printf_P(const prog_char *format, ...) {
    4132:	0f 93       	push	r16
    4134:	1f 93       	push	r17
    4136:	df 93       	push	r29
    4138:	cf 93       	push	r28
    413a:	cd b7       	in	r28, 0x3d	; 61
    413c:	de b7       	in	r29, 0x3e	; 62
    413e:	c0 58       	subi	r28, 0x80	; 128
    4140:	d0 40       	sbci	r29, 0x00	; 0
    4142:	cd bf       	out	0x3d, r28	; 61
    4144:	de bf       	out	0x3e, r29	; 62
	char debugBuffer[128];
	unsigned char count;
	if (!debugUART)
    4146:	80 91 0c 2a 	lds	r24, 0x2A0C
    414a:	90 91 0d 2a 	lds	r25, 0x2A0D
    414e:	89 2b       	or	r24, r25
    4150:	f1 f0       	breq	.+60     	; 0x418e <uart_printf_P+0x5c>
	va_end(argptr);
	uart_puts(debugUART, &debugBuffer[0], count);
	wait(5);
}

void uart_printf_P(const prog_char *format, ...) {
    4152:	fe 01       	movw	r30, r28
    4154:	e6 57       	subi	r30, 0x76	; 118
    4156:	ff 4f       	sbci	r31, 0xFF	; 255
	unsigned char count;
	if (!debugUART)
		return;
	va_list argptr;
	va_start(argptr, format);
	count = vsnprintf_P(&debugBuffer[0], sizeof(debugBuffer), format, argptr);
    4158:	8e 01       	movw	r16, r28
    415a:	0f 5f       	subi	r16, 0xFF	; 255
    415c:	1f 4f       	sbci	r17, 0xFF	; 255
    415e:	c8 01       	movw	r24, r16
    4160:	60 e8       	ldi	r22, 0x80	; 128
    4162:	70 e0       	ldi	r23, 0x00	; 0
    4164:	c8 57       	subi	r28, 0x78	; 120
    4166:	df 4f       	sbci	r29, 0xFF	; 255
    4168:	48 81       	ld	r20, Y
    416a:	59 81       	ldd	r21, Y+1	; 0x01
    416c:	c8 58       	subi	r28, 0x88	; 136
    416e:	d0 40       	sbci	r29, 0x00	; 0
    4170:	9f 01       	movw	r18, r30
    4172:	0e 94 42 29 	call	0x5284	; 0x5284 <vsnprintf_P>
    4176:	48 2f       	mov	r20, r24
	va_end(argptr);
	uart_puts(debugUART, &debugBuffer[0], count);
    4178:	80 91 0c 2a 	lds	r24, 0x2A0C
    417c:	90 91 0d 2a 	lds	r25, 0x2A0D
    4180:	b8 01       	movw	r22, r16
    4182:	0e 94 4c 0d 	call	0x1a98	; 0x1a98 <uart_puts>
	wait(5); // Platz für 28 Zeichen.
    4186:	85 e0       	ldi	r24, 0x05	; 5
    4188:	90 e0       	ldi	r25, 0x00	; 0
    418a:	0e 94 f5 02 	call	0x5ea	; 0x5ea <wait>
}
    418e:	c0 58       	subi	r28, 0x80	; 128
    4190:	df 4f       	sbci	r29, 0xFF	; 255
    4192:	cd bf       	out	0x3d, r28	; 61
    4194:	de bf       	out	0x3e, r29	; 62
    4196:	cf 91       	pop	r28
    4198:	df 91       	pop	r29
    419a:	1f 91       	pop	r17
    419c:	0f 91       	pop	r16
    419e:	08 95       	ret

000041a0 <uart_printf>:
#include "uart.h"


#define debugUART uartPC

void uart_printf(const char* format, ...) {
    41a0:	0f 93       	push	r16
    41a2:	1f 93       	push	r17
    41a4:	df 93       	push	r29
    41a6:	cf 93       	push	r28
    41a8:	cd b7       	in	r28, 0x3d	; 61
    41aa:	de b7       	in	r29, 0x3e	; 62
    41ac:	c0 58       	subi	r28, 0x80	; 128
    41ae:	d0 40       	sbci	r29, 0x00	; 0
    41b0:	cd bf       	out	0x3d, r28	; 61
    41b2:	de bf       	out	0x3e, r29	; 62
	char debugBuffer[128];
	unsigned char count;
	if (!debugUART)
    41b4:	80 91 0c 2a 	lds	r24, 0x2A0C
    41b8:	90 91 0d 2a 	lds	r25, 0x2A0D
    41bc:	89 2b       	or	r24, r25
    41be:	f1 f0       	breq	.+60     	; 0x41fc <uart_printf+0x5c>
#include "uart.h"


#define debugUART uartPC

void uart_printf(const char* format, ...) {
    41c0:	fe 01       	movw	r30, r28
    41c2:	e6 57       	subi	r30, 0x76	; 118
    41c4:	ff 4f       	sbci	r31, 0xFF	; 255
	unsigned char count;
	if (!debugUART)
		return;
	va_list argptr;
	va_start(argptr, format);
	count = vsnprintf(&debugBuffer[0], sizeof(debugBuffer), format, argptr);
    41c6:	8e 01       	movw	r16, r28
    41c8:	0f 5f       	subi	r16, 0xFF	; 255
    41ca:	1f 4f       	sbci	r17, 0xFF	; 255
    41cc:	c8 01       	movw	r24, r16
    41ce:	60 e8       	ldi	r22, 0x80	; 128
    41d0:	70 e0       	ldi	r23, 0x00	; 0
    41d2:	c8 57       	subi	r28, 0x78	; 120
    41d4:	df 4f       	sbci	r29, 0xFF	; 255
    41d6:	48 81       	ld	r20, Y
    41d8:	59 81       	ldd	r21, Y+1	; 0x01
    41da:	c8 58       	subi	r28, 0x88	; 136
    41dc:	d0 40       	sbci	r29, 0x00	; 0
    41de:	9f 01       	movw	r18, r30
    41e0:	0e 94 11 29 	call	0x5222	; 0x5222 <vsnprintf>
    41e4:	48 2f       	mov	r20, r24
	va_end(argptr);
	uart_puts(debugUART, &debugBuffer[0], count);
    41e6:	80 91 0c 2a 	lds	r24, 0x2A0C
    41ea:	90 91 0d 2a 	lds	r25, 0x2A0D
    41ee:	b8 01       	movw	r22, r16
    41f0:	0e 94 4c 0d 	call	0x1a98	; 0x1a98 <uart_puts>
	wait(5);
    41f4:	85 e0       	ldi	r24, 0x05	; 5
    41f6:	90 e0       	ldi	r25, 0x00	; 0
    41f8:	0e 94 f5 02 	call	0x5ea	; 0x5ea <wait>
}
    41fc:	c0 58       	subi	r28, 0x80	; 128
    41fe:	df 4f       	sbci	r29, 0xFF	; 255
    4200:	cd bf       	out	0x3d, r28	; 61
    4202:	de bf       	out	0x3e, r29	; 62
    4204:	cf 91       	pop	r28
    4206:	df 91       	pop	r29
    4208:	1f 91       	pop	r17
    420a:	0f 91       	pop	r16
    420c:	08 95       	ret

0000420e <servo_init>:
#include "console.h"


// TC0_t

void servo_init(TC0_t * tc) {
    420e:	fc 01       	movw	r30, r24
	// wäre prima (dann müsste man 80k-Zyklen haben).
	// Mit 65530 Zyklen wäre das eine Wiederholrate von 16,4ms - das ist prima.
	// 
	
	// Normalfrequenz 32 MHz mit DIV8 ergibt sich 4 MHz.
	tc->CTRLB = TC_WGMODE_SS_gc; // Waveform-Gen-Mode + CCAEN aktiviert Pin Override
    4210:	83 e0       	ldi	r24, 0x03	; 3
    4212:	81 83       	std	Z+1, r24	; 0x01
	tc->PERL = 0xfa;
    4214:	8a ef       	ldi	r24, 0xFA	; 250
    4216:	86 a3       	std	Z+38, r24	; 0x26
	tc->PERH = 0xff;
    4218:	8f ef       	ldi	r24, 0xFF	; 255
    421a:	87 a3       	std	Z+39, r24	; 0x27
	tc->CTRLA = TC_CLKSEL_DIV8_gc;
    421c:	84 e0       	ldi	r24, 0x04	; 4
    421e:	80 83       	st	Z, r24
}
    4220:	08 95       	ret

00004222 <servo_setServoPosition>:

void servo_setServoPosition(TC0_t * tc, unsigned char ccChannel, unsigned short int centiangle) {
    4222:	0f 93       	push	r16
    4224:	1f 93       	push	r17
    4226:	cf 93       	push	r28
    4228:	df 93       	push	r29
    422a:	8c 01       	movw	r16, r24
	// Für 1ms ist der Wert bei 4 MHz = 4000, für 2ms demnach 8000.
	unsigned short int val = (unsigned short int)(4000 + (((unsigned long int)centiangle /* * 4000*/) /* / 900 */)); // 125/8 <=> 4000/256
    422c:	40 56       	subi	r20, 0x60	; 96
    422e:	50 4f       	sbci	r21, 0xF0	; 240
	// Berechnen wo für den Kanal die Register liegen:
	volatile unsigned char * regL = (unsigned char*)((unsigned short int)(&tc->CCAL) + (ccChannel * 2));
    4230:	dc 01       	movw	r26, r24
    4232:	98 96       	adiw	r26, 0x28	; 40
    4234:	70 e0       	ldi	r23, 0x00	; 0
    4236:	cb 01       	movw	r24, r22
    4238:	88 0f       	add	r24, r24
    423a:	99 1f       	adc	r25, r25
    423c:	a8 0f       	add	r26, r24
    423e:	b9 1f       	adc	r27, r25
	volatile unsigned char * regH = (unsigned char*)((unsigned short int)(&tc->CCAH) + (ccChannel * 2));
    4240:	f8 01       	movw	r30, r16
    4242:	b9 96       	adiw	r30, 0x29	; 41
    4244:	e8 0f       	add	r30, r24
    4246:	f9 1f       	adc	r31, r25
	// Den entsprechenden Kanal für PWM aktivieren - dadurch wird der Pin überschrieben:
	tc->CTRLB |= (TC0_CCAEN_bm << ccChannel);
    4248:	e8 01       	movw	r28, r16
    424a:	29 81       	ldd	r18, Y+1	; 0x01
    424c:	80 e1       	ldi	r24, 0x10	; 16
    424e:	90 e0       	ldi	r25, 0x00	; 0
    4250:	02 c0       	rjmp	.+4      	; 0x4256 <servo_setServoPosition+0x34>
    4252:	88 0f       	add	r24, r24
    4254:	99 1f       	adc	r25, r25
    4256:	6a 95       	dec	r22
    4258:	e2 f7       	brpl	.-8      	; 0x4252 <servo_setServoPosition+0x30>
    425a:	28 2b       	or	r18, r24
    425c:	29 83       	std	Y+1, r18	; 0x01
	*regL = (unsigned char)val;
    425e:	4c 93       	st	X, r20
	*regH = (unsigned char)(val >> 8);
    4260:	50 83       	st	Z, r21
	//uart_printf_P(PSTR("Val %u."), val);
}
    4262:	df 91       	pop	r29
    4264:	cf 91       	pop	r28
    4266:	1f 91       	pop	r17
    4268:	0f 91       	pop	r16
    426a:	08 95       	ret

0000426c <rtc_init>:

static unsigned long int ticks = 0;

void rtc_init() {
	// RTC aktivieren:
	CLK.RTCCTRL = CLK_RTCSRC_TOSC32_gc | CLK_RTCEN_bm;
    426c:	8b e0       	ldi	r24, 0x0B	; 11
    426e:	e0 e4       	ldi	r30, 0x40	; 64
    4270:	f0 e0       	ldi	r31, 0x00	; 0
    4272:	83 83       	std	Z+3, r24	; 0x03
	RTC.PERL = 0; // Wir teilen nicht runter, also sind wir bei 32768 = eine Sekunde.
    4274:	e0 e0       	ldi	r30, 0x00	; 0
    4276:	f4 e0       	ldi	r31, 0x04	; 4
    4278:	12 86       	std	Z+10, r1	; 0x0a
	RTC.PERH = 0x80;
    427a:	80 e8       	ldi	r24, 0x80	; 128
    427c:	83 87       	std	Z+11, r24	; 0x0b
	RTC.INTCTRL = RTC_OVFINTLVL_LO_gc;
    427e:	81 e0       	ldi	r24, 0x01	; 1
    4280:	82 83       	std	Z+2, r24	; 0x02
	RTC.CTRL = RTC_PRESCALER_DIV1_gc;
    4282:	80 83       	st	Z, r24
}
    4284:	08 95       	ret

00004286 <rtc_getUnixtime>:
	accounting_setNewClock(oldTime, unixtime);
}

unsigned long int rtc_getUnixtime() {
	unsigned long int ltmp;
	unsigned char stmp = SREG;
    4286:	8f b7       	in	r24, 0x3f	; 63
	cli();
    4288:	f8 94       	cli
	ltmp = ticks;
	SREG = stmp;
    428a:	8f bf       	out	0x3f, r24	; 63
    428c:	60 91 2c 29 	lds	r22, 0x292C
    4290:	70 91 2d 29 	lds	r23, 0x292D
	return ltmp;
}
    4294:	80 91 2e 29 	lds	r24, 0x292E
    4298:	90 91 2f 29 	lds	r25, 0x292F
    429c:	08 95       	ret

0000429e <rtc_setUnixtime>:
	} else {
		ON(LED0);
	}
}

void rtc_setUnixtime(unsigned long int unixtime) {
    429e:	ef 92       	push	r14
    42a0:	ff 92       	push	r15
    42a2:	0f 93       	push	r16
    42a4:	1f 93       	push	r17
    42a6:	7b 01       	movw	r14, r22
    42a8:	8c 01       	movw	r16, r24
	unsigned long int oldTime;
	unsigned char stmp;
	// Warten bis die RTC nicht mehr synchronisiert:
	while (RTC.STATUS & WDT_SYNCBUSY_bm);
    42aa:	e0 e0       	ldi	r30, 0x00	; 0
    42ac:	f4 e0       	ldi	r31, 0x04	; 4
    42ae:	80 91 01 04 	lds	r24, 0x0401
    42b2:	80 fd       	sbrc	r24, 0
    42b4:	fa cf       	rjmp	.-12     	; 0x42aa <rtc_setUnixtime+0xc>
	// So.. RTC-Wert updaten:
	RTC.CNTL = 0;
    42b6:	10 86       	std	Z+8, r1	; 0x08
	RTC.CNTH = 0;	
    42b8:	11 86       	std	Z+9, r1	; 0x09
	// Warten bis die RTC nicht mehr synchronisiert:
	while (RTC.STATUS & WDT_SYNCBUSY_bm);
    42ba:	80 91 01 04 	lds	r24, 0x0401
    42be:	80 fd       	sbrc	r24, 0
    42c0:	fc cf       	rjmp	.-8      	; 0x42ba <rtc_setUnixtime+0x1c>
	// Okay, jetzt hätten wir eine Sekunde Zeit die unixtime zu aktualisieren:
	stmp = SREG;
    42c2:	2f b7       	in	r18, 0x3f	; 63
	cli();
    42c4:	f8 94       	cli
	oldTime = ticks;
    42c6:	60 91 2c 29 	lds	r22, 0x292C
    42ca:	70 91 2d 29 	lds	r23, 0x292D
    42ce:	80 91 2e 29 	lds	r24, 0x292E
    42d2:	90 91 2f 29 	lds	r25, 0x292F
	ticks = unixtime;
    42d6:	e0 92 2c 29 	sts	0x292C, r14
    42da:	f0 92 2d 29 	sts	0x292D, r15
    42de:	00 93 2e 29 	sts	0x292E, r16
    42e2:	10 93 2f 29 	sts	0x292F, r17
	SREG = stmp;
    42e6:	2f bf       	out	0x3f, r18	; 63
	// Notify accounting of the new clock:
	accounting_setNewClock(oldTime, unixtime);
    42e8:	a8 01       	movw	r20, r16
    42ea:	97 01       	movw	r18, r14
    42ec:	0e 94 13 26 	call	0x4c26	; 0x4c26 <accounting_setNewClock>
}
    42f0:	1f 91       	pop	r17
    42f2:	0f 91       	pop	r16
    42f4:	ff 90       	pop	r15
    42f6:	ef 90       	pop	r14
    42f8:	08 95       	ret

000042fa <__vector_10>:
	RTC.PERH = 0x80;
	RTC.INTCTRL = RTC_OVFINTLVL_LO_gc;
	RTC.CTRL = RTC_PRESCALER_DIV1_gc;
}

ISR(RTC_OVF_vect) {
    42fa:	1f 92       	push	r1
    42fc:	0f 92       	push	r0
    42fe:	0f b6       	in	r0, 0x3f	; 63
    4300:	0f 92       	push	r0
    4302:	08 b6       	in	r0, 0x38	; 56
    4304:	0f 92       	push	r0
    4306:	09 b6       	in	r0, 0x39	; 57
    4308:	0f 92       	push	r0
    430a:	0b b6       	in	r0, 0x3b	; 59
    430c:	0f 92       	push	r0
    430e:	11 24       	eor	r1, r1
    4310:	18 be       	out	0x38, r1	; 56
    4312:	19 be       	out	0x39, r1	; 57
    4314:	1b be       	out	0x3b, r1	; 59
    4316:	2f 93       	push	r18
    4318:	3f 93       	push	r19
    431a:	4f 93       	push	r20
    431c:	5f 93       	push	r21
    431e:	6f 93       	push	r22
    4320:	7f 93       	push	r23
    4322:	8f 93       	push	r24
    4324:	9f 93       	push	r25
    4326:	af 93       	push	r26
    4328:	bf 93       	push	r27
    432a:	ef 93       	push	r30
    432c:	ff 93       	push	r31
	ticks++;
    432e:	80 91 2c 29 	lds	r24, 0x292C
    4332:	90 91 2d 29 	lds	r25, 0x292D
    4336:	a0 91 2e 29 	lds	r26, 0x292E
    433a:	b0 91 2f 29 	lds	r27, 0x292F
    433e:	01 96       	adiw	r24, 0x01	; 1
    4340:	a1 1d       	adc	r26, r1
    4342:	b1 1d       	adc	r27, r1
    4344:	80 93 2c 29 	sts	0x292C, r24
    4348:	90 93 2d 29 	sts	0x292D, r25
    434c:	a0 93 2e 29 	sts	0x292E, r26
    4350:	b0 93 2f 29 	sts	0x292F, r27
	if (ISON(LED0)) {
    4354:	81 e0       	ldi	r24, 0x01	; 1
    4356:	0e 94 e8 07 	call	0xfd0	; 0xfd0 <hw_isOn>
    435a:	88 23       	and	r24, r24
    435c:	21 f0       	breq	.+8      	; 0x4366 <__vector_10+0x6c>
		OFF(LED0);
    435e:	81 e0       	ldi	r24, 0x01	; 1
    4360:	0e 94 c6 07 	call	0xf8c	; 0xf8c <hw_setOff>
    4364:	03 c0       	rjmp	.+6      	; 0x436c <__vector_10+0x72>
	} else {
		ON(LED0);
    4366:	81 e0       	ldi	r24, 0x01	; 1
    4368:	0e 94 a4 07 	call	0xf48	; 0xf48 <hw_setOn>
	}
}
    436c:	ff 91       	pop	r31
    436e:	ef 91       	pop	r30
    4370:	bf 91       	pop	r27
    4372:	af 91       	pop	r26
    4374:	9f 91       	pop	r25
    4376:	8f 91       	pop	r24
    4378:	7f 91       	pop	r23
    437a:	6f 91       	pop	r22
    437c:	5f 91       	pop	r21
    437e:	4f 91       	pop	r20
    4380:	3f 91       	pop	r19
    4382:	2f 91       	pop	r18
    4384:	0f 90       	pop	r0
    4386:	0b be       	out	0x3b, r0	; 59
    4388:	0f 90       	pop	r0
    438a:	09 be       	out	0x39, r0	; 57
    438c:	0f 90       	pop	r0
    438e:	08 be       	out	0x38, r0	; 56
    4390:	0f 90       	pop	r0
    4392:	0f be       	out	0x3f, r0	; 63
    4394:	0f 90       	pop	r0
    4396:	1f 90       	pop	r1
    4398:	18 95       	reti

0000439a <__vector_85>:
	
	// Regelmäßig Messungen durchführen:
	timer_addCallback(1, 1, dist_work, 0);
}

ISR(TCD1_CCA_vect) {
    439a:	1f 92       	push	r1
    439c:	0f 92       	push	r0
    439e:	0f b6       	in	r0, 0x3f	; 63
    43a0:	0f 92       	push	r0
    43a2:	08 b6       	in	r0, 0x38	; 56
    43a4:	0f 92       	push	r0
    43a6:	0b b6       	in	r0, 0x3b	; 59
    43a8:	0f 92       	push	r0
    43aa:	11 24       	eor	r1, r1
    43ac:	18 be       	out	0x38, r1	; 56
    43ae:	1b be       	out	0x3b, r1	; 59
    43b0:	2f 93       	push	r18
    43b2:	3f 93       	push	r19
    43b4:	4f 93       	push	r20
    43b6:	8f 93       	push	r24
    43b8:	9f 93       	push	r25
    43ba:	ef 93       	push	r30
    43bc:	ff 93       	push	r31
	unsigned int pwm_loc;
	// Hier lesen wir jetzt den letzten CCA-Wert aus.
	pwm_loc = TCD1.CCAL;
    43be:	e0 e4       	ldi	r30, 0x40	; 64
    43c0:	f9 e0       	ldi	r31, 0x09	; 9
    43c2:	20 a5       	ldd	r18, Z+40	; 0x28
    43c4:	30 e0       	ldi	r19, 0x00	; 0
	pwm_loc |= ((unsigned int)TCD1.CCAH) << 8;
    43c6:	41 a5       	ldd	r20, Z+41	; 0x29
	pwm_glob = pwm_loc;
    43c8:	94 2f       	mov	r25, r20
    43ca:	80 e0       	ldi	r24, 0x00	; 0
    43cc:	82 2b       	or	r24, r18
    43ce:	93 2b       	or	r25, r19
    43d0:	80 93 33 29 	sts	0x2933, r24
    43d4:	90 93 34 29 	sts	0x2934, r25
	pwm_updated = 1;
    43d8:	81 e0       	ldi	r24, 0x01	; 1
    43da:	80 93 35 29 	sts	0x2935, r24
}
    43de:	ff 91       	pop	r31
    43e0:	ef 91       	pop	r30
    43e2:	9f 91       	pop	r25
    43e4:	8f 91       	pop	r24
    43e6:	4f 91       	pop	r20
    43e8:	3f 91       	pop	r19
    43ea:	2f 91       	pop	r18
    43ec:	0f 90       	pop	r0
    43ee:	0b be       	out	0x3b, r0	; 59
    43f0:	0f 90       	pop	r0
    43f2:	08 be       	out	0x38, r0	; 56
    43f4:	0f 90       	pop	r0
    43f6:	0f be       	out	0x3f, r0	; 63
    43f8:	0f 90       	pop	r0
    43fa:	1f 90       	pop	r1
    43fc:	18 95       	reti

000043fe <dist_getLastDistance>:
	}
}

unsigned int dist_getLastDistance() {
	return distance;
}
    43fe:	80 91 32 29 	lds	r24, 0x2932
    4402:	90 e0       	ldi	r25, 0x00	; 0
    4404:	08 95       	ret

00004406 <dist_work>:
	unsigned short int distance;
	unsigned char pwm_updated_loc;
	static unsigned short int mode;
	
	// Letzte Daten abrufen:
	stmp = SREG;
    4406:	9f b7       	in	r25, 0x3f	; 63
	cli();
    4408:	f8 94       	cli
	distance = pwm_glob;
    440a:	40 91 33 29 	lds	r20, 0x2933
    440e:	50 91 34 29 	lds	r21, 0x2934
	pwm_updated_loc = pwm_updated;
    4412:	80 91 35 29 	lds	r24, 0x2935
	pwm_updated = 0;
    4416:	10 92 35 29 	sts	0x2935, r1
	SREG = stmp;
    441a:	9f bf       	out	0x3f, r25	; 63
	
	if (pwm_updated_loc && (mode >= 21) && (mode <= 200) && (distance > 30)) { // >60 heißt > 13mm
    441c:	88 23       	and	r24, r24
    441e:	69 f1       	breq	.+90     	; 0x447a <dist_work+0x74>
    4420:	80 91 30 29 	lds	r24, 0x2930
    4424:	90 91 31 29 	lds	r25, 0x2931
    4428:	85 31       	cpi	r24, 0x15	; 21
    442a:	91 05       	cpc	r25, r1
    442c:	30 f1       	brcs	.+76     	; 0x447a <dist_work+0x74>
    442e:	89 3c       	cpi	r24, 0xC9	; 201
    4430:	91 05       	cpc	r25, r1
    4432:	18 f5       	brcc	.+70     	; 0x447a <dist_work+0x74>
    4434:	4f 31       	cpi	r20, 0x1F	; 31
    4436:	51 05       	cpc	r21, r1
    4438:	00 f1       	brcs	.+64     	; 0x447a <dist_work+0x74>
		// Daten stehen zur Verfügung:
		// Der Sensor gibt bis 25ms aus oder 38ms für "keine Entfernung erfasst".
		// Da wir mit 500 kHz arbeiten, wäre der Grenzwert bei 30ms = 15000
		if (distance < 15000) {
    443a:	2a e3       	ldi	r18, 0x3A	; 58
    443c:	48 39       	cpi	r20, 0x98	; 152
    443e:	52 07       	cpc	r21, r18
    4440:	18 f0       	brcs	.+6      	; 0x4448 <dist_work+0x42>
    4442:	60 e1       	ldi	r22, 0x10	; 16
    4444:	77 e2       	ldi	r23, 0x27	; 39
    4446:	0f c0       	rjmp	.+30     	; 0x4466 <dist_work+0x60>
			// In Millimeter umrechnen:
			distance = (distance * 10) / 29;
    4448:	9a 01       	movw	r18, r20
    444a:	93 e0       	ldi	r25, 0x03	; 3
    444c:	22 0f       	add	r18, r18
    444e:	33 1f       	adc	r19, r19
    4450:	9a 95       	dec	r25
    4452:	e1 f7       	brne	.-8      	; 0x444c <dist_work+0x46>
    4454:	44 0f       	add	r20, r20
    4456:	55 1f       	adc	r21, r21
    4458:	24 0f       	add	r18, r20
    445a:	35 1f       	adc	r19, r21
    445c:	c9 01       	movw	r24, r18
    445e:	6d e1       	ldi	r22, 0x1D	; 29
    4460:	70 e0       	ldi	r23, 0x00	; 0
    4462:	0e 94 7d 28 	call	0x50fa	; 0x50fa <__udivmodhi4>
//			uart_printf_P(PSTR("(%umm) "), distance);
		} else {
			distance = 10000; // Mehr als der Sensor messen kann
//			uart_printf_P(PSTR("(Inf) "));
		}
		ctrl_sensorValue(0, distance);
    4466:	80 e0       	ldi	r24, 0x00	; 0
    4468:	0e 94 2d 23 	call	0x465a	; 0x465a <ctrl_sensorValue>
		// Lesezyklus von vorne starten:
		mode = 250; // In 250ms + x neue Messung starten
    446c:	8a ef       	ldi	r24, 0xFA	; 250
    446e:	90 e0       	ldi	r25, 0x00	; 0
    4470:	80 93 30 29 	sts	0x2930, r24
    4474:	90 93 31 29 	sts	0x2931, r25
    4478:	08 95       	ret
	} else {
		switch (mode++) {
    447a:	80 91 30 29 	lds	r24, 0x2930
    447e:	90 91 31 29 	lds	r25, 0x2931
    4482:	01 96       	adiw	r24, 0x01	; 1
    4484:	80 93 30 29 	sts	0x2930, r24
    4488:	90 93 31 29 	sts	0x2931, r25
    448c:	01 97       	sbiw	r24, 0x01	; 1
    448e:	85 31       	cpi	r24, 0x15	; 21
    4490:	91 05       	cpc	r25, r1
    4492:	89 f0       	breq	.+34     	; 0x44b6 <dist_work+0xb0>
    4494:	86 31       	cpi	r24, 0x16	; 22
    4496:	91 05       	cpc	r25, r1
    4498:	18 f4       	brcc	.+6      	; 0x44a0 <dist_work+0x9a>
    449a:	44 97       	sbiw	r24, 0x14	; 20
    449c:	f1 f4       	brne	.+60     	; 0x44da <dist_work+0xd4>
    449e:	07 c0       	rjmp	.+14     	; 0x44ae <dist_work+0xa8>
    44a0:	88 3c       	cpi	r24, 0xC8	; 200
    44a2:	91 05       	cpc	r25, r1
    44a4:	61 f0       	breq	.+24     	; 0x44be <dist_work+0xb8>
    44a6:	84 5f       	subi	r24, 0xF4	; 244
    44a8:	91 40       	sbci	r25, 0x01	; 1
    44aa:	b9 f4       	brne	.+46     	; 0x44da <dist_work+0xd4>
    44ac:	12 c0       	rjmp	.+36     	; 0x44d2 <dist_work+0xcc>
			case 20: // Messimpuls auslösen
				ON(DISTANCE_START_MEASURING);
    44ae:	89 e2       	ldi	r24, 0x29	; 41
    44b0:	0e 94 a4 07 	call	0xf48	; 0xf48 <hw_setOn>
    44b4:	08 95       	ret
				break;
			case 21: // 
				OFF(DISTANCE_START_MEASURING);
    44b6:	89 e2       	ldi	r24, 0x29	; 41
    44b8:	0e 94 c6 07 	call	0xf8c	; 0xf8c <hw_setOff>
    44bc:	08 95       	ret
//				uart_printf_P(PSTR("+"));
				break;
				// Messimpuls kommt eigentlich nach einigen Mikrosekunden (fängt dann an)
			case 200: // Bis hierhin hätte eigentlich spätestens der Messimpuls zur Verfügung stehen sollen! Irgendwas bringt den Sensor durcheinander.. wir gehen davon aus es gibt _kein_ Hindernis
				distance = 0xffff;
				ctrl_sensorValue(0, 10000);
    44be:	80 e0       	ldi	r24, 0x00	; 0
    44c0:	60 e1       	ldi	r22, 0x10	; 16
    44c2:	77 e2       	ldi	r23, 0x27	; 39
    44c4:	0e 94 2d 23 	call	0x465a	; 0x465a <ctrl_sensorValue>
//				uart_printf_P(PSTR("(ERR) "));
				mode = 0; // Neue Messung probieren - Distanz ist ungültig
    44c8:	10 92 30 29 	sts	0x2930, r1
    44cc:	10 92 31 29 	sts	0x2931, r1
    44d0:	08 95       	ret
				break;
			case 500: // Neue Messung starten
				mode = 0;
    44d2:	10 92 30 29 	sts	0x2930, r1
    44d6:	10 92 31 29 	sts	0x2931, r1
    44da:	08 95       	ret

000044dc <dist_init>:
static unsigned short int pwm_glob;
static unsigned char pwm_updated;

void dist_work(void * ptr);

void dist_init(void) {
    44dc:	ef 92       	push	r14
    44de:	ff 92       	push	r15
    44e0:	0f 93       	push	r16
    44e2:	1f 93       	push	r17
    44e4:	df 93       	push	r29
    44e6:	cf 93       	push	r28
    44e8:	00 d0       	rcall	.+0      	; 0x44ea <dist_init+0xe>
    44ea:	cd b7       	in	r28, 0x3d	; 61
    44ec:	de b7       	in	r29, 0x3e	; 62
	PORT_t * p;
	unsigned char pin;
	unsigned int portIndex;	
	
	// Setup RSSI measurements
	TCD1.CTRLB = TC0_CCAEN_bm;
    44ee:	30 e4       	ldi	r19, 0x40	; 64
    44f0:	e3 2e       	mov	r14, r19
    44f2:	39 e0       	ldi	r19, 0x09	; 9
    44f4:	f3 2e       	mov	r15, r19
    44f6:	80 e1       	ldi	r24, 0x10	; 16
    44f8:	d7 01       	movw	r26, r14
    44fa:	11 96       	adiw	r26, 0x01	; 1
    44fc:	8c 93       	st	X, r24
    44fe:	11 97       	sbiw	r26, 0x01	; 1
	TCD1.CTRLD = TC_EVACT_PW_gc  | TC_EVSEL_CH0_gc;  // Event channel 0 for pulse width capture
    4500:	88 ec       	ldi	r24, 0xC8	; 200
    4502:	13 96       	adiw	r26, 0x03	; 3
    4504:	8c 93       	st	X, r24
    4506:	13 97       	sbiw	r26, 0x03	; 3
	TCD1.CTRLE = 0;
    4508:	14 96       	adiw	r26, 0x04	; 4
    450a:	1c 92       	st	X, r1
	
	// Abrufen, welchen Pin wir überwachen müssen:
	hw_getPinData(DISTANCE_PWM_FUNCID, &p, 0, &pin);
    450c:	88 e2       	ldi	r24, 0x28	; 40
    450e:	be 01       	movw	r22, r28
    4510:	6e 5f       	subi	r22, 0xFE	; 254
    4512:	7f 4f       	sbci	r23, 0xFF	; 255
    4514:	40 e0       	ldi	r20, 0x00	; 0
    4516:	50 e0       	ldi	r21, 0x00	; 0
    4518:	9e 01       	movw	r18, r28
    451a:	2f 5f       	subi	r18, 0xFF	; 255
    451c:	3f 4f       	sbci	r19, 0xFF	; 255
    451e:	0e 94 84 07 	call	0xf08	; 0xf08 <hw_getPinData>
	portIndex = (unsigned int)((unsigned int)p - (unsigned int)&PORTA) / (unsigned int)((unsigned int)&PORTB - (unsigned int)&PORTA);
	
	// Pin entsprechend einstellen. Wichtig hierbei: Es funktioniert nur BIS PORT F.
	EVSYS.CH0MUX = ((0b1010 + portIndex) << 3) | pin; // Port + Pin.
    4522:	8a 81       	ldd	r24, Y+2	; 0x02
    4524:	9b 81       	ldd	r25, Y+3	; 0x03
    4526:	80 50       	subi	r24, 0x00	; 0
    4528:	96 40       	sbci	r25, 0x06	; 6
    452a:	25 e0       	ldi	r18, 0x05	; 5
    452c:	96 95       	lsr	r25
    452e:	87 95       	ror	r24
    4530:	2a 95       	dec	r18
    4532:	e1 f7       	brne	.-8      	; 0x452c <dist_init+0x50>
    4534:	86 5f       	subi	r24, 0xF6	; 246
    4536:	88 0f       	add	r24, r24
    4538:	88 0f       	add	r24, r24
    453a:	88 0f       	add	r24, r24
    453c:	29 81       	ldd	r18, Y+1	; 0x01
    453e:	82 2b       	or	r24, r18
    4540:	00 e8       	ldi	r16, 0x80	; 128
    4542:	11 e0       	ldi	r17, 0x01	; 1
    4544:	f8 01       	movw	r30, r16
    4546:	80 83       	st	Z, r24
	uart_printf_P(PSTR("Value %u."), EVSYS.CH0MUX);
    4548:	20 81       	ld	r18, Z
    454a:	00 d0       	rcall	.+0      	; 0x454c <dist_init+0x70>
    454c:	0f 92       	push	r0
    454e:	ed b7       	in	r30, 0x3d	; 61
    4550:	fe b7       	in	r31, 0x3e	; 62
    4552:	31 96       	adiw	r30, 0x01	; 1
    4554:	8c e3       	ldi	r24, 0x3C	; 60
    4556:	92 e0       	ldi	r25, 0x02	; 2
    4558:	ad b7       	in	r26, 0x3d	; 61
    455a:	be b7       	in	r27, 0x3e	; 62
    455c:	11 96       	adiw	r26, 0x01	; 1
    455e:	8d 93       	st	X+, r24
    4560:	9c 93       	st	X, r25
    4562:	12 97       	sbiw	r26, 0x02	; 2
    4564:	22 83       	std	Z+2, r18	; 0x02
    4566:	13 82       	std	Z+3, r1	; 0x03
    4568:	0e 94 99 20 	call	0x4132	; 0x4132 <uart_printf_P>
	EVSYS.CH0CTRL = 0;
    456c:	f8 01       	movw	r30, r16
    456e:	10 86       	std	Z+8, r1	; 0x08
	
	// Interrupts für Messung einschalten:
	TCD1.INTCTRLB = TC_CCAINTLVL_LO_gc;
    4570:	81 e0       	ldi	r24, 0x01	; 1
    4572:	d7 01       	movw	r26, r14
    4574:	17 96       	adiw	r26, 0x07	; 7
    4576:	8c 93       	st	X, r24
    4578:	17 97       	sbiw	r26, 0x07	; 7
	
	// Enable timer:
	TCD1.CTRLA = TC_CLKSEL_DIV64_gc; // Clock läuft mit 500 kHz
    457a:	85 e0       	ldi	r24, 0x05	; 5
    457c:	8c 93       	st	X, r24
	
	// Regelmäßig Messungen durchführen:
	timer_addCallback(1, 1, dist_work, 0);
    457e:	0f 90       	pop	r0
    4580:	0f 90       	pop	r0
    4582:	0f 90       	pop	r0
    4584:	0f 90       	pop	r0
    4586:	81 e0       	ldi	r24, 0x01	; 1
    4588:	90 e0       	ldi	r25, 0x00	; 0
    458a:	61 e0       	ldi	r22, 0x01	; 1
    458c:	43 e0       	ldi	r20, 0x03	; 3
    458e:	52 e2       	ldi	r21, 0x22	; 34
    4590:	20 e0       	ldi	r18, 0x00	; 0
    4592:	30 e0       	ldi	r19, 0x00	; 0
    4594:	0e 94 e9 04 	call	0x9d2	; 0x9d2 <timer_addCallback>
}
    4598:	23 96       	adiw	r28, 0x03	; 3
    459a:	cd bf       	out	0x3d, r28	; 61
    459c:	de bf       	out	0x3e, r29	; 62
    459e:	cf 91       	pop	r28
    45a0:	df 91       	pop	r29
    45a2:	1f 91       	pop	r17
    45a4:	0f 91       	pop	r16
    45a6:	ff 90       	pop	r15
    45a8:	ef 90       	pop	r14
    45aa:	08 95       	ret

000045ac <ctrl_isBarrierEngaged>:
	servo_setServoPosition(&TCC0, 0, barrierPosition);
}

unsigned char ctrl_isBarrierEngaged() {
	return ctrl.barrierEngaged;
}
    45ac:	80 91 36 2a 	lds	r24, 0x2A36
    45b0:	08 95       	ret

000045b2 <ctrl_isCarParked>:

unsigned char ctrl_isCarParked() {
	unsigned char i = NUMBER_OF_SENSORS;
	unsigned char decision = 128;
	while (i--) {
		if (ctrl.carParked[i] > 15) {
    45b2:	80 91 34 2a 	lds	r24, 0x2A34
    45b6:	80 31       	cpi	r24, 0x10	; 16
    45b8:	10 f0       	brcs	.+4      	; 0x45be <ctrl_isCarParked+0xc>
    45ba:	91 e8       	ldi	r25, 0x81	; 129
    45bc:	05 c0       	rjmp	.+10     	; 0x45c8 <ctrl_isCarParked+0x16>
			decision++;
		} else if (ctrl.carParked[i] < 5) {
    45be:	85 30       	cpi	r24, 0x05	; 5
    45c0:	10 f0       	brcs	.+4      	; 0x45c6 <ctrl_isCarParked+0x14>
    45c2:	90 e8       	ldi	r25, 0x80	; 128
    45c4:	01 c0       	rjmp	.+2      	; 0x45c8 <ctrl_isCarParked+0x16>
    45c6:	9f e7       	ldi	r25, 0x7F	; 127
    45c8:	80 e0       	ldi	r24, 0x00	; 0
    45ca:	91 38       	cpi	r25, 0x81	; 129
    45cc:	08 f0       	brcs	.+2      	; 0x45d0 <ctrl_isCarParked+0x1e>
    45ce:	81 e0       	ldi	r24, 0x01	; 1
		}
	}
	if (decision > 128)
		return 1;
	return 0;
}
    45d0:	08 95       	ret

000045d2 <ctrl_isNoCarParked>:

unsigned char ctrl_isNoCarParked() {
	unsigned char i = NUMBER_OF_SENSORS;
	unsigned char decision = 128;
	while (i--) {
		if (ctrl.carParked[i] > 15) {
    45d2:	80 91 34 2a 	lds	r24, 0x2A34
    45d6:	80 31       	cpi	r24, 0x10	; 16
    45d8:	10 f0       	brcs	.+4      	; 0x45de <ctrl_isNoCarParked+0xc>
    45da:	81 e8       	ldi	r24, 0x81	; 129
    45dc:	05 c0       	rjmp	.+10     	; 0x45e8 <ctrl_isNoCarParked+0x16>
			decision++;
		} else if (ctrl.carParked[i] < 5) {
    45de:	85 30       	cpi	r24, 0x05	; 5
    45e0:	10 f0       	brcs	.+4      	; 0x45e6 <ctrl_isNoCarParked+0x14>
    45e2:	80 e8       	ldi	r24, 0x80	; 128
    45e4:	01 c0       	rjmp	.+2      	; 0x45e8 <ctrl_isNoCarParked+0x16>
    45e6:	8f e7       	ldi	r24, 0x7F	; 127
    45e8:	80 95       	com	r24
		}
	}
	if (decision < 128)
		return 1;
	return 0;
}
    45ea:	88 1f       	adc	r24, r24
    45ec:	88 27       	eor	r24, r24
    45ee:	88 1f       	adc	r24, r24
    45f0:	08 95       	ret

000045f2 <ctrl_engageBarrier>:

void ctrl_engageBarrier() {
	ctrl.barrierEngaged = 1;
    45f2:	81 e0       	ldi	r24, 0x01	; 1
    45f4:	80 93 36 2a 	sts	0x2A36, r24
	ctrl.barrierIsMoving = 1;
    45f8:	80 93 3c 2a 	sts	0x2A3C, r24
}
    45fc:	08 95       	ret

000045fe <ctrl_disengageBarrier>:

void ctrl_disengageBarrier() {
	ctrl.barrierEngaged = 0;
    45fe:	10 92 36 2a 	sts	0x2A36, r1
	ctrl.barrierIsMoving = 1;
    4602:	81 e0       	ldi	r24, 0x01	; 1
    4604:	80 93 3c 2a 	sts	0x2A3C, r24
}
    4608:	08 95       	ret

0000460a <ctrl_isSpaceAvailable>:
	if (ISON(KEY1))
		uart_printf_P(PSTR("Dist %u\n"), distance);
}

unsigned char ctrl_isSpaceAvailable() {
	if (ctrl.readyToUnlock && !ctrl.unlockForID) {
    460a:	80 91 3d 2a 	lds	r24, 0x2A3D
    460e:	88 23       	and	r24, r24
    4610:	11 f4       	brne	.+4      	; 0x4616 <ctrl_isSpaceAvailable+0xc>
    4612:	20 e0       	ldi	r18, 0x00	; 0
    4614:	0e c0       	rjmp	.+28     	; 0x4632 <ctrl_isSpaceAvailable+0x28>
    4616:	20 e0       	ldi	r18, 0x00	; 0
    4618:	80 91 3e 2a 	lds	r24, 0x2A3E
    461c:	90 91 3f 2a 	lds	r25, 0x2A3F
    4620:	a0 91 40 2a 	lds	r26, 0x2A40
    4624:	b0 91 41 2a 	lds	r27, 0x2A41
    4628:	00 97       	sbiw	r24, 0x00	; 0
    462a:	a1 05       	cpc	r26, r1
    462c:	b1 05       	cpc	r27, r1
    462e:	09 f4       	brne	.+2      	; 0x4632 <ctrl_isSpaceAvailable+0x28>
    4630:	21 e0       	ldi	r18, 0x01	; 1
		return 1;
	}
	return 0;
}
    4632:	82 2f       	mov	r24, r18
    4634:	08 95       	ret

00004636 <ctrl_unlockBarrierFor>:

unsigned char ctrl_unlockBarrierFor(unsigned long int ID) {
    4636:	9b 01       	movw	r18, r22
    4638:	ac 01       	movw	r20, r24
	if (ctrl.readyToUnlock) {
    463a:	80 91 3d 2a 	lds	r24, 0x2A3D
    463e:	88 23       	and	r24, r24
    4640:	59 f0       	breq	.+22     	; 0x4658 <ctrl_unlockBarrierFor+0x22>
		ctrl.unlockForID = ID;
    4642:	20 93 3e 2a 	sts	0x2A3E, r18
    4646:	30 93 3f 2a 	sts	0x2A3F, r19
    464a:	40 93 40 2a 	sts	0x2A40, r20
    464e:	50 93 41 2a 	sts	0x2A41, r21
		ctrl.readyToUnlock = 0;
    4652:	10 92 3d 2a 	sts	0x2A3D, r1
    4656:	81 e0       	ldi	r24, 0x01	; 1
		return 1;
	}
	return 0;
}
    4658:	08 95       	ret

0000465a <ctrl_sensorValue>:
void ctrl_disengageBarrier() {
	ctrl.barrierEngaged = 0;
	ctrl.barrierIsMoving = 1;
}

void ctrl_sensorValue(unsigned char sensorNo, unsigned short int distance) {
    465a:	cf 93       	push	r28
    465c:	df 93       	push	r29
    465e:	eb 01       	movw	r28, r22
	if (!(sensorNo < NUMBER_OF_SENSORS))
    4660:	88 23       	and	r24, r24
    4662:	09 f0       	breq	.+2      	; 0x4666 <ctrl_sensorValue+0xc>
    4664:	43 c0       	rjmp	.+134    	; 0x46ec <ctrl_sensorValue+0x92>
		return;
	unsigned char * cp = &ctrl.carParked[sensorNo];
	// carPresent > 15: JA
	// carPresent < 5: Nein
	// Sonst: (Nicht sicher)
	if (distance < 5 || distance > 0xff00) {
    4666:	cb 01       	movw	r24, r22
    4668:	05 97       	sbiw	r24, 0x05	; 5
    466a:	8c 5f       	subi	r24, 0xFC	; 252
    466c:	9e 4f       	sbci	r25, 0xFE	; 254
    466e:	38 f0       	brcs	.+14     	; 0x467e <ctrl_sensorValue+0x24>
		if (*cp > 10) {
    4670:	80 91 34 2a 	lds	r24, 0x2A34
    4674:	8b 30       	cpi	r24, 0x0B	; 11
    4676:	70 f4       	brcc	.+28     	; 0x4694 <ctrl_sensorValue+0x3a>
			(*cp)--;
		} else if (*cp < 10) {
    4678:	8a 30       	cpi	r24, 0x0A	; 10
    467a:	a9 f0       	breq	.+42     	; 0x46a6 <ctrl_sensorValue+0x4c>
    467c:	11 c0       	rjmp	.+34     	; 0x46a0 <ctrl_sensorValue+0x46>
			(*cp)++;
		}
		// Ungültige Messung. Kam hier im Wechsel mit gültigen Messungen mit genauen Messwerten vor, eventuell muss man das ignorieren und nur die gültigen Messungen verwenden..
	} else {
		if (distance > ctrl.detectDistance) {
    467e:	80 91 42 2a 	lds	r24, 0x2A42
    4682:	90 91 43 2a 	lds	r25, 0x2A43
    4686:	86 17       	cp	r24, r22
    4688:	97 07       	cpc	r25, r23
    468a:	30 f4       	brcc	.+12     	; 0x4698 <ctrl_sensorValue+0x3e>
			if (*cp)
    468c:	80 91 34 2a 	lds	r24, 0x2A34
    4690:	88 23       	and	r24, r24
    4692:	49 f0       	breq	.+18     	; 0x46a6 <ctrl_sensorValue+0x4c>
				(*cp)--;
    4694:	81 50       	subi	r24, 0x01	; 1
    4696:	05 c0       	rjmp	.+10     	; 0x46a2 <ctrl_sensorValue+0x48>
		} else {
			if (*cp < 20)
    4698:	80 91 34 2a 	lds	r24, 0x2A34
    469c:	84 31       	cpi	r24, 0x14	; 20
    469e:	18 f4       	brcc	.+6      	; 0x46a6 <ctrl_sensorValue+0x4c>
				(*cp)++;
    46a0:	8f 5f       	subi	r24, 0xFF	; 255
    46a2:	80 93 34 2a 	sts	0x2A34, r24
		}
	}
	if (*cp < 5)
    46a6:	80 91 34 2a 	lds	r24, 0x2A34
    46aa:	85 30       	cpi	r24, 0x05	; 5
    46ac:	18 f4       	brcc	.+6      	; 0x46b4 <ctrl_sensorValue+0x5a>
		OFF(LED7);
    46ae:	88 e0       	ldi	r24, 0x08	; 8
    46b0:	0e 94 c6 07 	call	0xf8c	; 0xf8c <hw_setOff>
	if (*cp > 15)
    46b4:	80 91 34 2a 	lds	r24, 0x2A34
    46b8:	80 31       	cpi	r24, 0x10	; 16
    46ba:	18 f0       	brcs	.+6      	; 0x46c2 <ctrl_sensorValue+0x68>
		ON(LED7);
    46bc:	88 e0       	ldi	r24, 0x08	; 8
    46be:	0e 94 a4 07 	call	0xf48	; 0xf48 <hw_setOn>
	if (ISON(KEY1))
    46c2:	8a e0       	ldi	r24, 0x0A	; 10
    46c4:	0e 94 e8 07 	call	0xfd0	; 0xfd0 <hw_isOn>
    46c8:	88 23       	and	r24, r24
    46ca:	81 f0       	breq	.+32     	; 0x46ec <ctrl_sensorValue+0x92>
		uart_printf_P(PSTR("Dist %u\n"), distance);
    46cc:	00 d0       	rcall	.+0      	; 0x46ce <ctrl_sensorValue+0x74>
    46ce:	0f 92       	push	r0
    46d0:	86 e4       	ldi	r24, 0x46	; 70
    46d2:	92 e0       	ldi	r25, 0x02	; 2
    46d4:	ed b7       	in	r30, 0x3d	; 61
    46d6:	fe b7       	in	r31, 0x3e	; 62
    46d8:	81 83       	std	Z+1, r24	; 0x01
    46da:	92 83       	std	Z+2, r25	; 0x02
    46dc:	c3 83       	std	Z+3, r28	; 0x03
    46de:	d4 83       	std	Z+4, r29	; 0x04
    46e0:	0e 94 99 20 	call	0x4132	; 0x4132 <uart_printf_P>
    46e4:	0f 90       	pop	r0
    46e6:	0f 90       	pop	r0
    46e8:	0f 90       	pop	r0
    46ea:	0f 90       	pop	r0
}
    46ec:	df 91       	pop	r29
    46ee:	cf 91       	pop	r28
    46f0:	08 95       	ret

000046f2 <control_workBarrier>:
	running = 0;
}

void control_workBarrier(void * p) {
	static unsigned short int barrierPosition;
	if (ctrl.barrierEngaged) {
    46f2:	80 91 36 2a 	lds	r24, 0x2A36
    46f6:	20 91 36 29 	lds	r18, 0x2936
    46fa:	30 91 37 29 	lds	r19, 0x2937
    46fe:	88 23       	and	r24, r24
    4700:	39 f0       	breq	.+14     	; 0x4710 <control_workBarrier+0x1e>
		if (barrierPosition < 4500 /*1200*/) {
    4702:	81 e1       	ldi	r24, 0x11	; 17
    4704:	24 39       	cpi	r18, 0x94	; 148
    4706:	38 07       	cpc	r19, r24
    4708:	80 f4       	brcc	.+32     	; 0x472a <control_workBarrier+0x38>
			barrierPosition++;
    470a:	2f 5f       	subi	r18, 0xFF	; 255
    470c:	3f 4f       	sbci	r19, 0xFF	; 255
    470e:	05 c0       	rjmp	.+10     	; 0x471a <control_workBarrier+0x28>
			ctrl.barrierIsMoving = 1;
		} else {
			ctrl.barrierIsMoving = 0;
		}
	} else {
		if (barrierPosition) {
    4710:	21 15       	cp	r18, r1
    4712:	31 05       	cpc	r19, r1
    4714:	51 f0       	breq	.+20     	; 0x472a <control_workBarrier+0x38>
			barrierPosition--;
    4716:	21 50       	subi	r18, 0x01	; 1
    4718:	30 40       	sbci	r19, 0x00	; 0
    471a:	20 93 36 29 	sts	0x2936, r18
    471e:	30 93 37 29 	sts	0x2937, r19
			ctrl.barrierIsMoving = 1;
    4722:	81 e0       	ldi	r24, 0x01	; 1
    4724:	80 93 3c 2a 	sts	0x2A3C, r24
    4728:	02 c0       	rjmp	.+4      	; 0x472e <control_workBarrier+0x3c>
		} else {
			ctrl.barrierIsMoving = 0;
    472a:	10 92 3c 2a 	sts	0x2A3C, r1
		}
	}
	servo_setServoPosition(&TCC0, 0, barrierPosition);
    472e:	40 91 36 29 	lds	r20, 0x2936
    4732:	50 91 37 29 	lds	r21, 0x2937
    4736:	80 e0       	ldi	r24, 0x00	; 0
    4738:	98 e0       	ldi	r25, 0x08	; 8
    473a:	60 e0       	ldi	r22, 0x00	; 0
    473c:	0e 94 11 21 	call	0x4222	; 0x4222 <servo_setServoPosition>
}
    4740:	08 95       	ret

00004742 <control_work>:
void control_init(void) {
	timer_addCallback(1, 1, control_work, 0);
	timer_addCallback(1, 1, control_workBarrier, 0);
}

void control_work(void * p) {
    4742:	0f 93       	push	r16
    4744:	1f 93       	push	r17
	static unsigned char running = 0;
	
	if (ctrl_isNoCarParked()) {
    4746:	0e 94 e9 22 	call	0x45d2	; 0x45d2 <ctrl_isNoCarParked>
    474a:	88 23       	and	r24, r24
    474c:	21 f0       	breq	.+8      	; 0x4756 <control_work+0x14>
		ON(LED4);
    474e:	85 e0       	ldi	r24, 0x05	; 5
    4750:	0e 94 a4 07 	call	0xf48	; 0xf48 <hw_setOn>
    4754:	03 c0       	rjmp	.+6      	; 0x475c <control_work+0x1a>
	} else {
		OFF(LED4);
    4756:	85 e0       	ldi	r24, 0x05	; 5
    4758:	0e 94 c6 07 	call	0xf8c	; 0xf8c <hw_setOff>
	}
	if (ctrl_isCarParked()) {
    475c:	0e 94 d9 22 	call	0x45b2	; 0x45b2 <ctrl_isCarParked>
    4760:	88 23       	and	r24, r24
    4762:	21 f0       	breq	.+8      	; 0x476c <control_work+0x2a>
		ON(LED5);
    4764:	86 e0       	ldi	r24, 0x06	; 6
    4766:	0e 94 a4 07 	call	0xf48	; 0xf48 <hw_setOn>
    476a:	03 c0       	rjmp	.+6      	; 0x4772 <control_work+0x30>
	} else {
		OFF(LED5);
    476c:	86 e0       	ldi	r24, 0x06	; 6
    476e:	0e 94 c6 07 	call	0xf8c	; 0xf8c <hw_setOff>
	}
	
	
	if (running)
    4772:	80 91 38 29 	lds	r24, 0x2938
    4776:	88 23       	and	r24, r24
    4778:	09 f0       	breq	.+2      	; 0x477c <control_work+0x3a>
    477a:	ac c1       	rjmp	.+856    	; 0x4ad4 <control_work+0x392>
		return;
	running = 1;
    477c:	01 e0       	ldi	r16, 0x01	; 1
    477e:	00 93 38 29 	sts	0x2938, r16
	
	// If we need to delay the next step that's done here:
	if (ctrl.delay) {
    4782:	80 91 37 2a 	lds	r24, 0x2A37
    4786:	90 91 38 2a 	lds	r25, 0x2A38
    478a:	00 97       	sbiw	r24, 0x00	; 0
    478c:	11 f0       	breq	.+4      	; 0x4792 <control_work+0x50>
		ctrl.delay--;
    478e:	01 97       	sbiw	r24, 0x01	; 1
    4790:	9b c1       	rjmp	.+822    	; 0x4ac8 <control_work+0x386>
		running = 0;
		return;
	}
	
	switch (ctrl.state) {
    4792:	10 91 35 2a 	lds	r17, 0x2A35
    4796:	13 30       	cpi	r17, 0x03	; 3
    4798:	09 f4       	brne	.+2      	; 0x479c <control_work+0x5a>
    479a:	9e c0       	rjmp	.+316    	; 0x48d8 <control_work+0x196>
    479c:	14 30       	cpi	r17, 0x04	; 4
    479e:	30 f4       	brcc	.+12     	; 0x47ac <control_work+0x6a>
    47a0:	11 30       	cpi	r17, 0x01	; 1
    47a2:	29 f1       	breq	.+74     	; 0x47ee <control_work+0xac>
    47a4:	12 30       	cpi	r17, 0x02	; 2
    47a6:	08 f0       	brcs	.+2      	; 0x47aa <control_work+0x68>
    47a8:	4f c0       	rjmp	.+158    	; 0x4848 <control_work+0x106>
    47aa:	0d c0       	rjmp	.+26     	; 0x47c6 <control_work+0x84>
    47ac:	15 30       	cpi	r17, 0x05	; 5
    47ae:	09 f4       	brne	.+2      	; 0x47b2 <control_work+0x70>
    47b0:	ee c0       	rjmp	.+476    	; 0x498e <control_work+0x24c>
    47b2:	15 30       	cpi	r17, 0x05	; 5
    47b4:	08 f4       	brcc	.+2      	; 0x47b8 <control_work+0x76>
    47b6:	cb c0       	rjmp	.+406    	; 0x494e <control_work+0x20c>
    47b8:	16 30       	cpi	r17, 0x06	; 6
    47ba:	09 f4       	brne	.+2      	; 0x47be <control_work+0x7c>
    47bc:	1a c1       	rjmp	.+564    	; 0x49f2 <control_work+0x2b0>
    47be:	17 30       	cpi	r17, 0x07	; 7
    47c0:	09 f0       	breq	.+2      	; 0x47c4 <control_work+0x82>
    47c2:	86 c1       	rjmp	.+780    	; 0x4ad0 <control_work+0x38e>
    47c4:	56 c1       	rjmp	.+684    	; 0x4a72 <control_work+0x330>
	ctrl.barrierEngaged = 1;
	ctrl.barrierIsMoving = 1;
}

void ctrl_disengageBarrier() {
	ctrl.barrierEngaged = 0;
    47c6:	10 92 36 2a 	sts	0x2A36, r1
	ctrl.barrierIsMoving = 1;
    47ca:	00 93 3c 2a 	sts	0x2A3C, r16
		case CSTATE_BARRIER_GO_UP:
			// Gerade erst eingeschaltet worden. Der Servo muss im Grundzustand auf "Parkplatz frei" stehen damit wir ein potentiell parkendes Auto nicht beschädigen können.
			ctrl_disengageBarrier();
			
			// Parkplatz optisch "sperren" (mit blinken!)
			light_setMode(LIGHT_FLASH_RED);
    47ce:	83 e0       	ldi	r24, 0x03	; 3
    47d0:	0e 94 80 25 	call	0x4b00	; 0x4b00 <light_setMode>
			
			// Einige Zeit warten bis wir den Parkplatz auf Freisein testen
			ctrl.delay = 2500; // Festes Delay um genug Sensordaten zu sammeln
    47d4:	84 ec       	ldi	r24, 0xC4	; 196
    47d6:	99 e0       	ldi	r25, 0x09	; 9
    47d8:	80 93 37 2a 	sts	0x2A37, r24
    47dc:	90 93 38 2a 	sts	0x2A38, r25
			
			// Als nächstes auf Freisein testen und Sperre hoch fahren:
			ctrl.state = CSTATE_INIT_CHECK_FREE;
    47e0:	00 93 35 2a 	sts	0x2A35, r16
			
			ctrl.counter = 0; // Neu zählen
    47e4:	10 92 39 2a 	sts	0x2A39, r1
    47e8:	10 92 3a 2a 	sts	0x2A3A, r1
    47ec:	71 c1       	rjmp	.+738    	; 0x4ad0 <control_work+0x38e>
			break;
			
		case CSTATE_INIT_CHECK_FREE:
			if (ctrl_isNoCarParked()) {
    47ee:	0e 94 e9 22 	call	0x45d2	; 0x45d2 <ctrl_isNoCarParked>
    47f2:	88 23       	and	r24, r24
    47f4:	09 f4       	brne	.+2      	; 0x47f8 <control_work+0xb6>
    47f6:	62 c1       	rjmp	.+708    	; 0x4abc <control_work+0x37a>
				ctrl.counter++;
    47f8:	80 91 39 2a 	lds	r24, 0x2A39
    47fc:	90 91 3a 2a 	lds	r25, 0x2A3A
    4800:	01 96       	adiw	r24, 0x01	; 1
    4802:	80 93 39 2a 	sts	0x2A39, r24
    4806:	90 93 3a 2a 	sts	0x2A3A, r25
				if (ctrl.counter > BARRIER_UP_FLASH_TIME_SEC) { // Über eine Sekunde testen
    480a:	0b 97       	sbiw	r24, 0x0b	; 11
    480c:	08 f4       	brcc	.+2      	; 0x4810 <control_work+0xce>
    480e:	5a c1       	rjmp	.+692    	; 0x4ac4 <control_work+0x382>
					uart_printf_P(PSTR("Sperre hoch..\n"));
    4810:	0f 92       	push	r0
    4812:	0f 92       	push	r0
    4814:	8c e1       	ldi	r24, 0x1C	; 28
    4816:	93 e0       	ldi	r25, 0x03	; 3
    4818:	ed b7       	in	r30, 0x3d	; 61
    481a:	fe b7       	in	r31, 0x3e	; 62
    481c:	81 83       	std	Z+1, r24	; 0x01
    481e:	92 83       	std	Z+2, r25	; 0x02
    4820:	0e 94 99 20 	call	0x4132	; 0x4132 <uart_printf_P>
		return 1;
	return 0;
}

void ctrl_engageBarrier() {
	ctrl.barrierEngaged = 1;
    4824:	10 93 36 2a 	sts	0x2A36, r17
	ctrl.barrierIsMoving = 1;
    4828:	10 93 3c 2a 	sts	0x2A3C, r17
					uart_printf_P(PSTR("Sperre hoch..\n"));
					// Sperre jetzt hoch fahren:
					ctrl_engageBarrier();
					// Erkennungsdistanz unempfindlicher, Sperre geht hoch.
					//ctrl.detectDistance = DISTANCE_CAR_DETECT;
					ctrl.detectDistance = DISTANCE_BARRIER_DETECT;
    482c:	84 e6       	ldi	r24, 0x64	; 100
    482e:	90 e0       	ldi	r25, 0x00	; 0
    4830:	80 93 42 2a 	sts	0x2A42, r24
    4834:	90 93 43 2a 	sts	0x2A43, r25
					
					ctrl.counter = 0; // Neu zählen
    4838:	10 92 39 2a 	sts	0x2A39, r1
    483c:	10 92 3a 2a 	sts	0x2A3A, r1
					ctrl.state = CSTATE_INIT_RAISE_BARRIER;
    4840:	82 e0       	ldi	r24, 0x02	; 2
    4842:	80 93 35 2a 	sts	0x2A35, r24
    4846:	34 c0       	rjmp	.+104    	; 0x48b0 <control_work+0x16e>
			}
			ctrl.delay = 1000; // Jede Sekunde testen
			break;
			
		case CSTATE_INIT_RAISE_BARRIER:
			ctrl.delay = 10;
    4848:	8a e0       	ldi	r24, 0x0A	; 10
    484a:	90 e0       	ldi	r25, 0x00	; 0
    484c:	80 93 37 2a 	sts	0x2A37, r24
    4850:	90 93 38 2a 	sts	0x2A38, r25
			if (globals.skipBarrierCollisionDetection || ctrl_isNoCarParked()) { // Sobald wir nicht mehr sicher sind müssen wir die Sperre senken und zurück gehen..
    4854:	80 91 11 2a 	lds	r24, 0x2A11
    4858:	88 23       	and	r24, r24
    485a:	21 f4       	brne	.+8      	; 0x4864 <control_work+0x122>
    485c:	0e 94 e9 22 	call	0x45d2	; 0x45d2 <ctrl_isNoCarParked>
    4860:	88 23       	and	r24, r24
    4862:	49 f1       	breq	.+82     	; 0x48b6 <control_work+0x174>
				ctrl.counter++;
    4864:	80 91 39 2a 	lds	r24, 0x2A39
    4868:	90 91 3a 2a 	lds	r25, 0x2A3A
    486c:	01 96       	adiw	r24, 0x01	; 1
    486e:	80 93 39 2a 	sts	0x2A39, r24
    4872:	90 93 3a 2a 	sts	0x2A3A, r25
				if (!ctrl.barrierIsMoving) { // 10ms * 100 = 1s
    4876:	80 91 3c 2a 	lds	r24, 0x2A3C
    487a:	88 23       	and	r24, r24
    487c:	09 f0       	breq	.+2      	; 0x4880 <control_work+0x13e>
    487e:	28 c1       	rjmp	.+592    	; 0x4ad0 <control_work+0x38e>
					ctrl.state = CSTATE_BARRIER_IS_UP;
    4880:	83 e0       	ldi	r24, 0x03	; 3
    4882:	80 93 35 2a 	sts	0x2A35, r24
					uart_printf_P(PSTR("Sperre ist HOCH.\n"));
    4886:	0f 92       	push	r0
    4888:	0f 92       	push	r0
    488a:	8a e0       	ldi	r24, 0x0A	; 10
    488c:	93 e0       	ldi	r25, 0x03	; 3
    488e:	ed b7       	in	r30, 0x3d	; 61
    4890:	fe b7       	in	r31, 0x3e	; 62
    4892:	81 83       	std	Z+1, r24	; 0x01
    4894:	92 83       	std	Z+2, r25	; 0x02
    4896:	0e 94 99 20 	call	0x4132	; 0x4132 <uart_printf_P>
					// Ab jetzt kann man überhaupt erst den Parkplatz für jemand freigeben
					ctrl.unlockForID = 0;
    489a:	10 92 3e 2a 	sts	0x2A3E, r1
    489e:	10 92 3f 2a 	sts	0x2A3F, r1
    48a2:	10 92 40 2a 	sts	0x2A40, r1
    48a6:	10 92 41 2a 	sts	0x2A41, r1
					ctrl.readyToUnlock = 1;
    48aa:	81 e0       	ldi	r24, 0x01	; 1
    48ac:	80 93 3d 2a 	sts	0x2A3D, r24
    48b0:	0f 90       	pop	r0
    48b2:	0f 90       	pop	r0
    48b4:	0d c1       	rjmp	.+538    	; 0x4ad0 <control_work+0x38e>
	ctrl.barrierEngaged = 1;
	ctrl.barrierIsMoving = 1;
}

void ctrl_disengageBarrier() {
	ctrl.barrierEngaged = 0;
    48b6:	10 92 36 2a 	sts	0x2A36, r1
	ctrl.barrierIsMoving = 1;
    48ba:	00 93 3c 2a 	sts	0x2A3C, r16
					ctrl.unlockForID = 0;
					ctrl.readyToUnlock = 1;
				}
			} else {
				ctrl_disengageBarrier(); // Sperre wieder runter, sicherheitshalber
				uart_printf_P(PSTR("Fahrzeug im Weg! Senke Sperre.\n"));
    48be:	0f 92       	push	r0
    48c0:	0f 92       	push	r0
    48c2:	8a ee       	ldi	r24, 0xEA	; 234
    48c4:	92 e0       	ldi	r25, 0x02	; 2
    48c6:	ed b7       	in	r30, 0x3d	; 61
    48c8:	fe b7       	in	r31, 0x3e	; 62
    48ca:	81 83       	std	Z+1, r24	; 0x01
    48cc:	92 83       	std	Z+2, r25	; 0x02
    48ce:	0e 94 99 20 	call	0x4132	; 0x4132 <uart_printf_P>
				ctrl.state = CSTATE_BARRIER_GO_UP;
    48d2:	10 92 35 2a 	sts	0x2A35, r1
    48d6:	ec cf       	rjmp	.-40     	; 0x48b0 <control_work+0x16e>
			}
			break;
			
		// IDLE-Zustand:
		case CSTATE_BARRIER_IS_UP:
			if (/*sperre runter machen */ ISON(KEY0) || ctrl.unlockForID) {
    48d8:	89 e0       	ldi	r24, 0x09	; 9
    48da:	0e 94 e8 07 	call	0xfd0	; 0xfd0 <hw_isOn>
    48de:	88 23       	and	r24, r24
    48e0:	61 f4       	brne	.+24     	; 0x48fa <control_work+0x1b8>
    48e2:	80 91 3e 2a 	lds	r24, 0x2A3E
    48e6:	90 91 3f 2a 	lds	r25, 0x2A3F
    48ea:	a0 91 40 2a 	lds	r26, 0x2A40
    48ee:	b0 91 41 2a 	lds	r27, 0x2A41
    48f2:	00 97       	sbiw	r24, 0x00	; 0
    48f4:	a1 05       	cpc	r26, r1
    48f6:	b1 05       	cpc	r27, r1
    48f8:	01 f1       	breq	.+64     	; 0x493a <control_work+0x1f8>
				ctrl.readyToUnlock = 0;
    48fa:	10 92 3d 2a 	sts	0x2A3D, r1
				uart_printf_P(PSTR("Parkplatz angefordert.\n"));
    48fe:	0f 92       	push	r0
    4900:	0f 92       	push	r0
    4902:	82 ed       	ldi	r24, 0xD2	; 210
    4904:	92 e0       	ldi	r25, 0x02	; 2
    4906:	ed b7       	in	r30, 0x3d	; 61
    4908:	fe b7       	in	r31, 0x3e	; 62
    490a:	81 83       	std	Z+1, r24	; 0x01
    490c:	92 83       	std	Z+2, r25	; 0x02
    490e:	0e 94 99 20 	call	0x4132	; 0x4132 <uart_printf_P>
				// Sperre runter fahren:
				light_setMode(LIGHT_FLASH_RED);
    4912:	0f 90       	pop	r0
    4914:	0f 90       	pop	r0
    4916:	83 e0       	ldi	r24, 0x03	; 3
    4918:	0e 94 80 25 	call	0x4b00	; 0x4b00 <light_setMode>
	ctrl.barrierEngaged = 1;
	ctrl.barrierIsMoving = 1;
}

void ctrl_disengageBarrier() {
	ctrl.barrierEngaged = 0;
    491c:	10 92 36 2a 	sts	0x2A36, r1
	ctrl.barrierIsMoving = 1;
    4920:	81 e0       	ldi	r24, 0x01	; 1
    4922:	80 93 3c 2a 	sts	0x2A3C, r24
				ctrl.readyToUnlock = 0;
				uart_printf_P(PSTR("Parkplatz angefordert.\n"));
				// Sperre runter fahren:
				light_setMode(LIGHT_FLASH_RED);
				ctrl_disengageBarrier();
				ctrl.delay = 2500;
    4926:	84 ec       	ldi	r24, 0xC4	; 196
    4928:	99 e0       	ldi	r25, 0x09	; 9
    492a:	80 93 37 2a 	sts	0x2A37, r24
    492e:	90 93 38 2a 	sts	0x2A38, r25
				ctrl.state = CSTATE_BARRIER_GOING_DOWN;
    4932:	84 e0       	ldi	r24, 0x04	; 4
    4934:	80 93 35 2a 	sts	0x2A35, r24
    4938:	cb c0       	rjmp	.+406    	; 0x4ad0 <control_work+0x38e>
				break;
			}
			ctrl.delay = 100;
    493a:	84 e6       	ldi	r24, 0x64	; 100
    493c:	90 e0       	ldi	r25, 0x00	; 0
    493e:	80 93 37 2a 	sts	0x2A37, r24
    4942:	90 93 38 2a 	sts	0x2A38, r25
			light_setMode(LIGHT_RED); // Rotes Dauerlicht
    4946:	81 e0       	ldi	r24, 0x01	; 1
    4948:	0e 94 80 25 	call	0x4b00	; 0x4b00 <light_setMode>
    494c:	c1 c0       	rjmp	.+386    	; 0x4ad0 <control_work+0x38e>
			break;
			
		case CSTATE_BARRIER_GOING_DOWN:
			if (ctrl.barrierIsMoving) // Warten bis die Sperre runter ist
    494e:	80 91 3c 2a 	lds	r24, 0x2A3C
    4952:	88 23       	and	r24, r24
    4954:	09 f0       	breq	.+2      	; 0x4958 <control_work+0x216>
    4956:	bc c0       	rjmp	.+376    	; 0x4ad0 <control_work+0x38e>
				break;
			light_setMode(LIGHT_GREEN);
    4958:	82 e0       	ldi	r24, 0x02	; 2
    495a:	0e 94 80 25 	call	0x4b00	; 0x4b00 <light_setMode>
			uart_printf_P(PSTR("Parkplatz ist befahrbar.\n"));
    495e:	0f 92       	push	r0
    4960:	0f 92       	push	r0
    4962:	88 eb       	ldi	r24, 0xB8	; 184
    4964:	92 e0       	ldi	r25, 0x02	; 2
    4966:	ed b7       	in	r30, 0x3d	; 61
    4968:	fe b7       	in	r31, 0x3e	; 62
    496a:	81 83       	std	Z+1, r24	; 0x01
    496c:	92 83       	std	Z+2, r25	; 0x02
    496e:	0e 94 99 20 	call	0x4132	; 0x4132 <uart_printf_P>
			ctrl.counter = 0;
    4972:	10 92 39 2a 	sts	0x2A39, r1
    4976:	10 92 3a 2a 	sts	0x2A3A, r1
			ctrl.state = CSTATE_BARRIER_IS_DOWN;
    497a:	85 e0       	ldi	r24, 0x05	; 5
    497c:	80 93 35 2a 	sts	0x2A35, r24
			// Erkennungsdistanz empfindlicher, Sperre ist runter.
			ctrl.detectDistance = DISTANCE_CAR_DETECT;
    4980:	88 ec       	ldi	r24, 0xC8	; 200
    4982:	90 e0       	ldi	r25, 0x00	; 0
    4984:	80 93 42 2a 	sts	0x2A42, r24
    4988:	90 93 43 2a 	sts	0x2A43, r25
    498c:	91 cf       	rjmp	.-222    	; 0x48b0 <control_work+0x16e>
			
			break;
			
		case CSTATE_BARRIER_IS_DOWN:
			// Jetzt warten wir bis zu zwei Minute darauf, das ein Auto auf den Parkplatz fährt
			if (ctrl_isCarParked()) {
    498e:	0e 94 d9 22 	call	0x45b2	; 0x45b2 <ctrl_isCarParked>
    4992:	88 23       	and	r24, r24
    4994:	51 f0       	breq	.+20     	; 0x49aa <control_work+0x268>
				light_setMode(LIGHT_GREEN);
    4996:	82 e0       	ldi	r24, 0x02	; 2
    4998:	0e 94 80 25 	call	0x4b00	; 0x4b00 <light_setMode>
				ctrl.counter = 0;
    499c:	10 92 39 2a 	sts	0x2A39, r1
    49a0:	10 92 3a 2a 	sts	0x2A3A, r1
				ctrl.state = CSTATE_CHECK_CAR_PARKING;
    49a4:	86 e0       	ldi	r24, 0x06	; 6
    49a6:	80 93 35 2a 	sts	0x2A35, r24
			}
			ctrl.counter++;
    49aa:	80 91 39 2a 	lds	r24, 0x2A39
    49ae:	90 91 3a 2a 	lds	r25, 0x2A3A
    49b2:	01 96       	adiw	r24, 0x01	; 1
    49b4:	80 93 39 2a 	sts	0x2A39, r24
    49b8:	90 93 3a 2a 	sts	0x2A3A, r25
			// 10 Sekunden bevor wir die Sperre wieder aktivieren muss die Ampel wieder auf rot.
			if (ctrl.counter == (BARRIER_DOWN_CANCEL_PARKING_DELAY_SEC - BARRIER_UP_FLASH_TIME_SEC)) {
    49bc:	82 33       	cpi	r24, 0x32	; 50
    49be:	91 05       	cpc	r25, r1
    49c0:	21 f4       	brne	.+8      	; 0x49ca <control_work+0x288>
				light_setMode(LIGHT_FLASH_RED);
    49c2:	83 e0       	ldi	r24, 0x03	; 3
    49c4:	0e 94 80 25 	call	0x4b00	; 0x4b00 <light_setMode>
    49c8:	7d c0       	rjmp	.+250    	; 0x4ac4 <control_work+0x382>
			} else if (ctrl.counter > BARRIER_DOWN_CANCEL_PARKING_DELAY_SEC) {
    49ca:	cd 97       	sbiw	r24, 0x3d	; 61
    49cc:	08 f4       	brcc	.+2      	; 0x49d0 <control_work+0x28e>
    49ce:	7a c0       	rjmp	.+244    	; 0x4ac4 <control_work+0x382>
				uart_printf_P(PSTR("Kein Fahrzeug geparkt - sperre Parkplatz..\n"));
    49d0:	0f 92       	push	r0
    49d2:	0f 92       	push	r0
    49d4:	8c e8       	ldi	r24, 0x8C	; 140
    49d6:	92 e0       	ldi	r25, 0x02	; 2
    49d8:	ed b7       	in	r30, 0x3d	; 61
    49da:	fe b7       	in	r31, 0x3e	; 62
    49dc:	81 83       	std	Z+1, r24	; 0x01
    49de:	92 83       	std	Z+2, r25	; 0x02
    49e0:	0e 94 99 20 	call	0x4132	; 0x4132 <uart_printf_P>
				// Parkplatz wieder sperren, es fährt kein Kunde drauf..!
				ctrl.state = CSTATE_BARRIER_GO_UP;
    49e4:	10 92 35 2a 	sts	0x2A35, r1
				ctrl.counter = 0;
    49e8:	10 92 39 2a 	sts	0x2A39, r1
    49ec:	10 92 3a 2a 	sts	0x2A3A, r1
    49f0:	1c c0       	rjmp	.+56     	; 0x4a2a <control_work+0x2e8>
			}
			ctrl.delay = 1000; // Sekunden-Ticks
			break;
			
		case CSTATE_CHECK_CAR_PARKING:
			if (ctrl.counter < CAR_PARKED_TO_COUTING_DELAY_SEC) {
    49f2:	80 91 39 2a 	lds	r24, 0x2A39
    49f6:	90 91 3a 2a 	lds	r25, 0x2A3A
    49fa:	0a 97       	sbiw	r24, 0x0a	; 10
    49fc:	c8 f4       	brcc	.+50     	; 0x4a30 <control_work+0x2ee>
				if (ctrl_isCarParked()) {
    49fe:	0e 94 d9 22 	call	0x45b2	; 0x45b2 <ctrl_isCarParked>
    4a02:	88 23       	and	r24, r24
    4a04:	29 f0       	breq	.+10     	; 0x4a10 <control_work+0x2ce>
					ctrl.counter++;
    4a06:	80 91 39 2a 	lds	r24, 0x2A39
    4a0a:	90 91 3a 2a 	lds	r25, 0x2A3A
    4a0e:	50 c0       	rjmp	.+160    	; 0x4ab0 <control_work+0x36e>
				} else {
					uart_printf_P(PSTR("Doch kein Auto..?\n"));
    4a10:	0f 92       	push	r0
    4a12:	0f 92       	push	r0
    4a14:	89 e7       	ldi	r24, 0x79	; 121
    4a16:	92 e0       	ldi	r25, 0x02	; 2
    4a18:	ed b7       	in	r30, 0x3d	; 61
    4a1a:	fe b7       	in	r31, 0x3e	; 62
    4a1c:	81 83       	std	Z+1, r24	; 0x01
    4a1e:	92 83       	std	Z+2, r25	; 0x02
    4a20:	0e 94 99 20 	call	0x4132	; 0x4132 <uart_printf_P>
					ctrl.state = CSTATE_BARRIER_IS_DOWN;
    4a24:	85 e0       	ldi	r24, 0x05	; 5
    4a26:	80 93 35 2a 	sts	0x2A35, r24
    4a2a:	0f 90       	pop	r0
    4a2c:	0f 90       	pop	r0
    4a2e:	4a c0       	rjmp	.+148    	; 0x4ac4 <control_work+0x382>
				}
			} else {
				uart_printf_P(PSTR("Auto geparkt.\n"));
    4a30:	0f 92       	push	r0
    4a32:	0f 92       	push	r0
    4a34:	8a e6       	ldi	r24, 0x6A	; 106
    4a36:	92 e0       	ldi	r25, 0x02	; 2
    4a38:	ed b7       	in	r30, 0x3d	; 61
    4a3a:	fe b7       	in	r31, 0x3e	; 62
    4a3c:	81 83       	std	Z+1, r24	; 0x01
    4a3e:	92 83       	std	Z+2, r25	; 0x02
    4a40:	0e 94 99 20 	call	0x4132	; 0x4132 <uart_printf_P>
				
				// Accounting starten mit der angegebenen Reservierungsnummer:
				accounting_startParking(ctrl.unlockForID);
    4a44:	0f 90       	pop	r0
    4a46:	0f 90       	pop	r0
    4a48:	60 91 3e 2a 	lds	r22, 0x2A3E
    4a4c:	70 91 3f 2a 	lds	r23, 0x2A3F
    4a50:	80 91 40 2a 	lds	r24, 0x2A40
    4a54:	90 91 41 2a 	lds	r25, 0x2A41
    4a58:	0e 94 38 28 	call	0x5070	; 0x5070 <accounting_startParking>
				
				// Okay, Light auf rot, Auto ist offenbar geparkt
				light_setMode(LIGHT_RED); // Rotes Dauerlicht, Fahrzeug erkannt. TODO: Anderes Lichtzeichen so dass der Nutzer erkennt das abgerechnet wird? Licht ganz aus?
    4a5c:	81 e0       	ldi	r24, 0x01	; 1
    4a5e:	0e 94 80 25 	call	0x4b00	; 0x4b00 <light_setMode>
				
				ctrl.counter = 0;
    4a62:	10 92 39 2a 	sts	0x2A39, r1
    4a66:	10 92 3a 2a 	sts	0x2A3A, r1
				ctrl.state = CSTATE_CAR_PARKING;
    4a6a:	87 e0       	ldi	r24, 0x07	; 7
    4a6c:	80 93 35 2a 	sts	0x2A35, r24
    4a70:	29 c0       	rjmp	.+82     	; 0x4ac4 <control_work+0x382>
			}
			ctrl.delay = 1000; // Sekunden-Ticks
			break;
			
		case CSTATE_CAR_PARKING:
			if (ctrl_isNoCarParked()) {
    4a72:	0e 94 e9 22 	call	0x45d2	; 0x45d2 <ctrl_isNoCarParked>
    4a76:	88 23       	and	r24, r24
    4a78:	09 f1       	breq	.+66     	; 0x4abc <control_work+0x37a>
				if (ctrl.counter > COUNTING_TO_NO_CAR_PARKED_DELAY_SEC) {
    4a7a:	80 91 39 2a 	lds	r24, 0x2A39
    4a7e:	90 91 3a 2a 	lds	r25, 0x2A3A
    4a82:	8b 30       	cpi	r24, 0x0B	; 11
    4a84:	91 05       	cpc	r25, r1
    4a86:	a0 f0       	brcs	.+40     	; 0x4ab0 <control_work+0x36e>
					light_setMode(LIGHT_FLASH_RED); // Sperre geht gleich hoch
    4a88:	83 e0       	ldi	r24, 0x03	; 3
    4a8a:	0e 94 80 25 	call	0x4b00	; 0x4b00 <light_setMode>
					uart_printf_P(PSTR("Auto verlässt Parkplatz..\n"));
    4a8e:	0f 92       	push	r0
    4a90:	0f 92       	push	r0
    4a92:	8f e4       	ldi	r24, 0x4F	; 79
    4a94:	92 e0       	ldi	r25, 0x02	; 2
    4a96:	ed b7       	in	r30, 0x3d	; 61
    4a98:	fe b7       	in	r31, 0x3e	; 62
    4a9a:	81 83       	std	Z+1, r24	; 0x01
    4a9c:	92 83       	std	Z+2, r25	; 0x02
    4a9e:	0e 94 99 20 	call	0x4132	; 0x4132 <uart_printf_P>
					ctrl.state = CSTATE_BARRIER_GO_UP;
    4aa2:	10 92 35 2a 	sts	0x2A35, r1
					// Abrechnung hier abschließen:
					accounting_stopParking();
    4aa6:	0f 90       	pop	r0
    4aa8:	0f 90       	pop	r0
    4aaa:	0e 94 01 28 	call	0x5002	; 0x5002 <accounting_stopParking>
    4aae:	0a c0       	rjmp	.+20     	; 0x4ac4 <control_work+0x382>
				} else {
					ctrl.counter++;
    4ab0:	01 96       	adiw	r24, 0x01	; 1
    4ab2:	80 93 39 2a 	sts	0x2A39, r24
    4ab6:	90 93 3a 2a 	sts	0x2A3A, r25
    4aba:	04 c0       	rjmp	.+8      	; 0x4ac4 <control_work+0x382>
				}
			} else {
				ctrl.counter = 0;
    4abc:	10 92 39 2a 	sts	0x2A39, r1
    4ac0:	10 92 3a 2a 	sts	0x2A3A, r1
			}
			ctrl.delay = 1000; // Sekunden-Takt
    4ac4:	88 ee       	ldi	r24, 0xE8	; 232
    4ac6:	93 e0       	ldi	r25, 0x03	; 3
    4ac8:	80 93 37 2a 	sts	0x2A37, r24
    4acc:	90 93 38 2a 	sts	0x2A38, r25
			break;
	}

	running = 0;
    4ad0:	10 92 38 29 	sts	0x2938, r1
}
    4ad4:	1f 91       	pop	r17
    4ad6:	0f 91       	pop	r16
    4ad8:	08 95       	ret

00004ada <control_init>:

void control_work(void * p);
void control_workBarrier(void * p);

void control_init(void) {
	timer_addCallback(1, 1, control_work, 0);
    4ada:	81 e0       	ldi	r24, 0x01	; 1
    4adc:	90 e0       	ldi	r25, 0x00	; 0
    4ade:	61 e0       	ldi	r22, 0x01	; 1
    4ae0:	41 ea       	ldi	r20, 0xA1	; 161
    4ae2:	53 e2       	ldi	r21, 0x23	; 35
    4ae4:	20 e0       	ldi	r18, 0x00	; 0
    4ae6:	30 e0       	ldi	r19, 0x00	; 0
    4ae8:	0e 94 e9 04 	call	0x9d2	; 0x9d2 <timer_addCallback>
	timer_addCallback(1, 1, control_workBarrier, 0);
    4aec:	81 e0       	ldi	r24, 0x01	; 1
    4aee:	90 e0       	ldi	r25, 0x00	; 0
    4af0:	61 e0       	ldi	r22, 0x01	; 1
    4af2:	49 e7       	ldi	r20, 0x79	; 121
    4af4:	53 e2       	ldi	r21, 0x23	; 35
    4af6:	20 e0       	ldi	r18, 0x00	; 0
    4af8:	30 e0       	ldi	r19, 0x00	; 0
    4afa:	0e 94 e9 04 	call	0x9d2	; 0x9d2 <timer_addCallback>
}
    4afe:	08 95       	ret

00004b00 <light_setMode>:
			ON(LIGHT_RED);
			break;
	}
}

void light_setMode(LIGHT_MODE_e lightMode) {
    4b00:	98 2f       	mov	r25, r24
	if (light_mode != (unsigned char)lightMode) {
    4b02:	80 91 39 29 	lds	r24, 0x2939
    4b06:	89 17       	cp	r24, r25
    4b08:	59 f0       	breq	.+22     	; 0x4b20 <light_setMode+0x20>
		light_mode = (unsigned char)lightMode;
    4b0a:	90 93 39 29 	sts	0x2939, r25
		lightCounter = LIGHT_INTERVAL;
    4b0e:	8a e0       	ldi	r24, 0x0A	; 10
    4b10:	80 93 3a 29 	sts	0x293A, r24
		OFF(LIGHT_GREEN);
    4b14:	8b e2       	ldi	r24, 0x2B	; 43
    4b16:	0e 94 c6 07 	call	0xf8c	; 0xf8c <hw_setOff>
		OFF(LIGHT_RED);
    4b1a:	8a e2       	ldi	r24, 0x2A	; 42
    4b1c:	0e 94 c6 07 	call	0xf8c	; 0xf8c <hw_setOff>
    4b20:	08 95       	ret

00004b22 <light_work>:
	timer_addCallback(50, 1, light_work, 0);
	
}

void light_work(void * p) {
	if (lightCounter--)
    4b22:	80 91 3a 29 	lds	r24, 0x293A
    4b26:	81 50       	subi	r24, 0x01	; 1
    4b28:	80 93 3a 29 	sts	0x293A, r24
    4b2c:	8f 5f       	subi	r24, 0xFF	; 255
    4b2e:	09 f0       	breq	.+2      	; 0x4b32 <light_work+0x10>
    4b30:	58 c0       	rjmp	.+176    	; 0x4be2 <light_work+0xc0>
		return;
	lightCounter = LIGHT_INTERVAL - 1;
    4b32:	89 e0       	ldi	r24, 0x09	; 9
    4b34:	80 93 3a 29 	sts	0x293A, r24
	
	switch (light_mode) {
    4b38:	80 91 39 29 	lds	r24, 0x2939
    4b3c:	83 30       	cpi	r24, 0x03	; 3
    4b3e:	a1 f0       	breq	.+40     	; 0x4b68 <light_work+0x46>
    4b40:	84 30       	cpi	r24, 0x04	; 4
    4b42:	28 f4       	brcc	.+10     	; 0x4b4e <light_work+0x2c>
    4b44:	81 30       	cpi	r24, 0x01	; 1
    4b46:	59 f0       	breq	.+22     	; 0x4b5e <light_work+0x3c>
    4b48:	82 30       	cpi	r24, 0x02	; 2
    4b4a:	28 f5       	brcc	.+74     	; 0x4b96 <light_work+0x74>
    4b4c:	12 c0       	rjmp	.+36     	; 0x4b72 <light_work+0x50>
    4b4e:	85 30       	cpi	r24, 0x05	; 5
    4b50:	49 f1       	breq	.+82     	; 0x4ba4 <light_work+0x82>
    4b52:	85 30       	cpi	r24, 0x05	; 5
    4b54:	b8 f0       	brcs	.+46     	; 0x4b84 <light_work+0x62>
    4b56:	86 30       	cpi	r24, 0x06	; 6
    4b58:	09 f0       	breq	.+2      	; 0x4b5c <light_work+0x3a>
    4b5a:	43 c0       	rjmp	.+134    	; 0x4be2 <light_work+0xc0>
    4b5c:	33 c0       	rjmp	.+102    	; 0x4bc4 <light_work+0xa2>
		case LIGHT_OFF:
			OFF(LIGHT_RED);
			OFF(LIGHT_GREEN);
			break;
		case LIGHT_RED:
			OFF(LIGHT_GREEN);
    4b5e:	8b e2       	ldi	r24, 0x2B	; 43
    4b60:	0e 94 c6 07 	call	0xf8c	; 0xf8c <hw_setOff>
			ON(LIGHT_RED);
    4b64:	8a e2       	ldi	r24, 0x2A	; 42
    4b66:	2b c0       	rjmp	.+86     	; 0x4bbe <light_work+0x9c>
		case LIGHT_GREEN:
			ON(LIGHT_GREEN);
			OFF(LIGHT_RED);	
			break;
		case LIGHT_FLASH_RED:
			if (ISON(LIGHT_RED)) {
    4b68:	8a e2       	ldi	r24, 0x2A	; 42
    4b6a:	0e 94 e8 07 	call	0xfd0	; 0xfd0 <hw_isOn>
    4b6e:	88 23       	and	r24, r24
    4b70:	21 f0       	breq	.+8      	; 0x4b7a <light_work+0x58>
				OFF(LIGHT_RED);
    4b72:	8a e2       	ldi	r24, 0x2A	; 42
    4b74:	0e 94 c6 07 	call	0xf8c	; 0xf8c <hw_setOff>
    4b78:	03 c0       	rjmp	.+6      	; 0x4b80 <light_work+0x5e>
			} else {
				ON(LIGHT_RED);
    4b7a:	8a e2       	ldi	r24, 0x2A	; 42
    4b7c:	0e 94 a4 07 	call	0xf48	; 0xf48 <hw_setOn>
			}
			OFF(LIGHT_GREEN);
    4b80:	8b e2       	ldi	r24, 0x2B	; 43
    4b82:	0d c0       	rjmp	.+26     	; 0x4b9e <light_work+0x7c>
			break;
		case LIGHT_FLASH_GREEN:
			if (ISON(LIGHT_GREEN)) {
    4b84:	8b e2       	ldi	r24, 0x2B	; 43
    4b86:	0e 94 e8 07 	call	0xfd0	; 0xfd0 <hw_isOn>
    4b8a:	88 23       	and	r24, r24
    4b8c:	21 f0       	breq	.+8      	; 0x4b96 <light_work+0x74>
				OFF(LIGHT_GREEN);
    4b8e:	8b e2       	ldi	r24, 0x2B	; 43
    4b90:	0e 94 c6 07 	call	0xf8c	; 0xf8c <hw_setOff>
    4b94:	03 c0       	rjmp	.+6      	; 0x4b9c <light_work+0x7a>
			} else {
				ON(LIGHT_GREEN);
    4b96:	8b e2       	ldi	r24, 0x2B	; 43
    4b98:	0e 94 a4 07 	call	0xf48	; 0xf48 <hw_setOn>
			}
			OFF(LIGHT_RED);
    4b9c:	8a e2       	ldi	r24, 0x2A	; 42
    4b9e:	0e 94 c6 07 	call	0xf8c	; 0xf8c <hw_setOff>
    4ba2:	08 95       	ret
			break;
		case LIGHT_FLASH_RED_W_GREEN:
			if (ISON(LIGHT_RED)) {
    4ba4:	8a e2       	ldi	r24, 0x2A	; 42
    4ba6:	0e 94 e8 07 	call	0xfd0	; 0xfd0 <hw_isOn>
    4baa:	88 23       	and	r24, r24
    4bac:	21 f0       	breq	.+8      	; 0x4bb6 <light_work+0x94>
				OFF(LIGHT_RED);
    4bae:	8a e2       	ldi	r24, 0x2A	; 42
    4bb0:	0e 94 c6 07 	call	0xf8c	; 0xf8c <hw_setOff>
    4bb4:	03 c0       	rjmp	.+6      	; 0x4bbc <light_work+0x9a>
			} else {
				ON(LIGHT_RED);
    4bb6:	8a e2       	ldi	r24, 0x2A	; 42
    4bb8:	0e 94 a4 07 	call	0xf48	; 0xf48 <hw_setOn>
			}
			ON(LIGHT_GREEN);
    4bbc:	8b e2       	ldi	r24, 0x2B	; 43
    4bbe:	0e 94 a4 07 	call	0xf48	; 0xf48 <hw_setOn>
    4bc2:	08 95       	ret
			break;
		case LIGHT_FLASH_GREEN_W_RED:
			if (ISON(LIGHT_GREEN)) {
    4bc4:	8b e2       	ldi	r24, 0x2B	; 43
    4bc6:	0e 94 e8 07 	call	0xfd0	; 0xfd0 <hw_isOn>
    4bca:	88 23       	and	r24, r24
    4bcc:	21 f0       	breq	.+8      	; 0x4bd6 <light_work+0xb4>
				OFF(LIGHT_GREEN);
    4bce:	8b e2       	ldi	r24, 0x2B	; 43
    4bd0:	0e 94 c6 07 	call	0xf8c	; 0xf8c <hw_setOff>
    4bd4:	03 c0       	rjmp	.+6      	; 0x4bdc <light_work+0xba>
			} else {
				ON(LIGHT_GREEN);
    4bd6:	8b e2       	ldi	r24, 0x2B	; 43
    4bd8:	0e 94 a4 07 	call	0xf48	; 0xf48 <hw_setOn>
			}
			ON(LIGHT_RED);
    4bdc:	8a e2       	ldi	r24, 0x2A	; 42
    4bde:	0e 94 a4 07 	call	0xf48	; 0xf48 <hw_setOn>
    4be2:	08 95       	ret

00004be4 <light_init>:
static unsigned char light_mode;
static unsigned char lightCounter;
void light_work(void * p);

void light_init() {
	timer_addCallback(50, 1, light_work, 0);
    4be4:	82 e3       	ldi	r24, 0x32	; 50
    4be6:	90 e0       	ldi	r25, 0x00	; 0
    4be8:	61 e0       	ldi	r22, 0x01	; 1
    4bea:	41 e9       	ldi	r20, 0x91	; 145
    4bec:	55 e2       	ldi	r21, 0x25	; 37
    4bee:	20 e0       	ldi	r18, 0x00	; 0
    4bf0:	30 e0       	ldi	r19, 0x00	; 0
    4bf2:	0e 94 e9 04 	call	0x9d2	; 0x9d2 <timer_addCallback>
	
}
    4bf6:	08 95       	ret

00004bf8 <accounting_isCounting>:
* \brief Query if there is an ongoing parking event
* @returns 1 if a parking event is commencing, 0 otherwise
*/
unsigned char accounting_isCounting() {
	return isParking;
}
    4bf8:	80 91 fb 29 	lds	r24, 0x29FB
    4bfc:	08 95       	ret

00004bfe <accounting_getParkingID>:
/**
* \brief Get the controller's ID for the ongoing parking event
* @returns ID of the parking event
*/
unsigned long int accounting_getParkingID() {
	return (isParking ? parkingID : 0);
    4bfe:	80 91 fb 29 	lds	r24, 0x29FB
    4c02:	88 23       	and	r24, r24
    4c04:	29 f4       	brne	.+10     	; 0x4c10 <accounting_getParkingID+0x12>
    4c06:	20 e0       	ldi	r18, 0x00	; 0
    4c08:	30 e0       	ldi	r19, 0x00	; 0
    4c0a:	40 e0       	ldi	r20, 0x00	; 0
    4c0c:	50 e0       	ldi	r21, 0x00	; 0
    4c0e:	08 c0       	rjmp	.+16     	; 0x4c20 <accounting_getParkingID+0x22>
    4c10:	20 91 fc 29 	lds	r18, 0x29FC
    4c14:	30 91 fd 29 	lds	r19, 0x29FD
    4c18:	40 91 fe 29 	lds	r20, 0x29FE
    4c1c:	50 91 ff 29 	lds	r21, 0x29FF
}
    4c20:	b9 01       	movw	r22, r18
    4c22:	ca 01       	movw	r24, r20
    4c24:	08 95       	ret

00004c26 <accounting_setNewClock>:
/**
* \brief Set the system clock to another value, adjust all parking events in the history
* @param oldTime Old system time
* @param newTime New system time
*/
void accounting_setNewClock(unsigned long int oldTime, unsigned long int newTime) {
    4c26:	ef 92       	push	r14
    4c28:	ff 92       	push	r15
    4c2a:	0f 93       	push	r16
    4c2c:	1f 93       	push	r17
    4c2e:	7b 01       	movw	r14, r22
    4c30:	8c 01       	movw	r16, r24
    4c32:	ba 01       	movw	r22, r20
    4c34:	a9 01       	movw	r20, r18
	unsigned char i;
	// Aufgezeichnete Parkzeiten an die neue Systemzeit anpassen (alle Timestamps etc müssen angepasst werden):
	if (isParking) {
    4c36:	80 91 fb 29 	lds	r24, 0x29FB
    4c3a:	88 23       	and	r24, r24
    4c3c:	79 f4       	brne	.+30     	; 0x4c5c <accounting_setNewClock+0x36>
		parkStartTime =- oldTime;
		parkStartTime += newTime;
	}
	for (i=0;i<parkingHistoryCount;i++) {
    4c3e:	90 91 04 2a 	lds	r25, 0x2A04
    4c42:	eb e3       	ldi	r30, 0x3B	; 59
    4c44:	f9 e2       	ldi	r31, 0x29	; 41
    4c46:	8c e0       	ldi	r24, 0x0C	; 12
    4c48:	98 9f       	mul	r25, r24
    4c4a:	90 01       	movw	r18, r0
    4c4c:	11 24       	eor	r1, r1
    4c4e:	2e 0f       	add	r18, r30
    4c50:	3f 1f       	adc	r19, r31
		parkHistory[i].startTime = parkHistory[i].startTime - oldTime + newTime;
    4c52:	4e 19       	sub	r20, r14
    4c54:	5f 09       	sbc	r21, r15
    4c56:	60 0b       	sbc	r22, r16
    4c58:	71 0b       	sbc	r23, r17
    4c5a:	28 c0       	rjmp	.+80     	; 0x4cac <accounting_setNewClock+0x86>
void accounting_setNewClock(unsigned long int oldTime, unsigned long int newTime) {
	unsigned char i;
	// Aufgezeichnete Parkzeiten an die neue Systemzeit anpassen (alle Timestamps etc müssen angepasst werden):
	if (isParking) {
		parkStartTime =- oldTime;
		parkStartTime += newTime;
    4c5c:	db 01       	movw	r26, r22
    4c5e:	ca 01       	movw	r24, r20
    4c60:	8e 19       	sub	r24, r14
    4c62:	9f 09       	sbc	r25, r15
    4c64:	a0 0b       	sbc	r26, r16
    4c66:	b1 0b       	sbc	r27, r17
    4c68:	80 93 00 2a 	sts	0x2A00, r24
    4c6c:	90 93 01 2a 	sts	0x2A01, r25
    4c70:	a0 93 02 2a 	sts	0x2A02, r26
    4c74:	b0 93 03 2a 	sts	0x2A03, r27
    4c78:	e2 cf       	rjmp	.-60     	; 0x4c3e <accounting_setNewClock+0x18>
	}
	for (i=0;i<parkingHistoryCount;i++) {
		parkHistory[i].startTime = parkHistory[i].startTime - oldTime + newTime;
    4c7a:	80 81       	ld	r24, Z
    4c7c:	91 81       	ldd	r25, Z+1	; 0x01
    4c7e:	a2 81       	ldd	r26, Z+2	; 0x02
    4c80:	b3 81       	ldd	r27, Z+3	; 0x03
    4c82:	84 0f       	add	r24, r20
    4c84:	95 1f       	adc	r25, r21
    4c86:	a6 1f       	adc	r26, r22
    4c88:	b7 1f       	adc	r27, r23
    4c8a:	80 83       	st	Z, r24
    4c8c:	91 83       	std	Z+1, r25	; 0x01
    4c8e:	a2 83       	std	Z+2, r26	; 0x02
    4c90:	b3 83       	std	Z+3, r27	; 0x03
		parkHistory[i].stopTime = parkHistory[i].stopTime - oldTime + newTime;
    4c92:	84 81       	ldd	r24, Z+4	; 0x04
    4c94:	95 81       	ldd	r25, Z+5	; 0x05
    4c96:	a6 81       	ldd	r26, Z+6	; 0x06
    4c98:	b7 81       	ldd	r27, Z+7	; 0x07
    4c9a:	84 0f       	add	r24, r20
    4c9c:	95 1f       	adc	r25, r21
    4c9e:	a6 1f       	adc	r26, r22
    4ca0:	b7 1f       	adc	r27, r23
    4ca2:	84 83       	std	Z+4, r24	; 0x04
    4ca4:	95 83       	std	Z+5, r25	; 0x05
    4ca6:	a6 83       	std	Z+6, r26	; 0x06
    4ca8:	b7 83       	std	Z+7, r27	; 0x07
    4caa:	3c 96       	adiw	r30, 0x0c	; 12
	// Aufgezeichnete Parkzeiten an die neue Systemzeit anpassen (alle Timestamps etc müssen angepasst werden):
	if (isParking) {
		parkStartTime =- oldTime;
		parkStartTime += newTime;
	}
	for (i=0;i<parkingHistoryCount;i++) {
    4cac:	e2 17       	cp	r30, r18
    4cae:	f3 07       	cpc	r31, r19
    4cb0:	21 f7       	brne	.-56     	; 0x4c7a <accounting_setNewClock+0x54>
		parkHistory[i].startTime = parkHistory[i].startTime - oldTime + newTime;
		parkHistory[i].stopTime = parkHistory[i].stopTime - oldTime + newTime;
	}
}
    4cb2:	1f 91       	pop	r17
    4cb4:	0f 91       	pop	r16
    4cb6:	ff 90       	pop	r15
    4cb8:	ef 90       	pop	r14
    4cba:	08 95       	ret

00004cbc <accounting_exportParkingHistoryJSON>:
* \brief Write parking history into buffer in JSON format
* @param buffer Pointer to a char buffer
* @param buflen Available length of the buffer in bytes
* @returns Length of written bytes
*/
unsigned short int accounting_exportParkingHistoryJSON(unsigned char * buffer, unsigned short int buflen) {
    4cbc:	6f 92       	push	r6
    4cbe:	7f 92       	push	r7
    4cc0:	8f 92       	push	r8
    4cc2:	9f 92       	push	r9
    4cc4:	af 92       	push	r10
    4cc6:	bf 92       	push	r11
    4cc8:	cf 92       	push	r12
    4cca:	df 92       	push	r13
    4ccc:	ef 92       	push	r14
    4cce:	ff 92       	push	r15
    4cd0:	0f 93       	push	r16
    4cd2:	1f 93       	push	r17
    4cd4:	cf 93       	push	r28
    4cd6:	df 93       	push	r29
    4cd8:	6c 01       	movw	r12, r24
	unsigned short int len;
	unsigned short int msglen = 0;
	unsigned char i;
	
	if (buflen > 2) {
    4cda:	63 30       	cpi	r22, 0x03	; 3
    4cdc:	71 05       	cpc	r23, r1
    4cde:	08 f4       	brcc	.+2      	; 0x4ce2 <accounting_exportParkingHistoryJSON+0x26>
    4ce0:	fa c0       	rjmp	.+500    	; 0x4ed6 <accounting_exportParkingHistoryJSON+0x21a>
		buffer[msglen++] = '{';
    4ce2:	8b e7       	ldi	r24, 0x7B	; 123
    4ce4:	d6 01       	movw	r26, r12
    4ce6:	8c 93       	st	X, r24
		buflen--;
    4ce8:	5b 01       	movw	r10, r22
    4cea:	08 94       	sec
    4cec:	a1 08       	sbc	r10, r1
    4cee:	b1 08       	sbc	r11, r1
		
		if (ctrl_isSpaceAvailable()) {
    4cf0:	0e 94 05 23 	call	0x460a	; 0x460a <ctrl_isSpaceAvailable>
    4cf4:	88 23       	and	r24, r24
    4cf6:	b1 f0       	breq	.+44     	; 0x4d24 <accounting_exportParkingHistoryJSON+0x68>
			// Parkplatz verfügbar
			len = snprintf((char*)&buffer[msglen], buflen, "\"available\": 1, \"parking_duration\": 0, \"parking_since\": 0, \"ev\":[");
    4cf8:	00 d0       	rcall	.+0      	; 0x4cfa <accounting_exportParkingHistoryJSON+0x3e>
    4cfa:	00 d0       	rcall	.+0      	; 0x4cfc <accounting_exportParkingHistoryJSON+0x40>
    4cfc:	ed b7       	in	r30, 0x3d	; 61
    4cfe:	fe b7       	in	r31, 0x3e	; 62
    4d00:	31 96       	adiw	r30, 0x01	; 1
    4d02:	08 94       	sec
    4d04:	c1 1c       	adc	r12, r1
    4d06:	d1 1c       	adc	r13, r1
    4d08:	ad b7       	in	r26, 0x3d	; 61
    4d0a:	be b7       	in	r27, 0x3e	; 62
    4d0c:	11 96       	adiw	r26, 0x01	; 1
    4d0e:	cd 92       	st	X+, r12
    4d10:	dc 92       	st	X, r13
    4d12:	12 97       	sbiw	r26, 0x02	; 2
    4d14:	08 94       	sec
    4d16:	c1 08       	sbc	r12, r1
    4d18:	d1 08       	sbc	r13, r1
    4d1a:	a2 82       	std	Z+2, r10	; 0x02
    4d1c:	b3 82       	std	Z+3, r11	; 0x03
    4d1e:	89 e1       	ldi	r24, 0x19	; 25
    4d20:	97 e2       	ldi	r25, 0x27	; 39
    4d22:	46 c0       	rjmp	.+140    	; 0x4db0 <accounting_exportParkingHistoryJSON+0xf4>
		} else if (isParking) {
    4d24:	80 91 fb 29 	lds	r24, 0x29FB
    4d28:	e6 01       	movw	r28, r12
    4d2a:	21 96       	adiw	r28, 0x01	; 1
    4d2c:	88 23       	and	r24, r24
    4d2e:	89 f1       	breq	.+98     	; 0x4d92 <accounting_exportParkingHistoryJSON+0xd6>
			// Parkplatz nicht verfügbar sondern belegt:
			len = snprintf((char*)&buffer[msglen], buflen, "\"available\": 0, \"parking_duration\": %lu, \"parking_since\": %lu, \"ev\":[", rtc_getUnixtime() - parkStartTime, parkStartTime);
    4d30:	0e 94 43 21 	call	0x4286	; 0x4286 <rtc_getUnixtime>
    4d34:	e0 90 00 2a 	lds	r14, 0x2A00
    4d38:	f0 90 01 2a 	lds	r15, 0x2A01
    4d3c:	00 91 02 2a 	lds	r16, 0x2A02
    4d40:	10 91 03 2a 	lds	r17, 0x2A03
    4d44:	2d b7       	in	r18, 0x3d	; 61
    4d46:	3e b7       	in	r19, 0x3e	; 62
    4d48:	2e 50       	subi	r18, 0x0E	; 14
    4d4a:	30 40       	sbci	r19, 0x00	; 0
    4d4c:	2d bf       	out	0x3d, r18	; 61
    4d4e:	3e bf       	out	0x3e, r19	; 62
    4d50:	ed b7       	in	r30, 0x3d	; 61
    4d52:	fe b7       	in	r31, 0x3e	; 62
    4d54:	31 96       	adiw	r30, 0x01	; 1
    4d56:	ad b7       	in	r26, 0x3d	; 61
    4d58:	be b7       	in	r27, 0x3e	; 62
    4d5a:	11 96       	adiw	r26, 0x01	; 1
    4d5c:	cd 93       	st	X+, r28
    4d5e:	dc 93       	st	X, r29
    4d60:	12 97       	sbiw	r26, 0x02	; 2
    4d62:	a2 82       	std	Z+2, r10	; 0x02
    4d64:	b3 82       	std	Z+3, r11	; 0x03
    4d66:	2b e5       	ldi	r18, 0x5B	; 91
    4d68:	37 e2       	ldi	r19, 0x27	; 39
    4d6a:	24 83       	std	Z+4, r18	; 0x04
    4d6c:	35 83       	std	Z+5, r19	; 0x05
    4d6e:	6e 19       	sub	r22, r14
    4d70:	7f 09       	sbc	r23, r15
    4d72:	80 0b       	sbc	r24, r16
    4d74:	91 0b       	sbc	r25, r17
    4d76:	66 83       	std	Z+6, r22	; 0x06
    4d78:	77 83       	std	Z+7, r23	; 0x07
    4d7a:	80 87       	std	Z+8, r24	; 0x08
    4d7c:	91 87       	std	Z+9, r25	; 0x09
    4d7e:	e2 86       	std	Z+10, r14	; 0x0a
    4d80:	f3 86       	std	Z+11, r15	; 0x0b
    4d82:	04 87       	std	Z+12, r16	; 0x0c
    4d84:	15 87       	std	Z+13, r17	; 0x0d
    4d86:	0e 94 d9 28 	call	0x51b2	; 0x51b2 <snprintf>
    4d8a:	ed b7       	in	r30, 0x3d	; 61
    4d8c:	fe b7       	in	r31, 0x3e	; 62
    4d8e:	3e 96       	adiw	r30, 0x0e	; 14
    4d90:	16 c0       	rjmp	.+44     	; 0x4dbe <accounting_exportParkingHistoryJSON+0x102>
		} else {
			// Parkplatz weder verfügbar noch belegt, irgendein Fehlerzustand:
			len = snprintf((char*)&buffer[msglen], buflen, "\"available\": 0, \"parking_duration\": 0, \"parking_since\": 0, \"ev\":[");
    4d92:	00 d0       	rcall	.+0      	; 0x4d94 <accounting_exportParkingHistoryJSON+0xd8>
    4d94:	00 d0       	rcall	.+0      	; 0x4d96 <accounting_exportParkingHistoryJSON+0xda>
    4d96:	ed b7       	in	r30, 0x3d	; 61
    4d98:	fe b7       	in	r31, 0x3e	; 62
    4d9a:	31 96       	adiw	r30, 0x01	; 1
    4d9c:	ad b7       	in	r26, 0x3d	; 61
    4d9e:	be b7       	in	r27, 0x3e	; 62
    4da0:	11 96       	adiw	r26, 0x01	; 1
    4da2:	cd 93       	st	X+, r28
    4da4:	dc 93       	st	X, r29
    4da6:	12 97       	sbiw	r26, 0x02	; 2
    4da8:	a2 82       	std	Z+2, r10	; 0x02
    4daa:	b3 82       	std	Z+3, r11	; 0x03
    4dac:	81 ea       	ldi	r24, 0xA1	; 161
    4dae:	97 e2       	ldi	r25, 0x27	; 39
    4db0:	84 83       	std	Z+4, r24	; 0x04
    4db2:	95 83       	std	Z+5, r25	; 0x05
    4db4:	0e 94 d9 28 	call	0x51b2	; 0x51b2 <snprintf>
    4db8:	ed b7       	in	r30, 0x3d	; 61
    4dba:	fe b7       	in	r31, 0x3e	; 62
    4dbc:	36 96       	adiw	r30, 0x06	; 6
    4dbe:	ed bf       	out	0x3d, r30	; 61
    4dc0:	fe bf       	out	0x3e, r31	; 62
		}

		if (len >= buflen) // Puffer zu knapp bemessen
    4dc2:	8a 15       	cp	r24, r10
    4dc4:	9b 05       	cpc	r25, r11
    4dc6:	08 f0       	brcs	.+2      	; 0x4dca <accounting_exportParkingHistoryJSON+0x10e>
    4dc8:	86 c0       	rjmp	.+268    	; 0x4ed6 <accounting_exportParkingHistoryJSON+0x21a>
			return 0;
		
		msglen += len;
    4dca:	ec 01       	movw	r28, r24
    4dcc:	21 96       	adiw	r28, 0x01	; 1
		buflen -= len;
    4dce:	85 01       	movw	r16, r10
    4dd0:	08 1b       	sub	r16, r24
    4dd2:	19 0b       	sbc	r17, r25
    4dd4:	ee 24       	eor	r14, r14
		
		for (i=0;i<parkingHistoryCount;i++) {
			if (i) {
				// Einzelne Objekte durch Komma trennen:
				buffer[msglen++] = ',';
    4dd6:	ec e2       	ldi	r30, 0x2C	; 44
    4dd8:	fe 2e       	mov	r15, r30
				buflen--;
			}
			len = snprintf((char*)&buffer[msglen], buflen, "{\"index\": %u, \"startTime\": %lu, \"stopTime\": %lu, \"ID\": %lu}", i, parkHistory[i].startTime, parkHistory[i].stopTime, parkHistory[i].ID);
    4dda:	73 ee       	ldi	r23, 0xE3	; 227
    4ddc:	a7 2e       	mov	r10, r23
    4dde:	77 e2       	ldi	r23, 0x27	; 39
    4de0:	b7 2e       	mov	r11, r23
    4de2:	61 c0       	rjmp	.+194    	; 0x4ea6 <accounting_exportParkingHistoryJSON+0x1ea>
		
		msglen += len;
		buflen -= len;
		
		for (i=0;i<parkingHistoryCount;i++) {
			if (i) {
    4de4:	ee 20       	and	r14, r14
    4de6:	39 f0       	breq	.+14     	; 0x4df6 <accounting_exportParkingHistoryJSON+0x13a>
				// Einzelne Objekte durch Komma trennen:
				buffer[msglen++] = ',';
    4de8:	f6 01       	movw	r30, r12
    4dea:	ec 0f       	add	r30, r28
    4dec:	fd 1f       	adc	r31, r29
    4dee:	f0 82       	st	Z, r15
    4df0:	21 96       	adiw	r28, 0x01	; 1
				buflen--;
    4df2:	01 50       	subi	r16, 0x01	; 1
    4df4:	10 40       	sbci	r17, 0x00	; 0
			}
			len = snprintf((char*)&buffer[msglen], buflen, "{\"index\": %u, \"startTime\": %lu, \"stopTime\": %lu, \"ID\": %lu}", i, parkHistory[i].startTime, parkHistory[i].stopTime, parkHistory[i].ID);
    4df6:	2e 2d       	mov	r18, r14
    4df8:	30 e0       	ldi	r19, 0x00	; 0
    4dfa:	8d b7       	in	r24, 0x3d	; 61
    4dfc:	9e b7       	in	r25, 0x3e	; 62
    4dfe:	44 97       	sbiw	r24, 0x14	; 20
    4e00:	8d bf       	out	0x3d, r24	; 61
    4e02:	9e bf       	out	0x3e, r25	; 62
    4e04:	4d b7       	in	r20, 0x3d	; 61
    4e06:	5e b7       	in	r21, 0x3e	; 62
    4e08:	4f 5f       	subi	r20, 0xFF	; 255
    4e0a:	5f 4f       	sbci	r21, 0xFF	; 255
    4e0c:	c6 01       	movw	r24, r12
    4e0e:	8c 0f       	add	r24, r28
    4e10:	9d 1f       	adc	r25, r29
    4e12:	ad b7       	in	r26, 0x3d	; 61
    4e14:	be b7       	in	r27, 0x3e	; 62
    4e16:	11 96       	adiw	r26, 0x01	; 1
    4e18:	8d 93       	st	X+, r24
    4e1a:	9c 93       	st	X, r25
    4e1c:	12 97       	sbiw	r26, 0x02	; 2
    4e1e:	fa 01       	movw	r30, r20
    4e20:	02 83       	std	Z+2, r16	; 0x02
    4e22:	13 83       	std	Z+3, r17	; 0x03
    4e24:	a4 82       	std	Z+4, r10	; 0x04
    4e26:	b5 82       	std	Z+5, r11	; 0x05
    4e28:	26 83       	std	Z+6, r18	; 0x06
    4e2a:	37 83       	std	Z+7, r19	; 0x07
    4e2c:	f9 01       	movw	r30, r18
    4e2e:	ee 0f       	add	r30, r30
    4e30:	ff 1f       	adc	r31, r31
    4e32:	e2 0f       	add	r30, r18
    4e34:	f3 1f       	adc	r31, r19
    4e36:	ee 0f       	add	r30, r30
    4e38:	ff 1f       	adc	r31, r31
    4e3a:	ee 0f       	add	r30, r30
    4e3c:	ff 1f       	adc	r31, r31
    4e3e:	9f 01       	movw	r18, r30
    4e40:	25 5c       	subi	r18, 0xC5	; 197
    4e42:	36 4d       	sbci	r19, 0xD6	; 214
    4e44:	d9 01       	movw	r26, r18
    4e46:	6d 90       	ld	r6, X+
    4e48:	7d 90       	ld	r7, X+
    4e4a:	8d 90       	ld	r8, X+
    4e4c:	9c 90       	ld	r9, X
    4e4e:	da 01       	movw	r26, r20
    4e50:	18 96       	adiw	r26, 0x08	; 8
    4e52:	6d 92       	st	X+, r6
    4e54:	7d 92       	st	X+, r7
    4e56:	8d 92       	st	X+, r8
    4e58:	9c 92       	st	X, r9
    4e5a:	1b 97       	sbiw	r26, 0x0b	; 11
    4e5c:	e1 5c       	subi	r30, 0xC1	; 193
    4e5e:	f6 4d       	sbci	r31, 0xD6	; 214
    4e60:	80 81       	ld	r24, Z
    4e62:	91 81       	ldd	r25, Z+1	; 0x01
    4e64:	a2 81       	ldd	r26, Z+2	; 0x02
    4e66:	b3 81       	ldd	r27, Z+3	; 0x03
    4e68:	fa 01       	movw	r30, r20
    4e6a:	84 87       	std	Z+12, r24	; 0x0c
    4e6c:	95 87       	std	Z+13, r25	; 0x0d
    4e6e:	a6 87       	std	Z+14, r26	; 0x0e
    4e70:	b7 87       	std	Z+15, r27	; 0x0f
    4e72:	f9 01       	movw	r30, r18
    4e74:	80 85       	ldd	r24, Z+8	; 0x08
    4e76:	91 85       	ldd	r25, Z+9	; 0x09
    4e78:	a2 85       	ldd	r26, Z+10	; 0x0a
    4e7a:	b3 85       	ldd	r27, Z+11	; 0x0b
    4e7c:	fa 01       	movw	r30, r20
    4e7e:	80 8b       	std	Z+16, r24	; 0x10
    4e80:	91 8b       	std	Z+17, r25	; 0x11
    4e82:	a2 8b       	std	Z+18, r26	; 0x12
    4e84:	b3 8b       	std	Z+19, r27	; 0x13
    4e86:	0e 94 d9 28 	call	0x51b2	; 0x51b2 <snprintf>
    4e8a:	9c 01       	movw	r18, r24
			
			if (len >= buflen) // Puffer zu knapp bemessen
    4e8c:	8d b7       	in	r24, 0x3d	; 61
    4e8e:	9e b7       	in	r25, 0x3e	; 62
    4e90:	44 96       	adiw	r24, 0x14	; 20
    4e92:	8d bf       	out	0x3d, r24	; 61
    4e94:	9e bf       	out	0x3e, r25	; 62
    4e96:	20 17       	cp	r18, r16
    4e98:	31 07       	cpc	r19, r17
    4e9a:	e8 f4       	brcc	.+58     	; 0x4ed6 <accounting_exportParkingHistoryJSON+0x21a>
				return 0;
			
			msglen += len;
    4e9c:	c2 0f       	add	r28, r18
    4e9e:	d3 1f       	adc	r29, r19
			buflen -= len;
    4ea0:	02 1b       	sub	r16, r18
    4ea2:	13 0b       	sbc	r17, r19
			return 0;
		
		msglen += len;
		buflen -= len;
		
		for (i=0;i<parkingHistoryCount;i++) {
    4ea4:	e3 94       	inc	r14
    4ea6:	80 91 04 2a 	lds	r24, 0x2A04
    4eaa:	e8 16       	cp	r14, r24
    4eac:	08 f4       	brcc	.+2      	; 0x4eb0 <accounting_exportParkingHistoryJSON+0x1f4>
    4eae:	9a cf       	rjmp	.-204    	; 0x4de4 <accounting_exportParkingHistoryJSON+0x128>
			
			msglen += len;
			buflen -= len;
			
		}
		if (buflen > 1) {
    4eb0:	02 30       	cpi	r16, 0x02	; 2
    4eb2:	11 05       	cpc	r17, r1
    4eb4:	90 f0       	brcs	.+36     	; 0x4eda <accounting_exportParkingHistoryJSON+0x21e>
			buffer[msglen++] = ']';
    4eb6:	f6 01       	movw	r30, r12
    4eb8:	ec 0f       	add	r30, r28
    4eba:	fd 1f       	adc	r31, r29
    4ebc:	8d e5       	ldi	r24, 0x5D	; 93
    4ebe:	80 83       	st	Z, r24
    4ec0:	9e 01       	movw	r18, r28
    4ec2:	2f 5f       	subi	r18, 0xFF	; 255
    4ec4:	3f 4f       	sbci	r19, 0xFF	; 255
			buffer[msglen++] = '}';
    4ec6:	c2 0e       	add	r12, r18
    4ec8:	d3 1e       	adc	r13, r19
    4eca:	8d e7       	ldi	r24, 0x7D	; 125
    4ecc:	d6 01       	movw	r26, r12
    4ece:	8c 93       	st	X, r24
    4ed0:	e9 01       	movw	r28, r18
    4ed2:	21 96       	adiw	r28, 0x01	; 1
    4ed4:	02 c0       	rjmp	.+4      	; 0x4eda <accounting_exportParkingHistoryJSON+0x21e>
    4ed6:	c0 e0       	ldi	r28, 0x00	; 0
    4ed8:	d0 e0       	ldi	r29, 0x00	; 0
			buflen-=2;
		}
	}
	return msglen;
}
    4eda:	ce 01       	movw	r24, r28
    4edc:	df 91       	pop	r29
    4ede:	cf 91       	pop	r28
    4ee0:	1f 91       	pop	r17
    4ee2:	0f 91       	pop	r16
    4ee4:	ff 90       	pop	r15
    4ee6:	ef 90       	pop	r14
    4ee8:	df 90       	pop	r13
    4eea:	cf 90       	pop	r12
    4eec:	bf 90       	pop	r11
    4eee:	af 90       	pop	r10
    4ef0:	9f 90       	pop	r9
    4ef2:	8f 90       	pop	r8
    4ef4:	7f 90       	pop	r7
    4ef6:	6f 90       	pop	r6
    4ef8:	08 95       	ret

00004efa <accounting_logParkTime>:
* @param startTime Starting time
* @param stopTime End time
* @param ID Controller's ID for the parking event
*/

void accounting_logParkTime(unsigned long int startTime, unsigned long int stopTime, unsigned long int ID) {
    4efa:	6f 92       	push	r6
    4efc:	7f 92       	push	r7
    4efe:	8f 92       	push	r8
    4f00:	9f 92       	push	r9
    4f02:	af 92       	push	r10
    4f04:	bf 92       	push	r11
    4f06:	cf 92       	push	r12
    4f08:	df 92       	push	r13
    4f0a:	ef 92       	push	r14
    4f0c:	ff 92       	push	r15
    4f0e:	0f 93       	push	r16
    4f10:	1f 93       	push	r17
    4f12:	5b 01       	movw	r10, r22
    4f14:	6c 01       	movw	r12, r24
    4f16:	39 01       	movw	r6, r18
    4f18:	4a 01       	movw	r8, r20
    4f1a:	4f e0       	ldi	r20, 0x0F	; 15
	unsigned char i;
	PARK_HISTORY_t * history = &parkHistory[0];
	// Alle alten Parkdaten verschieben (quick & dirty), ältesten Eintrag überschreiben:
	i = PARKING_HISTORY_ITEMS-1;
	while (i--)
    4f1c:	41 50       	subi	r20, 0x01	; 1
		parkHistory[i+1] = parkHistory[i];
    4f1e:	24 2f       	mov	r18, r20
    4f20:	30 e0       	ldi	r19, 0x00	; 0
    4f22:	c9 01       	movw	r24, r18
    4f24:	01 96       	adiw	r24, 0x01	; 1
    4f26:	dc 01       	movw	r26, r24
    4f28:	aa 0f       	add	r26, r26
    4f2a:	bb 1f       	adc	r27, r27
    4f2c:	a8 0f       	add	r26, r24
    4f2e:	b9 1f       	adc	r27, r25
    4f30:	aa 0f       	add	r26, r26
    4f32:	bb 1f       	adc	r27, r27
    4f34:	aa 0f       	add	r26, r26
    4f36:	bb 1f       	adc	r27, r27
    4f38:	f9 01       	movw	r30, r18
    4f3a:	ee 0f       	add	r30, r30
    4f3c:	ff 1f       	adc	r31, r31
    4f3e:	e2 0f       	add	r30, r18
    4f40:	f3 1f       	adc	r31, r19
    4f42:	ee 0f       	add	r30, r30
    4f44:	ff 1f       	adc	r31, r31
    4f46:	ee 0f       	add	r30, r30
    4f48:	ff 1f       	adc	r31, r31
    4f4a:	a5 5c       	subi	r26, 0xC5	; 197
    4f4c:	b6 4d       	sbci	r27, 0xD6	; 214
    4f4e:	e5 5c       	subi	r30, 0xC5	; 197
    4f50:	f6 4d       	sbci	r31, 0xD6	; 214
    4f52:	8c e0       	ldi	r24, 0x0C	; 12
    4f54:	01 90       	ld	r0, Z+
    4f56:	0d 92       	st	X+, r0
    4f58:	81 50       	subi	r24, 0x01	; 1
    4f5a:	e1 f7       	brne	.-8      	; 0x4f54 <accounting_logParkTime+0x5a>
void accounting_logParkTime(unsigned long int startTime, unsigned long int stopTime, unsigned long int ID) {
	unsigned char i;
	PARK_HISTORY_t * history = &parkHistory[0];
	// Alle alten Parkdaten verschieben (quick & dirty), ältesten Eintrag überschreiben:
	i = PARKING_HISTORY_ITEMS-1;
	while (i--)
    4f5c:	44 23       	and	r20, r20
    4f5e:	f1 f6       	brne	.-68     	; 0x4f1c <accounting_logParkTime+0x22>
		parkHistory[i+1] = parkHistory[i];
	history->startTime = startTime;
    4f60:	a0 92 3b 29 	sts	0x293B, r10
    4f64:	b0 92 3c 29 	sts	0x293C, r11
    4f68:	c0 92 3d 29 	sts	0x293D, r12
    4f6c:	d0 92 3e 29 	sts	0x293E, r13
	history->stopTime = stopTime;
    4f70:	60 92 3f 29 	sts	0x293F, r6
    4f74:	70 92 40 29 	sts	0x2940, r7
    4f78:	80 92 41 29 	sts	0x2941, r8
    4f7c:	90 92 42 29 	sts	0x2942, r9
	history->ID = ID;
    4f80:	e0 92 43 29 	sts	0x2943, r14
    4f84:	f0 92 44 29 	sts	0x2944, r15
    4f88:	00 93 45 29 	sts	0x2945, r16
    4f8c:	10 93 46 29 	sts	0x2946, r17
	uart_printf_P(PSTR("Parkzeit von %lu bis %lu fuer ID %lu."), startTime, stopTime, ID);
    4f90:	2d b7       	in	r18, 0x3d	; 61
    4f92:	3e b7       	in	r19, 0x3e	; 62
    4f94:	2e 50       	subi	r18, 0x0E	; 14
    4f96:	30 40       	sbci	r19, 0x00	; 0
    4f98:	2d bf       	out	0x3d, r18	; 61
    4f9a:	3e bf       	out	0x3e, r19	; 62
    4f9c:	ed b7       	in	r30, 0x3d	; 61
    4f9e:	fe b7       	in	r31, 0x3e	; 62
    4fa0:	31 96       	adiw	r30, 0x01	; 1
    4fa2:	8b e2       	ldi	r24, 0x2B	; 43
    4fa4:	93 e0       	ldi	r25, 0x03	; 3
    4fa6:	ad b7       	in	r26, 0x3d	; 61
    4fa8:	be b7       	in	r27, 0x3e	; 62
    4faa:	11 96       	adiw	r26, 0x01	; 1
    4fac:	8d 93       	st	X+, r24
    4fae:	9c 93       	st	X, r25
    4fb0:	12 97       	sbiw	r26, 0x02	; 2
    4fb2:	a2 82       	std	Z+2, r10	; 0x02
    4fb4:	b3 82       	std	Z+3, r11	; 0x03
    4fb6:	c4 82       	std	Z+4, r12	; 0x04
    4fb8:	d5 82       	std	Z+5, r13	; 0x05
    4fba:	66 82       	std	Z+6, r6	; 0x06
    4fbc:	77 82       	std	Z+7, r7	; 0x07
    4fbe:	80 86       	std	Z+8, r8	; 0x08
    4fc0:	91 86       	std	Z+9, r9	; 0x09
    4fc2:	e2 86       	std	Z+10, r14	; 0x0a
    4fc4:	f3 86       	std	Z+11, r15	; 0x0b
    4fc6:	04 87       	std	Z+12, r16	; 0x0c
    4fc8:	15 87       	std	Z+13, r17	; 0x0d
    4fca:	0e 94 99 20 	call	0x4132	; 0x4132 <uart_printf_P>
	// Count how many valid items we have in the history:
	if (parkingHistoryCount < PARKING_HISTORY_ITEMS)
    4fce:	80 91 04 2a 	lds	r24, 0x2A04
    4fd2:	2d b7       	in	r18, 0x3d	; 61
    4fd4:	3e b7       	in	r19, 0x3e	; 62
    4fd6:	22 5f       	subi	r18, 0xF2	; 242
    4fd8:	3f 4f       	sbci	r19, 0xFF	; 255
    4fda:	2d bf       	out	0x3d, r18	; 61
    4fdc:	3e bf       	out	0x3e, r19	; 62
    4fde:	80 31       	cpi	r24, 0x10	; 16
    4fe0:	18 f4       	brcc	.+6      	; 0x4fe8 <accounting_logParkTime+0xee>
		parkingHistoryCount++;
    4fe2:	8f 5f       	subi	r24, 0xFF	; 255
    4fe4:	80 93 04 2a 	sts	0x2A04, r24
}
    4fe8:	1f 91       	pop	r17
    4fea:	0f 91       	pop	r16
    4fec:	ff 90       	pop	r15
    4fee:	ef 90       	pop	r14
    4ff0:	df 90       	pop	r13
    4ff2:	cf 90       	pop	r12
    4ff4:	bf 90       	pop	r11
    4ff6:	af 90       	pop	r10
    4ff8:	9f 90       	pop	r9
    4ffa:	8f 90       	pop	r8
    4ffc:	7f 90       	pop	r7
    4ffe:	6f 90       	pop	r6
    5000:	08 95       	ret

00005002 <accounting_stopParking>:
}

/**
* \brief Stop the ongoing parking event
*/
void accounting_stopParking() {
    5002:	af 92       	push	r10
    5004:	bf 92       	push	r11
    5006:	cf 92       	push	r12
    5008:	df 92       	push	r13
    500a:	ef 92       	push	r14
    500c:	ff 92       	push	r15
    500e:	0f 93       	push	r16
    5010:	1f 93       	push	r17
	// Das kann nicht sein falls niemand parkt!
	if (!isParking)
    5012:	80 91 fb 29 	lds	r24, 0x29FB
    5016:	88 23       	and	r24, r24
    5018:	11 f1       	breq	.+68     	; 0x505e <accounting_stopParking+0x5c>
		return;
	accounting_logParkTime(parkStartTime, rtc_getUnixtime(), parkingID);
    501a:	a0 90 00 2a 	lds	r10, 0x2A00
    501e:	b0 90 01 2a 	lds	r11, 0x2A01
    5022:	c0 90 02 2a 	lds	r12, 0x2A02
    5026:	d0 90 03 2a 	lds	r13, 0x2A03
    502a:	0e 94 43 21 	call	0x4286	; 0x4286 <rtc_getUnixtime>
    502e:	9b 01       	movw	r18, r22
    5030:	ac 01       	movw	r20, r24
    5032:	e0 90 fc 29 	lds	r14, 0x29FC
    5036:	f0 90 fd 29 	lds	r15, 0x29FD
    503a:	00 91 fe 29 	lds	r16, 0x29FE
    503e:	10 91 ff 29 	lds	r17, 0x29FF
    5042:	c6 01       	movw	r24, r12
    5044:	b5 01       	movw	r22, r10
    5046:	0e 94 7d 27 	call	0x4efa	; 0x4efa <accounting_logParkTime>
	isParking = 0;
    504a:	10 92 fb 29 	sts	0x29FB, r1
	parkingID = 0;
    504e:	10 92 fc 29 	sts	0x29FC, r1
    5052:	10 92 fd 29 	sts	0x29FD, r1
    5056:	10 92 fe 29 	sts	0x29FE, r1
    505a:	10 92 ff 29 	sts	0x29FF, r1
}
    505e:	1f 91       	pop	r17
    5060:	0f 91       	pop	r16
    5062:	ff 90       	pop	r15
    5064:	ef 90       	pop	r14
    5066:	df 90       	pop	r13
    5068:	cf 90       	pop	r12
    506a:	bf 90       	pop	r11
    506c:	af 90       	pop	r10
    506e:	08 95       	ret

00005070 <accounting_startParking>:

/**
* \brief Start parking of a car.
* @param ID The ID given by the controller for the parking event.
*/
void accounting_startParking(unsigned long int ID) {
    5070:	ef 92       	push	r14
    5072:	ff 92       	push	r15
    5074:	0f 93       	push	r16
    5076:	1f 93       	push	r17
    5078:	7b 01       	movw	r14, r22
    507a:	8c 01       	movw	r16, r24
	// Wer auch immer da auf den Parkplatz "gerutscht" ist - der vorherige Kunde ist offenbar weg:
	if (isParking)
    507c:	80 91 fb 29 	lds	r24, 0x29FB
    5080:	88 23       	and	r24, r24
    5082:	11 f0       	breq	.+4      	; 0x5088 <accounting_startParking+0x18>
		accounting_stopParking();
    5084:	0e 94 01 28 	call	0x5002	; 0x5002 <accounting_stopParking>
	isParking = 1;
    5088:	81 e0       	ldi	r24, 0x01	; 1
    508a:	80 93 fb 29 	sts	0x29FB, r24
	parkingID = ID;
    508e:	e0 92 fc 29 	sts	0x29FC, r14
    5092:	f0 92 fd 29 	sts	0x29FD, r15
    5096:	00 93 fe 29 	sts	0x29FE, r16
    509a:	10 93 ff 29 	sts	0x29FF, r17
	parkStartTime = rtc_getUnixtime();
    509e:	0e 94 43 21 	call	0x4286	; 0x4286 <rtc_getUnixtime>
    50a2:	60 93 00 2a 	sts	0x2A00, r22
    50a6:	70 93 01 2a 	sts	0x2A01, r23
    50aa:	80 93 02 2a 	sts	0x2A02, r24
    50ae:	90 93 03 2a 	sts	0x2A03, r25
}
    50b2:	1f 91       	pop	r17
    50b4:	0f 91       	pop	r16
    50b6:	ff 90       	pop	r15
    50b8:	ef 90       	pop	r14
    50ba:	08 95       	ret

000050bc <__mulsi3>:
    50bc:	62 9f       	mul	r22, r18
    50be:	d0 01       	movw	r26, r0
    50c0:	73 9f       	mul	r23, r19
    50c2:	f0 01       	movw	r30, r0
    50c4:	82 9f       	mul	r24, r18
    50c6:	e0 0d       	add	r30, r0
    50c8:	f1 1d       	adc	r31, r1
    50ca:	64 9f       	mul	r22, r20
    50cc:	e0 0d       	add	r30, r0
    50ce:	f1 1d       	adc	r31, r1
    50d0:	92 9f       	mul	r25, r18
    50d2:	f0 0d       	add	r31, r0
    50d4:	83 9f       	mul	r24, r19
    50d6:	f0 0d       	add	r31, r0
    50d8:	74 9f       	mul	r23, r20
    50da:	f0 0d       	add	r31, r0
    50dc:	65 9f       	mul	r22, r21
    50de:	f0 0d       	add	r31, r0
    50e0:	99 27       	eor	r25, r25
    50e2:	72 9f       	mul	r23, r18
    50e4:	b0 0d       	add	r27, r0
    50e6:	e1 1d       	adc	r30, r1
    50e8:	f9 1f       	adc	r31, r25
    50ea:	63 9f       	mul	r22, r19
    50ec:	b0 0d       	add	r27, r0
    50ee:	e1 1d       	adc	r30, r1
    50f0:	f9 1f       	adc	r31, r25
    50f2:	bd 01       	movw	r22, r26
    50f4:	cf 01       	movw	r24, r30
    50f6:	11 24       	eor	r1, r1
    50f8:	08 95       	ret

000050fa <__udivmodhi4>:
    50fa:	aa 1b       	sub	r26, r26
    50fc:	bb 1b       	sub	r27, r27
    50fe:	51 e1       	ldi	r21, 0x11	; 17
    5100:	07 c0       	rjmp	.+14     	; 0x5110 <__udivmodhi4_ep>

00005102 <__udivmodhi4_loop>:
    5102:	aa 1f       	adc	r26, r26
    5104:	bb 1f       	adc	r27, r27
    5106:	a6 17       	cp	r26, r22
    5108:	b7 07       	cpc	r27, r23
    510a:	10 f0       	brcs	.+4      	; 0x5110 <__udivmodhi4_ep>
    510c:	a6 1b       	sub	r26, r22
    510e:	b7 0b       	sbc	r27, r23

00005110 <__udivmodhi4_ep>:
    5110:	88 1f       	adc	r24, r24
    5112:	99 1f       	adc	r25, r25
    5114:	5a 95       	dec	r21
    5116:	a9 f7       	brne	.-22     	; 0x5102 <__udivmodhi4_loop>
    5118:	80 95       	com	r24
    511a:	90 95       	com	r25
    511c:	bc 01       	movw	r22, r24
    511e:	cd 01       	movw	r24, r26
    5120:	08 95       	ret

00005122 <__udivmodsi4>:
    5122:	a1 e2       	ldi	r26, 0x21	; 33
    5124:	1a 2e       	mov	r1, r26
    5126:	aa 1b       	sub	r26, r26
    5128:	bb 1b       	sub	r27, r27
    512a:	fd 01       	movw	r30, r26
    512c:	0d c0       	rjmp	.+26     	; 0x5148 <__udivmodsi4_ep>

0000512e <__udivmodsi4_loop>:
    512e:	aa 1f       	adc	r26, r26
    5130:	bb 1f       	adc	r27, r27
    5132:	ee 1f       	adc	r30, r30
    5134:	ff 1f       	adc	r31, r31
    5136:	a2 17       	cp	r26, r18
    5138:	b3 07       	cpc	r27, r19
    513a:	e4 07       	cpc	r30, r20
    513c:	f5 07       	cpc	r31, r21
    513e:	20 f0       	brcs	.+8      	; 0x5148 <__udivmodsi4_ep>
    5140:	a2 1b       	sub	r26, r18
    5142:	b3 0b       	sbc	r27, r19
    5144:	e4 0b       	sbc	r30, r20
    5146:	f5 0b       	sbc	r31, r21

00005148 <__udivmodsi4_ep>:
    5148:	66 1f       	adc	r22, r22
    514a:	77 1f       	adc	r23, r23
    514c:	88 1f       	adc	r24, r24
    514e:	99 1f       	adc	r25, r25
    5150:	1a 94       	dec	r1
    5152:	69 f7       	brne	.-38     	; 0x512e <__udivmodsi4_loop>
    5154:	60 95       	com	r22
    5156:	70 95       	com	r23
    5158:	80 95       	com	r24
    515a:	90 95       	com	r25
    515c:	9b 01       	movw	r18, r22
    515e:	ac 01       	movw	r20, r24
    5160:	bd 01       	movw	r22, r26
    5162:	cf 01       	movw	r24, r30
    5164:	08 95       	ret

00005166 <memcmp>:
    5166:	fb 01       	movw	r30, r22
    5168:	dc 01       	movw	r26, r24
    516a:	04 c0       	rjmp	.+8      	; 0x5174 <memcmp+0xe>
    516c:	8d 91       	ld	r24, X+
    516e:	01 90       	ld	r0, Z+
    5170:	80 19       	sub	r24, r0
    5172:	21 f4       	brne	.+8      	; 0x517c <memcmp+0x16>
    5174:	41 50       	subi	r20, 0x01	; 1
    5176:	50 40       	sbci	r21, 0x00	; 0
    5178:	c8 f7       	brcc	.-14     	; 0x516c <memcmp+0x6>
    517a:	88 1b       	sub	r24, r24
    517c:	99 0b       	sbc	r25, r25
    517e:	08 95       	ret

00005180 <memcpy>:
    5180:	fb 01       	movw	r30, r22
    5182:	dc 01       	movw	r26, r24
    5184:	02 c0       	rjmp	.+4      	; 0x518a <memcpy+0xa>
    5186:	01 90       	ld	r0, Z+
    5188:	0d 92       	st	X+, r0
    518a:	41 50       	subi	r20, 0x01	; 1
    518c:	50 40       	sbci	r21, 0x00	; 0
    518e:	d8 f7       	brcc	.-10     	; 0x5186 <memcpy+0x6>
    5190:	08 95       	ret

00005192 <strncat>:
    5192:	fb 01       	movw	r30, r22
    5194:	dc 01       	movw	r26, r24
    5196:	0d 90       	ld	r0, X+
    5198:	00 20       	and	r0, r0
    519a:	e9 f7       	brne	.-6      	; 0x5196 <strncat+0x4>
    519c:	11 97       	sbiw	r26, 0x01	; 1
    519e:	41 50       	subi	r20, 0x01	; 1
    51a0:	50 40       	sbci	r21, 0x00	; 0
    51a2:	28 f0       	brcs	.+10     	; 0x51ae <strncat+0x1c>
    51a4:	01 90       	ld	r0, Z+
    51a6:	00 20       	and	r0, r0
    51a8:	0d 92       	st	X+, r0
    51aa:	c9 f7       	brne	.-14     	; 0x519e <strncat+0xc>
    51ac:	08 95       	ret
    51ae:	1c 92       	st	X, r1
    51b0:	08 95       	ret

000051b2 <snprintf>:
    51b2:	0f 93       	push	r16
    51b4:	1f 93       	push	r17
    51b6:	df 93       	push	r29
    51b8:	cf 93       	push	r28
    51ba:	cd b7       	in	r28, 0x3d	; 61
    51bc:	de b7       	in	r29, 0x3e	; 62
    51be:	2e 97       	sbiw	r28, 0x0e	; 14
    51c0:	cd bf       	out	0x3d, r28	; 61
    51c2:	de bf       	out	0x3e, r29	; 62
    51c4:	0e 89       	ldd	r16, Y+22	; 0x16
    51c6:	1f 89       	ldd	r17, Y+23	; 0x17
    51c8:	88 8d       	ldd	r24, Y+24	; 0x18
    51ca:	99 8d       	ldd	r25, Y+25	; 0x19
    51cc:	97 ff       	sbrs	r25, 7
    51ce:	02 c0       	rjmp	.+4      	; 0x51d4 <snprintf+0x22>
    51d0:	80 e0       	ldi	r24, 0x00	; 0
    51d2:	90 e8       	ldi	r25, 0x80	; 128
    51d4:	01 97       	sbiw	r24, 0x01	; 1
    51d6:	8d 83       	std	Y+5, r24	; 0x05
    51d8:	9e 83       	std	Y+6, r25	; 0x06
    51da:	09 83       	std	Y+1, r16	; 0x01
    51dc:	1a 83       	std	Y+2, r17	; 0x02
    51de:	86 e0       	ldi	r24, 0x06	; 6
    51e0:	8c 83       	std	Y+4, r24	; 0x04
    51e2:	9e 01       	movw	r18, r28
    51e4:	24 5e       	subi	r18, 0xE4	; 228
    51e6:	3f 4f       	sbci	r19, 0xFF	; 255
    51e8:	ce 01       	movw	r24, r28
    51ea:	01 96       	adiw	r24, 0x01	; 1
    51ec:	6a 8d       	ldd	r22, Y+26	; 0x1a
    51ee:	7b 8d       	ldd	r23, Y+27	; 0x1b
    51f0:	a9 01       	movw	r20, r18
    51f2:	0e 94 73 29 	call	0x52e6	; 0x52e6 <vfprintf>
    51f6:	4d 81       	ldd	r20, Y+5	; 0x05
    51f8:	5e 81       	ldd	r21, Y+6	; 0x06
    51fa:	57 fd       	sbrc	r21, 7
    51fc:	0a c0       	rjmp	.+20     	; 0x5212 <snprintf+0x60>
    51fe:	2f 81       	ldd	r18, Y+7	; 0x07
    5200:	38 85       	ldd	r19, Y+8	; 0x08
    5202:	42 17       	cp	r20, r18
    5204:	53 07       	cpc	r21, r19
    5206:	0c f4       	brge	.+2      	; 0x520a <snprintf+0x58>
    5208:	9a 01       	movw	r18, r20
    520a:	02 0f       	add	r16, r18
    520c:	13 1f       	adc	r17, r19
    520e:	f8 01       	movw	r30, r16
    5210:	10 82       	st	Z, r1
    5212:	2e 96       	adiw	r28, 0x0e	; 14
    5214:	cd bf       	out	0x3d, r28	; 61
    5216:	de bf       	out	0x3e, r29	; 62
    5218:	cf 91       	pop	r28
    521a:	df 91       	pop	r29
    521c:	1f 91       	pop	r17
    521e:	0f 91       	pop	r16
    5220:	08 95       	ret

00005222 <vsnprintf>:
    5222:	0f 93       	push	r16
    5224:	1f 93       	push	r17
    5226:	df 93       	push	r29
    5228:	cf 93       	push	r28
    522a:	cd b7       	in	r28, 0x3d	; 61
    522c:	de b7       	in	r29, 0x3e	; 62
    522e:	2e 97       	sbiw	r28, 0x0e	; 14
    5230:	cd bf       	out	0x3d, r28	; 61
    5232:	de bf       	out	0x3e, r29	; 62
    5234:	8c 01       	movw	r16, r24
    5236:	77 ff       	sbrs	r23, 7
    5238:	02 c0       	rjmp	.+4      	; 0x523e <vsnprintf+0x1c>
    523a:	60 e0       	ldi	r22, 0x00	; 0
    523c:	70 e8       	ldi	r23, 0x80	; 128
    523e:	61 50       	subi	r22, 0x01	; 1
    5240:	70 40       	sbci	r23, 0x00	; 0
    5242:	6d 83       	std	Y+5, r22	; 0x05
    5244:	7e 83       	std	Y+6, r23	; 0x06
    5246:	09 83       	std	Y+1, r16	; 0x01
    5248:	1a 83       	std	Y+2, r17	; 0x02
    524a:	86 e0       	ldi	r24, 0x06	; 6
    524c:	8c 83       	std	Y+4, r24	; 0x04
    524e:	ce 01       	movw	r24, r28
    5250:	01 96       	adiw	r24, 0x01	; 1
    5252:	ba 01       	movw	r22, r20
    5254:	a9 01       	movw	r20, r18
    5256:	0e 94 73 29 	call	0x52e6	; 0x52e6 <vfprintf>
    525a:	2d 81       	ldd	r18, Y+5	; 0x05
    525c:	3e 81       	ldd	r19, Y+6	; 0x06
    525e:	37 fd       	sbrc	r19, 7
    5260:	09 c0       	rjmp	.+18     	; 0x5274 <vsnprintf+0x52>
    5262:	ef 81       	ldd	r30, Y+7	; 0x07
    5264:	f8 85       	ldd	r31, Y+8	; 0x08
    5266:	2e 17       	cp	r18, r30
    5268:	3f 07       	cpc	r19, r31
    526a:	0c f4       	brge	.+2      	; 0x526e <vsnprintf+0x4c>
    526c:	f9 01       	movw	r30, r18
    526e:	e0 0f       	add	r30, r16
    5270:	f1 1f       	adc	r31, r17
    5272:	10 82       	st	Z, r1
    5274:	2e 96       	adiw	r28, 0x0e	; 14
    5276:	cd bf       	out	0x3d, r28	; 61
    5278:	de bf       	out	0x3e, r29	; 62
    527a:	cf 91       	pop	r28
    527c:	df 91       	pop	r29
    527e:	1f 91       	pop	r17
    5280:	0f 91       	pop	r16
    5282:	08 95       	ret

00005284 <vsnprintf_P>:
    5284:	0f 93       	push	r16
    5286:	1f 93       	push	r17
    5288:	df 93       	push	r29
    528a:	cf 93       	push	r28
    528c:	cd b7       	in	r28, 0x3d	; 61
    528e:	de b7       	in	r29, 0x3e	; 62
    5290:	2e 97       	sbiw	r28, 0x0e	; 14
    5292:	cd bf       	out	0x3d, r28	; 61
    5294:	de bf       	out	0x3e, r29	; 62
    5296:	8c 01       	movw	r16, r24
    5298:	77 ff       	sbrs	r23, 7
    529a:	02 c0       	rjmp	.+4      	; 0x52a0 <vsnprintf_P+0x1c>
    529c:	60 e0       	ldi	r22, 0x00	; 0
    529e:	70 e8       	ldi	r23, 0x80	; 128
    52a0:	61 50       	subi	r22, 0x01	; 1
    52a2:	70 40       	sbci	r23, 0x00	; 0
    52a4:	6d 83       	std	Y+5, r22	; 0x05
    52a6:	7e 83       	std	Y+6, r23	; 0x06
    52a8:	09 83       	std	Y+1, r16	; 0x01
    52aa:	1a 83       	std	Y+2, r17	; 0x02
    52ac:	8e e0       	ldi	r24, 0x0E	; 14
    52ae:	8c 83       	std	Y+4, r24	; 0x04
    52b0:	ce 01       	movw	r24, r28
    52b2:	01 96       	adiw	r24, 0x01	; 1
    52b4:	ba 01       	movw	r22, r20
    52b6:	a9 01       	movw	r20, r18
    52b8:	0e 94 73 29 	call	0x52e6	; 0x52e6 <vfprintf>
    52bc:	2d 81       	ldd	r18, Y+5	; 0x05
    52be:	3e 81       	ldd	r19, Y+6	; 0x06
    52c0:	37 fd       	sbrc	r19, 7
    52c2:	09 c0       	rjmp	.+18     	; 0x52d6 <vsnprintf_P+0x52>
    52c4:	ef 81       	ldd	r30, Y+7	; 0x07
    52c6:	f8 85       	ldd	r31, Y+8	; 0x08
    52c8:	2e 17       	cp	r18, r30
    52ca:	3f 07       	cpc	r19, r31
    52cc:	0c f4       	brge	.+2      	; 0x52d0 <vsnprintf_P+0x4c>
    52ce:	f9 01       	movw	r30, r18
    52d0:	e0 0f       	add	r30, r16
    52d2:	f1 1f       	adc	r31, r17
    52d4:	10 82       	st	Z, r1
    52d6:	2e 96       	adiw	r28, 0x0e	; 14
    52d8:	cd bf       	out	0x3d, r28	; 61
    52da:	de bf       	out	0x3e, r29	; 62
    52dc:	cf 91       	pop	r28
    52de:	df 91       	pop	r29
    52e0:	1f 91       	pop	r17
    52e2:	0f 91       	pop	r16
    52e4:	08 95       	ret

000052e6 <vfprintf>:
    52e6:	2f 92       	push	r2
    52e8:	3f 92       	push	r3
    52ea:	4f 92       	push	r4
    52ec:	5f 92       	push	r5
    52ee:	6f 92       	push	r6
    52f0:	7f 92       	push	r7
    52f2:	8f 92       	push	r8
    52f4:	9f 92       	push	r9
    52f6:	af 92       	push	r10
    52f8:	bf 92       	push	r11
    52fa:	cf 92       	push	r12
    52fc:	df 92       	push	r13
    52fe:	ef 92       	push	r14
    5300:	ff 92       	push	r15
    5302:	0f 93       	push	r16
    5304:	1f 93       	push	r17
    5306:	df 93       	push	r29
    5308:	cf 93       	push	r28
    530a:	cd b7       	in	r28, 0x3d	; 61
    530c:	de b7       	in	r29, 0x3e	; 62
    530e:	2b 97       	sbiw	r28, 0x0b	; 11
    5310:	cd bf       	out	0x3d, r28	; 61
    5312:	de bf       	out	0x3e, r29	; 62
    5314:	3c 01       	movw	r6, r24
    5316:	2b 01       	movw	r4, r22
    5318:	5a 01       	movw	r10, r20
    531a:	fc 01       	movw	r30, r24
    531c:	16 82       	std	Z+6, r1	; 0x06
    531e:	17 82       	std	Z+7, r1	; 0x07
    5320:	83 81       	ldd	r24, Z+3	; 0x03
    5322:	81 fd       	sbrc	r24, 1
    5324:	03 c0       	rjmp	.+6      	; 0x532c <vfprintf+0x46>
    5326:	6f ef       	ldi	r22, 0xFF	; 255
    5328:	7f ef       	ldi	r23, 0xFF	; 255
    532a:	c6 c1       	rjmp	.+908    	; 0x56b8 <vfprintf+0x3d2>
    532c:	9a e0       	ldi	r25, 0x0A	; 10
    532e:	89 2e       	mov	r8, r25
    5330:	1e 01       	movw	r2, r28
    5332:	08 94       	sec
    5334:	21 1c       	adc	r2, r1
    5336:	31 1c       	adc	r3, r1
    5338:	f3 01       	movw	r30, r6
    533a:	23 81       	ldd	r18, Z+3	; 0x03
    533c:	f2 01       	movw	r30, r4
    533e:	23 fd       	sbrc	r18, 3
    5340:	85 91       	lpm	r24, Z+
    5342:	23 ff       	sbrs	r18, 3
    5344:	81 91       	ld	r24, Z+
    5346:	2f 01       	movw	r4, r30
    5348:	88 23       	and	r24, r24
    534a:	09 f4       	brne	.+2      	; 0x534e <vfprintf+0x68>
    534c:	b2 c1       	rjmp	.+868    	; 0x56b2 <vfprintf+0x3cc>
    534e:	85 32       	cpi	r24, 0x25	; 37
    5350:	39 f4       	brne	.+14     	; 0x5360 <vfprintf+0x7a>
    5352:	23 fd       	sbrc	r18, 3
    5354:	85 91       	lpm	r24, Z+
    5356:	23 ff       	sbrs	r18, 3
    5358:	81 91       	ld	r24, Z+
    535a:	2f 01       	movw	r4, r30
    535c:	85 32       	cpi	r24, 0x25	; 37
    535e:	29 f4       	brne	.+10     	; 0x536a <vfprintf+0x84>
    5360:	90 e0       	ldi	r25, 0x00	; 0
    5362:	b3 01       	movw	r22, r6
    5364:	0e 94 89 2b 	call	0x5712	; 0x5712 <fputc>
    5368:	e7 cf       	rjmp	.-50     	; 0x5338 <vfprintf+0x52>
    536a:	98 2f       	mov	r25, r24
    536c:	ff 24       	eor	r15, r15
    536e:	ee 24       	eor	r14, r14
    5370:	99 24       	eor	r9, r9
    5372:	ff e1       	ldi	r31, 0x1F	; 31
    5374:	ff 15       	cp	r31, r15
    5376:	d0 f0       	brcs	.+52     	; 0x53ac <vfprintf+0xc6>
    5378:	9b 32       	cpi	r25, 0x2B	; 43
    537a:	69 f0       	breq	.+26     	; 0x5396 <vfprintf+0xb0>
    537c:	9c 32       	cpi	r25, 0x2C	; 44
    537e:	28 f4       	brcc	.+10     	; 0x538a <vfprintf+0xa4>
    5380:	90 32       	cpi	r25, 0x20	; 32
    5382:	59 f0       	breq	.+22     	; 0x539a <vfprintf+0xb4>
    5384:	93 32       	cpi	r25, 0x23	; 35
    5386:	91 f4       	brne	.+36     	; 0x53ac <vfprintf+0xc6>
    5388:	0e c0       	rjmp	.+28     	; 0x53a6 <vfprintf+0xc0>
    538a:	9d 32       	cpi	r25, 0x2D	; 45
    538c:	49 f0       	breq	.+18     	; 0x53a0 <vfprintf+0xba>
    538e:	90 33       	cpi	r25, 0x30	; 48
    5390:	69 f4       	brne	.+26     	; 0x53ac <vfprintf+0xc6>
    5392:	41 e0       	ldi	r20, 0x01	; 1
    5394:	24 c0       	rjmp	.+72     	; 0x53de <vfprintf+0xf8>
    5396:	52 e0       	ldi	r21, 0x02	; 2
    5398:	f5 2a       	or	r15, r21
    539a:	84 e0       	ldi	r24, 0x04	; 4
    539c:	f8 2a       	or	r15, r24
    539e:	28 c0       	rjmp	.+80     	; 0x53f0 <vfprintf+0x10a>
    53a0:	98 e0       	ldi	r25, 0x08	; 8
    53a2:	f9 2a       	or	r15, r25
    53a4:	25 c0       	rjmp	.+74     	; 0x53f0 <vfprintf+0x10a>
    53a6:	e0 e1       	ldi	r30, 0x10	; 16
    53a8:	fe 2a       	or	r15, r30
    53aa:	22 c0       	rjmp	.+68     	; 0x53f0 <vfprintf+0x10a>
    53ac:	f7 fc       	sbrc	r15, 7
    53ae:	29 c0       	rjmp	.+82     	; 0x5402 <vfprintf+0x11c>
    53b0:	89 2f       	mov	r24, r25
    53b2:	80 53       	subi	r24, 0x30	; 48
    53b4:	8a 30       	cpi	r24, 0x0A	; 10
    53b6:	70 f4       	brcc	.+28     	; 0x53d4 <vfprintf+0xee>
    53b8:	f6 fe       	sbrs	r15, 6
    53ba:	05 c0       	rjmp	.+10     	; 0x53c6 <vfprintf+0xe0>
    53bc:	98 9c       	mul	r9, r8
    53be:	90 2c       	mov	r9, r0
    53c0:	11 24       	eor	r1, r1
    53c2:	98 0e       	add	r9, r24
    53c4:	15 c0       	rjmp	.+42     	; 0x53f0 <vfprintf+0x10a>
    53c6:	e8 9c       	mul	r14, r8
    53c8:	e0 2c       	mov	r14, r0
    53ca:	11 24       	eor	r1, r1
    53cc:	e8 0e       	add	r14, r24
    53ce:	f0 e2       	ldi	r31, 0x20	; 32
    53d0:	ff 2a       	or	r15, r31
    53d2:	0e c0       	rjmp	.+28     	; 0x53f0 <vfprintf+0x10a>
    53d4:	9e 32       	cpi	r25, 0x2E	; 46
    53d6:	29 f4       	brne	.+10     	; 0x53e2 <vfprintf+0xfc>
    53d8:	f6 fc       	sbrc	r15, 6
    53da:	6b c1       	rjmp	.+726    	; 0x56b2 <vfprintf+0x3cc>
    53dc:	40 e4       	ldi	r20, 0x40	; 64
    53de:	f4 2a       	or	r15, r20
    53e0:	07 c0       	rjmp	.+14     	; 0x53f0 <vfprintf+0x10a>
    53e2:	9c 36       	cpi	r25, 0x6C	; 108
    53e4:	19 f4       	brne	.+6      	; 0x53ec <vfprintf+0x106>
    53e6:	50 e8       	ldi	r21, 0x80	; 128
    53e8:	f5 2a       	or	r15, r21
    53ea:	02 c0       	rjmp	.+4      	; 0x53f0 <vfprintf+0x10a>
    53ec:	98 36       	cpi	r25, 0x68	; 104
    53ee:	49 f4       	brne	.+18     	; 0x5402 <vfprintf+0x11c>
    53f0:	f2 01       	movw	r30, r4
    53f2:	23 fd       	sbrc	r18, 3
    53f4:	95 91       	lpm	r25, Z+
    53f6:	23 ff       	sbrs	r18, 3
    53f8:	91 91       	ld	r25, Z+
    53fa:	2f 01       	movw	r4, r30
    53fc:	99 23       	and	r25, r25
    53fe:	09 f0       	breq	.+2      	; 0x5402 <vfprintf+0x11c>
    5400:	b8 cf       	rjmp	.-144    	; 0x5372 <vfprintf+0x8c>
    5402:	89 2f       	mov	r24, r25
    5404:	85 54       	subi	r24, 0x45	; 69
    5406:	83 30       	cpi	r24, 0x03	; 3
    5408:	18 f0       	brcs	.+6      	; 0x5410 <vfprintf+0x12a>
    540a:	80 52       	subi	r24, 0x20	; 32
    540c:	83 30       	cpi	r24, 0x03	; 3
    540e:	38 f4       	brcc	.+14     	; 0x541e <vfprintf+0x138>
    5410:	44 e0       	ldi	r20, 0x04	; 4
    5412:	50 e0       	ldi	r21, 0x00	; 0
    5414:	a4 0e       	add	r10, r20
    5416:	b5 1e       	adc	r11, r21
    5418:	5f e3       	ldi	r21, 0x3F	; 63
    541a:	59 83       	std	Y+1, r21	; 0x01
    541c:	0f c0       	rjmp	.+30     	; 0x543c <vfprintf+0x156>
    541e:	93 36       	cpi	r25, 0x63	; 99
    5420:	31 f0       	breq	.+12     	; 0x542e <vfprintf+0x148>
    5422:	93 37       	cpi	r25, 0x73	; 115
    5424:	79 f0       	breq	.+30     	; 0x5444 <vfprintf+0x15e>
    5426:	93 35       	cpi	r25, 0x53	; 83
    5428:	09 f0       	breq	.+2      	; 0x542c <vfprintf+0x146>
    542a:	56 c0       	rjmp	.+172    	; 0x54d8 <vfprintf+0x1f2>
    542c:	20 c0       	rjmp	.+64     	; 0x546e <vfprintf+0x188>
    542e:	f5 01       	movw	r30, r10
    5430:	80 81       	ld	r24, Z
    5432:	89 83       	std	Y+1, r24	; 0x01
    5434:	42 e0       	ldi	r20, 0x02	; 2
    5436:	50 e0       	ldi	r21, 0x00	; 0
    5438:	a4 0e       	add	r10, r20
    543a:	b5 1e       	adc	r11, r21
    543c:	61 01       	movw	r12, r2
    543e:	01 e0       	ldi	r16, 0x01	; 1
    5440:	10 e0       	ldi	r17, 0x00	; 0
    5442:	12 c0       	rjmp	.+36     	; 0x5468 <vfprintf+0x182>
    5444:	f5 01       	movw	r30, r10
    5446:	c0 80       	ld	r12, Z
    5448:	d1 80       	ldd	r13, Z+1	; 0x01
    544a:	f6 fc       	sbrc	r15, 6
    544c:	03 c0       	rjmp	.+6      	; 0x5454 <vfprintf+0x16e>
    544e:	6f ef       	ldi	r22, 0xFF	; 255
    5450:	7f ef       	ldi	r23, 0xFF	; 255
    5452:	02 c0       	rjmp	.+4      	; 0x5458 <vfprintf+0x172>
    5454:	69 2d       	mov	r22, r9
    5456:	70 e0       	ldi	r23, 0x00	; 0
    5458:	42 e0       	ldi	r20, 0x02	; 2
    545a:	50 e0       	ldi	r21, 0x00	; 0
    545c:	a4 0e       	add	r10, r20
    545e:	b5 1e       	adc	r11, r21
    5460:	c6 01       	movw	r24, r12
    5462:	0e 94 7e 2b 	call	0x56fc	; 0x56fc <strnlen>
    5466:	8c 01       	movw	r16, r24
    5468:	5f e7       	ldi	r21, 0x7F	; 127
    546a:	f5 22       	and	r15, r21
    546c:	14 c0       	rjmp	.+40     	; 0x5496 <vfprintf+0x1b0>
    546e:	f5 01       	movw	r30, r10
    5470:	c0 80       	ld	r12, Z
    5472:	d1 80       	ldd	r13, Z+1	; 0x01
    5474:	f6 fc       	sbrc	r15, 6
    5476:	03 c0       	rjmp	.+6      	; 0x547e <vfprintf+0x198>
    5478:	6f ef       	ldi	r22, 0xFF	; 255
    547a:	7f ef       	ldi	r23, 0xFF	; 255
    547c:	02 c0       	rjmp	.+4      	; 0x5482 <vfprintf+0x19c>
    547e:	69 2d       	mov	r22, r9
    5480:	70 e0       	ldi	r23, 0x00	; 0
    5482:	42 e0       	ldi	r20, 0x02	; 2
    5484:	50 e0       	ldi	r21, 0x00	; 0
    5486:	a4 0e       	add	r10, r20
    5488:	b5 1e       	adc	r11, r21
    548a:	c6 01       	movw	r24, r12
    548c:	0e 94 73 2b 	call	0x56e6	; 0x56e6 <strnlen_P>
    5490:	8c 01       	movw	r16, r24
    5492:	50 e8       	ldi	r21, 0x80	; 128
    5494:	f5 2a       	or	r15, r21
    5496:	f3 fe       	sbrs	r15, 3
    5498:	07 c0       	rjmp	.+14     	; 0x54a8 <vfprintf+0x1c2>
    549a:	1a c0       	rjmp	.+52     	; 0x54d0 <vfprintf+0x1ea>
    549c:	80 e2       	ldi	r24, 0x20	; 32
    549e:	90 e0       	ldi	r25, 0x00	; 0
    54a0:	b3 01       	movw	r22, r6
    54a2:	0e 94 89 2b 	call	0x5712	; 0x5712 <fputc>
    54a6:	ea 94       	dec	r14
    54a8:	8e 2d       	mov	r24, r14
    54aa:	90 e0       	ldi	r25, 0x00	; 0
    54ac:	08 17       	cp	r16, r24
    54ae:	19 07       	cpc	r17, r25
    54b0:	a8 f3       	brcs	.-22     	; 0x549c <vfprintf+0x1b6>
    54b2:	0e c0       	rjmp	.+28     	; 0x54d0 <vfprintf+0x1ea>
    54b4:	f6 01       	movw	r30, r12
    54b6:	f7 fc       	sbrc	r15, 7
    54b8:	85 91       	lpm	r24, Z+
    54ba:	f7 fe       	sbrs	r15, 7
    54bc:	81 91       	ld	r24, Z+
    54be:	6f 01       	movw	r12, r30
    54c0:	90 e0       	ldi	r25, 0x00	; 0
    54c2:	b3 01       	movw	r22, r6
    54c4:	0e 94 89 2b 	call	0x5712	; 0x5712 <fputc>
    54c8:	e1 10       	cpse	r14, r1
    54ca:	ea 94       	dec	r14
    54cc:	01 50       	subi	r16, 0x01	; 1
    54ce:	10 40       	sbci	r17, 0x00	; 0
    54d0:	01 15       	cp	r16, r1
    54d2:	11 05       	cpc	r17, r1
    54d4:	79 f7       	brne	.-34     	; 0x54b4 <vfprintf+0x1ce>
    54d6:	ea c0       	rjmp	.+468    	; 0x56ac <vfprintf+0x3c6>
    54d8:	94 36       	cpi	r25, 0x64	; 100
    54da:	11 f0       	breq	.+4      	; 0x54e0 <vfprintf+0x1fa>
    54dc:	99 36       	cpi	r25, 0x69	; 105
    54de:	69 f5       	brne	.+90     	; 0x553a <vfprintf+0x254>
    54e0:	f7 fe       	sbrs	r15, 7
    54e2:	08 c0       	rjmp	.+16     	; 0x54f4 <vfprintf+0x20e>
    54e4:	f5 01       	movw	r30, r10
    54e6:	20 81       	ld	r18, Z
    54e8:	31 81       	ldd	r19, Z+1	; 0x01
    54ea:	42 81       	ldd	r20, Z+2	; 0x02
    54ec:	53 81       	ldd	r21, Z+3	; 0x03
    54ee:	84 e0       	ldi	r24, 0x04	; 4
    54f0:	90 e0       	ldi	r25, 0x00	; 0
    54f2:	0a c0       	rjmp	.+20     	; 0x5508 <vfprintf+0x222>
    54f4:	f5 01       	movw	r30, r10
    54f6:	80 81       	ld	r24, Z
    54f8:	91 81       	ldd	r25, Z+1	; 0x01
    54fa:	9c 01       	movw	r18, r24
    54fc:	44 27       	eor	r20, r20
    54fe:	37 fd       	sbrc	r19, 7
    5500:	40 95       	com	r20
    5502:	54 2f       	mov	r21, r20
    5504:	82 e0       	ldi	r24, 0x02	; 2
    5506:	90 e0       	ldi	r25, 0x00	; 0
    5508:	a8 0e       	add	r10, r24
    550a:	b9 1e       	adc	r11, r25
    550c:	9f e6       	ldi	r25, 0x6F	; 111
    550e:	f9 22       	and	r15, r25
    5510:	57 ff       	sbrs	r21, 7
    5512:	09 c0       	rjmp	.+18     	; 0x5526 <vfprintf+0x240>
    5514:	50 95       	com	r21
    5516:	40 95       	com	r20
    5518:	30 95       	com	r19
    551a:	21 95       	neg	r18
    551c:	3f 4f       	sbci	r19, 0xFF	; 255
    551e:	4f 4f       	sbci	r20, 0xFF	; 255
    5520:	5f 4f       	sbci	r21, 0xFF	; 255
    5522:	e0 e8       	ldi	r30, 0x80	; 128
    5524:	fe 2a       	or	r15, r30
    5526:	ca 01       	movw	r24, r20
    5528:	b9 01       	movw	r22, r18
    552a:	a1 01       	movw	r20, r2
    552c:	2a e0       	ldi	r18, 0x0A	; 10
    552e:	30 e0       	ldi	r19, 0x00	; 0
    5530:	0e 94 b5 2b 	call	0x576a	; 0x576a <__ultoa_invert>
    5534:	d8 2e       	mov	r13, r24
    5536:	d2 18       	sub	r13, r2
    5538:	40 c0       	rjmp	.+128    	; 0x55ba <vfprintf+0x2d4>
    553a:	95 37       	cpi	r25, 0x75	; 117
    553c:	29 f4       	brne	.+10     	; 0x5548 <vfprintf+0x262>
    553e:	1f 2d       	mov	r17, r15
    5540:	1f 7e       	andi	r17, 0xEF	; 239
    5542:	2a e0       	ldi	r18, 0x0A	; 10
    5544:	30 e0       	ldi	r19, 0x00	; 0
    5546:	1d c0       	rjmp	.+58     	; 0x5582 <vfprintf+0x29c>
    5548:	1f 2d       	mov	r17, r15
    554a:	19 7f       	andi	r17, 0xF9	; 249
    554c:	9f 36       	cpi	r25, 0x6F	; 111
    554e:	61 f0       	breq	.+24     	; 0x5568 <vfprintf+0x282>
    5550:	90 37       	cpi	r25, 0x70	; 112
    5552:	20 f4       	brcc	.+8      	; 0x555c <vfprintf+0x276>
    5554:	98 35       	cpi	r25, 0x58	; 88
    5556:	09 f0       	breq	.+2      	; 0x555a <vfprintf+0x274>
    5558:	ac c0       	rjmp	.+344    	; 0x56b2 <vfprintf+0x3cc>
    555a:	0f c0       	rjmp	.+30     	; 0x557a <vfprintf+0x294>
    555c:	90 37       	cpi	r25, 0x70	; 112
    555e:	39 f0       	breq	.+14     	; 0x556e <vfprintf+0x288>
    5560:	98 37       	cpi	r25, 0x78	; 120
    5562:	09 f0       	breq	.+2      	; 0x5566 <vfprintf+0x280>
    5564:	a6 c0       	rjmp	.+332    	; 0x56b2 <vfprintf+0x3cc>
    5566:	04 c0       	rjmp	.+8      	; 0x5570 <vfprintf+0x28a>
    5568:	28 e0       	ldi	r18, 0x08	; 8
    556a:	30 e0       	ldi	r19, 0x00	; 0
    556c:	0a c0       	rjmp	.+20     	; 0x5582 <vfprintf+0x29c>
    556e:	10 61       	ori	r17, 0x10	; 16
    5570:	14 fd       	sbrc	r17, 4
    5572:	14 60       	ori	r17, 0x04	; 4
    5574:	20 e1       	ldi	r18, 0x10	; 16
    5576:	30 e0       	ldi	r19, 0x00	; 0
    5578:	04 c0       	rjmp	.+8      	; 0x5582 <vfprintf+0x29c>
    557a:	14 fd       	sbrc	r17, 4
    557c:	16 60       	ori	r17, 0x06	; 6
    557e:	20 e1       	ldi	r18, 0x10	; 16
    5580:	32 e0       	ldi	r19, 0x02	; 2
    5582:	17 ff       	sbrs	r17, 7
    5584:	08 c0       	rjmp	.+16     	; 0x5596 <vfprintf+0x2b0>
    5586:	f5 01       	movw	r30, r10
    5588:	60 81       	ld	r22, Z
    558a:	71 81       	ldd	r23, Z+1	; 0x01
    558c:	82 81       	ldd	r24, Z+2	; 0x02
    558e:	93 81       	ldd	r25, Z+3	; 0x03
    5590:	44 e0       	ldi	r20, 0x04	; 4
    5592:	50 e0       	ldi	r21, 0x00	; 0
    5594:	08 c0       	rjmp	.+16     	; 0x55a6 <vfprintf+0x2c0>
    5596:	f5 01       	movw	r30, r10
    5598:	80 81       	ld	r24, Z
    559a:	91 81       	ldd	r25, Z+1	; 0x01
    559c:	bc 01       	movw	r22, r24
    559e:	80 e0       	ldi	r24, 0x00	; 0
    55a0:	90 e0       	ldi	r25, 0x00	; 0
    55a2:	42 e0       	ldi	r20, 0x02	; 2
    55a4:	50 e0       	ldi	r21, 0x00	; 0
    55a6:	a4 0e       	add	r10, r20
    55a8:	b5 1e       	adc	r11, r21
    55aa:	a1 01       	movw	r20, r2
    55ac:	0e 94 b5 2b 	call	0x576a	; 0x576a <__ultoa_invert>
    55b0:	d8 2e       	mov	r13, r24
    55b2:	d2 18       	sub	r13, r2
    55b4:	8f e7       	ldi	r24, 0x7F	; 127
    55b6:	f8 2e       	mov	r15, r24
    55b8:	f1 22       	and	r15, r17
    55ba:	f6 fe       	sbrs	r15, 6
    55bc:	0b c0       	rjmp	.+22     	; 0x55d4 <vfprintf+0x2ee>
    55be:	5e ef       	ldi	r21, 0xFE	; 254
    55c0:	f5 22       	and	r15, r21
    55c2:	d9 14       	cp	r13, r9
    55c4:	38 f4       	brcc	.+14     	; 0x55d4 <vfprintf+0x2ee>
    55c6:	f4 fe       	sbrs	r15, 4
    55c8:	07 c0       	rjmp	.+14     	; 0x55d8 <vfprintf+0x2f2>
    55ca:	f2 fc       	sbrc	r15, 2
    55cc:	05 c0       	rjmp	.+10     	; 0x55d8 <vfprintf+0x2f2>
    55ce:	8f ee       	ldi	r24, 0xEF	; 239
    55d0:	f8 22       	and	r15, r24
    55d2:	02 c0       	rjmp	.+4      	; 0x55d8 <vfprintf+0x2f2>
    55d4:	1d 2d       	mov	r17, r13
    55d6:	01 c0       	rjmp	.+2      	; 0x55da <vfprintf+0x2f4>
    55d8:	19 2d       	mov	r17, r9
    55da:	f4 fe       	sbrs	r15, 4
    55dc:	0d c0       	rjmp	.+26     	; 0x55f8 <vfprintf+0x312>
    55de:	fe 01       	movw	r30, r28
    55e0:	ed 0d       	add	r30, r13
    55e2:	f1 1d       	adc	r31, r1
    55e4:	80 81       	ld	r24, Z
    55e6:	80 33       	cpi	r24, 0x30	; 48
    55e8:	19 f4       	brne	.+6      	; 0x55f0 <vfprintf+0x30a>
    55ea:	99 ee       	ldi	r25, 0xE9	; 233
    55ec:	f9 22       	and	r15, r25
    55ee:	08 c0       	rjmp	.+16     	; 0x5600 <vfprintf+0x31a>
    55f0:	1f 5f       	subi	r17, 0xFF	; 255
    55f2:	f2 fe       	sbrs	r15, 2
    55f4:	05 c0       	rjmp	.+10     	; 0x5600 <vfprintf+0x31a>
    55f6:	03 c0       	rjmp	.+6      	; 0x55fe <vfprintf+0x318>
    55f8:	8f 2d       	mov	r24, r15
    55fa:	86 78       	andi	r24, 0x86	; 134
    55fc:	09 f0       	breq	.+2      	; 0x5600 <vfprintf+0x31a>
    55fe:	1f 5f       	subi	r17, 0xFF	; 255
    5600:	0f 2d       	mov	r16, r15
    5602:	f3 fc       	sbrc	r15, 3
    5604:	14 c0       	rjmp	.+40     	; 0x562e <vfprintf+0x348>
    5606:	f0 fe       	sbrs	r15, 0
    5608:	0f c0       	rjmp	.+30     	; 0x5628 <vfprintf+0x342>
    560a:	1e 15       	cp	r17, r14
    560c:	10 f0       	brcs	.+4      	; 0x5612 <vfprintf+0x32c>
    560e:	9d 2c       	mov	r9, r13
    5610:	0b c0       	rjmp	.+22     	; 0x5628 <vfprintf+0x342>
    5612:	9d 2c       	mov	r9, r13
    5614:	9e 0c       	add	r9, r14
    5616:	91 1a       	sub	r9, r17
    5618:	1e 2d       	mov	r17, r14
    561a:	06 c0       	rjmp	.+12     	; 0x5628 <vfprintf+0x342>
    561c:	80 e2       	ldi	r24, 0x20	; 32
    561e:	90 e0       	ldi	r25, 0x00	; 0
    5620:	b3 01       	movw	r22, r6
    5622:	0e 94 89 2b 	call	0x5712	; 0x5712 <fputc>
    5626:	1f 5f       	subi	r17, 0xFF	; 255
    5628:	1e 15       	cp	r17, r14
    562a:	c0 f3       	brcs	.-16     	; 0x561c <vfprintf+0x336>
    562c:	04 c0       	rjmp	.+8      	; 0x5636 <vfprintf+0x350>
    562e:	1e 15       	cp	r17, r14
    5630:	10 f4       	brcc	.+4      	; 0x5636 <vfprintf+0x350>
    5632:	e1 1a       	sub	r14, r17
    5634:	01 c0       	rjmp	.+2      	; 0x5638 <vfprintf+0x352>
    5636:	ee 24       	eor	r14, r14
    5638:	04 ff       	sbrs	r16, 4
    563a:	0f c0       	rjmp	.+30     	; 0x565a <vfprintf+0x374>
    563c:	80 e3       	ldi	r24, 0x30	; 48
    563e:	90 e0       	ldi	r25, 0x00	; 0
    5640:	b3 01       	movw	r22, r6
    5642:	0e 94 89 2b 	call	0x5712	; 0x5712 <fputc>
    5646:	02 ff       	sbrs	r16, 2
    5648:	1d c0       	rjmp	.+58     	; 0x5684 <vfprintf+0x39e>
    564a:	01 fd       	sbrc	r16, 1
    564c:	03 c0       	rjmp	.+6      	; 0x5654 <vfprintf+0x36e>
    564e:	88 e7       	ldi	r24, 0x78	; 120
    5650:	90 e0       	ldi	r25, 0x00	; 0
    5652:	0e c0       	rjmp	.+28     	; 0x5670 <vfprintf+0x38a>
    5654:	88 e5       	ldi	r24, 0x58	; 88
    5656:	90 e0       	ldi	r25, 0x00	; 0
    5658:	0b c0       	rjmp	.+22     	; 0x5670 <vfprintf+0x38a>
    565a:	80 2f       	mov	r24, r16
    565c:	86 78       	andi	r24, 0x86	; 134
    565e:	91 f0       	breq	.+36     	; 0x5684 <vfprintf+0x39e>
    5660:	01 ff       	sbrs	r16, 1
    5662:	02 c0       	rjmp	.+4      	; 0x5668 <vfprintf+0x382>
    5664:	8b e2       	ldi	r24, 0x2B	; 43
    5666:	01 c0       	rjmp	.+2      	; 0x566a <vfprintf+0x384>
    5668:	80 e2       	ldi	r24, 0x20	; 32
    566a:	f7 fc       	sbrc	r15, 7
    566c:	8d e2       	ldi	r24, 0x2D	; 45
    566e:	90 e0       	ldi	r25, 0x00	; 0
    5670:	b3 01       	movw	r22, r6
    5672:	0e 94 89 2b 	call	0x5712	; 0x5712 <fputc>
    5676:	06 c0       	rjmp	.+12     	; 0x5684 <vfprintf+0x39e>
    5678:	80 e3       	ldi	r24, 0x30	; 48
    567a:	90 e0       	ldi	r25, 0x00	; 0
    567c:	b3 01       	movw	r22, r6
    567e:	0e 94 89 2b 	call	0x5712	; 0x5712 <fputc>
    5682:	9a 94       	dec	r9
    5684:	d9 14       	cp	r13, r9
    5686:	c0 f3       	brcs	.-16     	; 0x5678 <vfprintf+0x392>
    5688:	da 94       	dec	r13
    568a:	f1 01       	movw	r30, r2
    568c:	ed 0d       	add	r30, r13
    568e:	f1 1d       	adc	r31, r1
    5690:	80 81       	ld	r24, Z
    5692:	90 e0       	ldi	r25, 0x00	; 0
    5694:	b3 01       	movw	r22, r6
    5696:	0e 94 89 2b 	call	0x5712	; 0x5712 <fputc>
    569a:	dd 20       	and	r13, r13
    569c:	a9 f7       	brne	.-22     	; 0x5688 <vfprintf+0x3a2>
    569e:	06 c0       	rjmp	.+12     	; 0x56ac <vfprintf+0x3c6>
    56a0:	80 e2       	ldi	r24, 0x20	; 32
    56a2:	90 e0       	ldi	r25, 0x00	; 0
    56a4:	b3 01       	movw	r22, r6
    56a6:	0e 94 89 2b 	call	0x5712	; 0x5712 <fputc>
    56aa:	ea 94       	dec	r14
    56ac:	ee 20       	and	r14, r14
    56ae:	c1 f7       	brne	.-16     	; 0x56a0 <vfprintf+0x3ba>
    56b0:	43 ce       	rjmp	.-890    	; 0x5338 <vfprintf+0x52>
    56b2:	f3 01       	movw	r30, r6
    56b4:	66 81       	ldd	r22, Z+6	; 0x06
    56b6:	77 81       	ldd	r23, Z+7	; 0x07
    56b8:	cb 01       	movw	r24, r22
    56ba:	2b 96       	adiw	r28, 0x0b	; 11
    56bc:	cd bf       	out	0x3d, r28	; 61
    56be:	de bf       	out	0x3e, r29	; 62
    56c0:	cf 91       	pop	r28
    56c2:	df 91       	pop	r29
    56c4:	1f 91       	pop	r17
    56c6:	0f 91       	pop	r16
    56c8:	ff 90       	pop	r15
    56ca:	ef 90       	pop	r14
    56cc:	df 90       	pop	r13
    56ce:	cf 90       	pop	r12
    56d0:	bf 90       	pop	r11
    56d2:	af 90       	pop	r10
    56d4:	9f 90       	pop	r9
    56d6:	8f 90       	pop	r8
    56d8:	7f 90       	pop	r7
    56da:	6f 90       	pop	r6
    56dc:	5f 90       	pop	r5
    56de:	4f 90       	pop	r4
    56e0:	3f 90       	pop	r3
    56e2:	2f 90       	pop	r2
    56e4:	08 95       	ret

000056e6 <strnlen_P>:
    56e6:	fc 01       	movw	r30, r24
    56e8:	05 90       	lpm	r0, Z+
    56ea:	61 50       	subi	r22, 0x01	; 1
    56ec:	70 40       	sbci	r23, 0x00	; 0
    56ee:	01 10       	cpse	r0, r1
    56f0:	d8 f7       	brcc	.-10     	; 0x56e8 <strnlen_P+0x2>
    56f2:	80 95       	com	r24
    56f4:	90 95       	com	r25
    56f6:	8e 0f       	add	r24, r30
    56f8:	9f 1f       	adc	r25, r31
    56fa:	08 95       	ret

000056fc <strnlen>:
    56fc:	fc 01       	movw	r30, r24
    56fe:	61 50       	subi	r22, 0x01	; 1
    5700:	70 40       	sbci	r23, 0x00	; 0
    5702:	01 90       	ld	r0, Z+
    5704:	01 10       	cpse	r0, r1
    5706:	d8 f7       	brcc	.-10     	; 0x56fe <strnlen+0x2>
    5708:	80 95       	com	r24
    570a:	90 95       	com	r25
    570c:	8e 0f       	add	r24, r30
    570e:	9f 1f       	adc	r25, r31
    5710:	08 95       	ret

00005712 <fputc>:
    5712:	0f 93       	push	r16
    5714:	1f 93       	push	r17
    5716:	cf 93       	push	r28
    5718:	df 93       	push	r29
    571a:	8c 01       	movw	r16, r24
    571c:	eb 01       	movw	r28, r22
    571e:	8b 81       	ldd	r24, Y+3	; 0x03
    5720:	81 ff       	sbrs	r24, 1
    5722:	1b c0       	rjmp	.+54     	; 0x575a <fputc+0x48>
    5724:	82 ff       	sbrs	r24, 2
    5726:	0d c0       	rjmp	.+26     	; 0x5742 <fputc+0x30>
    5728:	2e 81       	ldd	r18, Y+6	; 0x06
    572a:	3f 81       	ldd	r19, Y+7	; 0x07
    572c:	8c 81       	ldd	r24, Y+4	; 0x04
    572e:	9d 81       	ldd	r25, Y+5	; 0x05
    5730:	28 17       	cp	r18, r24
    5732:	39 07       	cpc	r19, r25
    5734:	64 f4       	brge	.+24     	; 0x574e <fputc+0x3c>
    5736:	e8 81       	ld	r30, Y
    5738:	f9 81       	ldd	r31, Y+1	; 0x01
    573a:	01 93       	st	Z+, r16
    573c:	e8 83       	st	Y, r30
    573e:	f9 83       	std	Y+1, r31	; 0x01
    5740:	06 c0       	rjmp	.+12     	; 0x574e <fputc+0x3c>
    5742:	e8 85       	ldd	r30, Y+8	; 0x08
    5744:	f9 85       	ldd	r31, Y+9	; 0x09
    5746:	80 2f       	mov	r24, r16
    5748:	19 95       	eicall
    574a:	89 2b       	or	r24, r25
    574c:	31 f4       	brne	.+12     	; 0x575a <fputc+0x48>
    574e:	8e 81       	ldd	r24, Y+6	; 0x06
    5750:	9f 81       	ldd	r25, Y+7	; 0x07
    5752:	01 96       	adiw	r24, 0x01	; 1
    5754:	8e 83       	std	Y+6, r24	; 0x06
    5756:	9f 83       	std	Y+7, r25	; 0x07
    5758:	02 c0       	rjmp	.+4      	; 0x575e <fputc+0x4c>
    575a:	0f ef       	ldi	r16, 0xFF	; 255
    575c:	1f ef       	ldi	r17, 0xFF	; 255
    575e:	c8 01       	movw	r24, r16
    5760:	df 91       	pop	r29
    5762:	cf 91       	pop	r28
    5764:	1f 91       	pop	r17
    5766:	0f 91       	pop	r16
    5768:	08 95       	ret

0000576a <__ultoa_invert>:
    576a:	fa 01       	movw	r30, r20
    576c:	aa 27       	eor	r26, r26
    576e:	28 30       	cpi	r18, 0x08	; 8
    5770:	51 f1       	breq	.+84     	; 0x57c6 <__ultoa_invert+0x5c>
    5772:	20 31       	cpi	r18, 0x10	; 16
    5774:	81 f1       	breq	.+96     	; 0x57d6 <__ultoa_invert+0x6c>
    5776:	e8 94       	clt
    5778:	6f 93       	push	r22
    577a:	6e 7f       	andi	r22, 0xFE	; 254
    577c:	6e 5f       	subi	r22, 0xFE	; 254
    577e:	7f 4f       	sbci	r23, 0xFF	; 255
    5780:	8f 4f       	sbci	r24, 0xFF	; 255
    5782:	9f 4f       	sbci	r25, 0xFF	; 255
    5784:	af 4f       	sbci	r26, 0xFF	; 255
    5786:	b1 e0       	ldi	r27, 0x01	; 1
    5788:	3e d0       	rcall	.+124    	; 0x5806 <__ultoa_invert+0x9c>
    578a:	b4 e0       	ldi	r27, 0x04	; 4
    578c:	3c d0       	rcall	.+120    	; 0x5806 <__ultoa_invert+0x9c>
    578e:	67 0f       	add	r22, r23
    5790:	78 1f       	adc	r23, r24
    5792:	89 1f       	adc	r24, r25
    5794:	9a 1f       	adc	r25, r26
    5796:	a1 1d       	adc	r26, r1
    5798:	68 0f       	add	r22, r24
    579a:	79 1f       	adc	r23, r25
    579c:	8a 1f       	adc	r24, r26
    579e:	91 1d       	adc	r25, r1
    57a0:	a1 1d       	adc	r26, r1
    57a2:	6a 0f       	add	r22, r26
    57a4:	71 1d       	adc	r23, r1
    57a6:	81 1d       	adc	r24, r1
    57a8:	91 1d       	adc	r25, r1
    57aa:	a1 1d       	adc	r26, r1
    57ac:	20 d0       	rcall	.+64     	; 0x57ee <__ultoa_invert+0x84>
    57ae:	09 f4       	brne	.+2      	; 0x57b2 <__ultoa_invert+0x48>
    57b0:	68 94       	set
    57b2:	3f 91       	pop	r19
    57b4:	2a e0       	ldi	r18, 0x0A	; 10
    57b6:	26 9f       	mul	r18, r22
    57b8:	11 24       	eor	r1, r1
    57ba:	30 19       	sub	r19, r0
    57bc:	30 5d       	subi	r19, 0xD0	; 208
    57be:	31 93       	st	Z+, r19
    57c0:	de f6       	brtc	.-74     	; 0x5778 <__ultoa_invert+0xe>
    57c2:	cf 01       	movw	r24, r30
    57c4:	08 95       	ret
    57c6:	46 2f       	mov	r20, r22
    57c8:	47 70       	andi	r20, 0x07	; 7
    57ca:	40 5d       	subi	r20, 0xD0	; 208
    57cc:	41 93       	st	Z+, r20
    57ce:	b3 e0       	ldi	r27, 0x03	; 3
    57d0:	0f d0       	rcall	.+30     	; 0x57f0 <__ultoa_invert+0x86>
    57d2:	c9 f7       	brne	.-14     	; 0x57c6 <__ultoa_invert+0x5c>
    57d4:	f6 cf       	rjmp	.-20     	; 0x57c2 <__ultoa_invert+0x58>
    57d6:	46 2f       	mov	r20, r22
    57d8:	4f 70       	andi	r20, 0x0F	; 15
    57da:	40 5d       	subi	r20, 0xD0	; 208
    57dc:	4a 33       	cpi	r20, 0x3A	; 58
    57de:	18 f0       	brcs	.+6      	; 0x57e6 <__ultoa_invert+0x7c>
    57e0:	49 5d       	subi	r20, 0xD9	; 217
    57e2:	31 fd       	sbrc	r19, 1
    57e4:	40 52       	subi	r20, 0x20	; 32
    57e6:	41 93       	st	Z+, r20
    57e8:	02 d0       	rcall	.+4      	; 0x57ee <__ultoa_invert+0x84>
    57ea:	a9 f7       	brne	.-22     	; 0x57d6 <__ultoa_invert+0x6c>
    57ec:	ea cf       	rjmp	.-44     	; 0x57c2 <__ultoa_invert+0x58>
    57ee:	b4 e0       	ldi	r27, 0x04	; 4
    57f0:	a6 95       	lsr	r26
    57f2:	97 95       	ror	r25
    57f4:	87 95       	ror	r24
    57f6:	77 95       	ror	r23
    57f8:	67 95       	ror	r22
    57fa:	ba 95       	dec	r27
    57fc:	c9 f7       	brne	.-14     	; 0x57f0 <__ultoa_invert+0x86>
    57fe:	00 97       	sbiw	r24, 0x00	; 0
    5800:	61 05       	cpc	r22, r1
    5802:	71 05       	cpc	r23, r1
    5804:	08 95       	ret
    5806:	9b 01       	movw	r18, r22
    5808:	ac 01       	movw	r20, r24
    580a:	0a 2e       	mov	r0, r26
    580c:	06 94       	lsr	r0
    580e:	57 95       	ror	r21
    5810:	47 95       	ror	r20
    5812:	37 95       	ror	r19
    5814:	27 95       	ror	r18
    5816:	ba 95       	dec	r27
    5818:	c9 f7       	brne	.-14     	; 0x580c <__ultoa_invert+0xa2>
    581a:	62 0f       	add	r22, r18
    581c:	73 1f       	adc	r23, r19
    581e:	84 1f       	adc	r24, r20
    5820:	95 1f       	adc	r25, r21
    5822:	a0 1d       	adc	r26, r0
    5824:	08 95       	ret

00005826 <_exit>:
    5826:	f8 94       	cli

00005828 <__stop_program>:
    5828:	ff cf       	rjmp	.-2      	; 0x5828 <__stop_program>
